; ModuleID = '/home/huiying/Morpher/Morpher_DFG_Generator//src/instrumentation/instrumentation.cpp'
source_filename = "/home/huiying/Morpher/Morpher_DFG_Generator//src/instrumentation/instrumentation.cpp"
target datalayout = "e-m:e-p:32:32-p270:32:32-p271:32:32-p272:64:64-f64:32:64-f80:32-n8:16:32-S128"
target triple = "i386-unknown-linux-gnu"

%"class.std::ios_base::Init" = type { i8 }
%"class.std::map" = type { %"class.std::_Rb_tree" }
%"class.std::_Rb_tree" = type { %"struct.std::_Rb_tree<std::__cxx11::basic_string<char>, std::pair<const std::__cxx11::basic_string<char>, int>, std::_Select1st<std::pair<const std::__cxx11::basic_string<char>, int>>, std::less<std::__cxx11::basic_string<char>>>::_Rb_tree_impl" }
%"struct.std::_Rb_tree<std::__cxx11::basic_string<char>, std::pair<const std::__cxx11::basic_string<char>, int>, std::_Select1st<std::pair<const std::__cxx11::basic_string<char>, int>>, std::less<std::__cxx11::basic_string<char>>>::_Rb_tree_impl" = type { %"struct.std::_Rb_tree_key_compare", %"struct.std::_Rb_tree_header" }
%"struct.std::_Rb_tree_key_compare" = type { %"struct.std::less" }
%"struct.std::less" = type { i8 }
%"struct.std::_Rb_tree_header" = type { %"struct.std::_Rb_tree_node_base", i32 }
%"struct.std::_Rb_tree_node_base" = type { i32, ptr, ptr, ptr }
%"class.std::map.0" = type { %"class.std::_Rb_tree.1" }
%"class.std::_Rb_tree.1" = type { %"struct.std::_Rb_tree<std::__cxx11::basic_string<char>, std::pair<const std::__cxx11::basic_string<char>, unsigned char *>, std::_Select1st<std::pair<const std::__cxx11::basic_string<char>, unsigned char *>>, std::less<std::__cxx11::basic_string<char>>>::_Rb_tree_impl" }
%"struct.std::_Rb_tree<std::__cxx11::basic_string<char>, std::pair<const std::__cxx11::basic_string<char>, unsigned char *>, std::_Select1st<std::pair<const std::__cxx11::basic_string<char>, unsigned char *>>, std::less<std::__cxx11::basic_string<char>>>::_Rb_tree_impl" = type { %"struct.std::_Rb_tree_key_compare", %"struct.std::_Rb_tree_header" }
%"class.std::map.5" = type { %"class.std::_Rb_tree.6" }
%"class.std::_Rb_tree.6" = type { %"struct.std::_Rb_tree<std::__cxx11::basic_string<char>, std::pair<const std::__cxx11::basic_string<char>, std::vector<unsigned char>>, std::_Select1st<std::pair<const std::__cxx11::basic_string<char>, std::vector<unsigned char>>>, std::less<std::__cxx11::basic_string<char>>>::_Rb_tree_impl" }
%"struct.std::_Rb_tree<std::__cxx11::basic_string<char>, std::pair<const std::__cxx11::basic_string<char>, std::vector<unsigned char>>, std::_Select1st<std::pair<const std::__cxx11::basic_string<char>, std::vector<unsigned char>>>, std::less<std::__cxx11::basic_string<char>>>::_Rb_tree_impl" = type { %"struct.std::_Rb_tree_key_compare", %"struct.std::_Rb_tree_header" }
%"class.std::set" = type { %"class.std::_Rb_tree.10" }
%"class.std::_Rb_tree.10" = type { %"struct.std::_Rb_tree<std::__cxx11::basic_string<char>, std::__cxx11::basic_string<char>, std::_Identity<std::__cxx11::basic_string<char>>, std::less<std::__cxx11::basic_string<char>>>::_Rb_tree_impl" }
%"struct.std::_Rb_tree<std::__cxx11::basic_string<char>, std::__cxx11::basic_string<char>, std::_Identity<std::__cxx11::basic_string<char>>, std::less<std::__cxx11::basic_string<char>>>::_Rb_tree_impl" = type { %"struct.std::_Rb_tree_key_compare", %"struct.std::_Rb_tree_header" }
%"class.std::map.14" = type { %"class.std::_Rb_tree.15" }
%"class.std::_Rb_tree.15" = type { %"struct.std::_Rb_tree<std::__cxx11::basic_string<char>, std::pair<const std::__cxx11::basic_string<char>, _IO_FILE *>, std::_Select1st<std::pair<const std::__cxx11::basic_string<char>, _IO_FILE *>>, std::less<std::__cxx11::basic_string<char>>>::_Rb_tree_impl" }
%"struct.std::_Rb_tree<std::__cxx11::basic_string<char>, std::pair<const std::__cxx11::basic_string<char>, _IO_FILE *>, std::_Select1st<std::pair<const std::__cxx11::basic_string<char>, _IO_FILE *>>, std::less<std::__cxx11::basic_string<char>>>::_Rb_tree_impl" = type { %"struct.std::_Rb_tree_key_compare", %"struct.std::_Rb_tree_header" }
%"class.std::__cxx11::basic_string" = type { %"struct.std::__cxx11::basic_string<char>::_Alloc_hider", i32, %union.anon }
%"struct.std::__cxx11::basic_string<char>::_Alloc_hider" = type { ptr }
%union.anon = type { i32, [12 x i8] }
%"class.std::map.22" = type { %"class.std::_Rb_tree.23" }
%"class.std::_Rb_tree.23" = type { %"struct.std::_Rb_tree<std::__cxx11::basic_string<char>, std::pair<const std::__cxx11::basic_string<char>, std::set<std::__cxx11::basic_string<char>>>, std::_Select1st<std::pair<const std::__cxx11::basic_string<char>, std::set<std::__cxx11::basic_string<char>>>>, std::less<std::__cxx11::basic_string<char>>>::_Rb_tree_impl" }
%"struct.std::_Rb_tree<std::__cxx11::basic_string<char>, std::pair<const std::__cxx11::basic_string<char>, std::set<std::__cxx11::basic_string<char>>>, std::_Select1st<std::pair<const std::__cxx11::basic_string<char>, std::set<std::__cxx11::basic_string<char>>>>, std::less<std::__cxx11::basic_string<char>>>::_Rb_tree_impl" = type { %"struct.std::_Rb_tree_key_compare", %"struct.std::_Rb_tree_header" }
%"class.std::map.27" = type { %"class.std::_Rb_tree.28" }
%"class.std::_Rb_tree.28" = type { %"struct.std::_Rb_tree<std::__cxx11::basic_string<char>, std::pair<const std::__cxx11::basic_string<char>, std::__cxx11::basic_string<char>>, std::_Select1st<std::pair<const std::__cxx11::basic_string<char>, std::__cxx11::basic_string<char>>>, std::less<std::__cxx11::basic_string<char>>>::_Rb_tree_impl" }
%"struct.std::_Rb_tree<std::__cxx11::basic_string<char>, std::pair<const std::__cxx11::basic_string<char>, std::__cxx11::basic_string<char>>, std::_Select1st<std::pair<const std::__cxx11::basic_string<char>, std::__cxx11::basic_string<char>>>, std::less<std::__cxx11::basic_string<char>>>::_Rb_tree_impl" = type { %"struct.std::_Rb_tree_key_compare", %"struct.std::_Rb_tree_header" }
%"class.std::map.32" = type { %"class.std::_Rb_tree.33" }
%"class.std::_Rb_tree.33" = type { %"struct.std::_Rb_tree<std::__cxx11::basic_string<char>, std::pair<const std::__cxx11::basic_string<char>, std::map<std::__cxx11::basic_string<char>, int>>, std::_Select1st<std::pair<const std::__cxx11::basic_string<char>, std::map<std::__cxx11::basic_string<char>, int>>>, std::less<std::__cxx11::basic_string<char>>>::_Rb_tree_impl" }
%"struct.std::_Rb_tree<std::__cxx11::basic_string<char>, std::pair<const std::__cxx11::basic_string<char>, std::map<std::__cxx11::basic_string<char>, int>>, std::_Select1st<std::pair<const std::__cxx11::basic_string<char>, std::map<std::__cxx11::basic_string<char>, int>>>, std::less<std::__cxx11::basic_string<char>>>::_Rb_tree_impl" = type { %"struct.std::_Rb_tree_key_compare", %"struct.std::_Rb_tree_header" }
%struct.pathInfo = type { %"class.std::vector", i32 }
%"class.std::vector" = type { %"struct.std::_Vector_base" }
%"struct.std::_Vector_base" = type { %"struct.std::_Vector_base<std::__cxx11::basic_string<char>, std::allocator<std::__cxx11::basic_string<char>>>::_Vector_impl" }
%"struct.std::_Vector_base<std::__cxx11::basic_string<char>, std::allocator<std::__cxx11::basic_string<char>>>::_Vector_impl" = type { %"struct.std::_Vector_base<std::__cxx11::basic_string<char>, std::allocator<std::__cxx11::basic_string<char>>>::_Vector_impl_data" }
%"struct.std::_Vector_base<std::__cxx11::basic_string<char>, std::allocator<std::__cxx11::basic_string<char>>>::_Vector_impl_data" = type { ptr, ptr, ptr }
%"class.std::map.40" = type { %"class.std::_Rb_tree.41" }
%"class.std::_Rb_tree.41" = type { %"struct.std::_Rb_tree<std::__cxx11::basic_string<char>, std::pair<const std::__cxx11::basic_string<char>, std::vector<std::vector<pathInfo>>>, std::_Select1st<std::pair<const std::__cxx11::basic_string<char>, std::vector<std::vector<pathInfo>>>>, std::less<std::__cxx11::basic_string<char>>>::_Rb_tree_impl" }
%"struct.std::_Rb_tree<std::__cxx11::basic_string<char>, std::pair<const std::__cxx11::basic_string<char>, std::vector<std::vector<pathInfo>>>, std::_Select1st<std::pair<const std::__cxx11::basic_string<char>, std::vector<std::vector<pathInfo>>>>, std::less<std::__cxx11::basic_string<char>>>::_Rb_tree_impl" = type { %"struct.std::_Rb_tree_key_compare", %"struct.std::_Rb_tree_header" }
%"class.std::vector.45" = type { %"struct.std::_Vector_base.46" }
%"struct.std::_Vector_base.46" = type { %"struct.std::_Vector_base<pathInfo, std::allocator<pathInfo>>::_Vector_impl" }
%"struct.std::_Vector_base<pathInfo, std::allocator<pathInfo>>::_Vector_impl" = type { %"struct.std::_Vector_base<pathInfo, std::allocator<pathInfo>>::_Vector_impl_data" }
%"struct.std::_Vector_base<pathInfo, std::allocator<pathInfo>>::_Vector_impl_data" = type { ptr, ptr, ptr }
%"class.std::map.50" = type { %"class.std::_Rb_tree.51" }
%"class.std::_Rb_tree.51" = type { %"struct.std::_Rb_tree<std::vector<std::__cxx11::basic_string<char>>, std::pair<const std::vector<std::__cxx11::basic_string<char>>, int>, std::_Select1st<std::pair<const std::vector<std::__cxx11::basic_string<char>>, int>>, std::less<std::vector<std::__cxx11::basic_string<char>>>>::_Rb_tree_impl" }
%"struct.std::_Rb_tree<std::vector<std::__cxx11::basic_string<char>>, std::pair<const std::vector<std::__cxx11::basic_string<char>>, int>, std::_Select1st<std::pair<const std::vector<std::__cxx11::basic_string<char>>, int>>, std::less<std::vector<std::__cxx11::basic_string<char>>>>::_Rb_tree_impl" = type { %"struct.std::_Rb_tree_key_compare.55", %"struct.std::_Rb_tree_header" }
%"struct.std::_Rb_tree_key_compare.55" = type { %"struct.std::less.56" }
%"struct.std::less.56" = type { i8 }
%"class.std::map.58" = type { %"class.std::_Rb_tree.59" }
%"class.std::_Rb_tree.59" = type { %"struct.std::_Rb_tree<unsigned int, std::pair<const unsigned int, AddrDataTuple>, std::_Select1st<std::pair<const unsigned int, AddrDataTuple>>, std::less<unsigned int>>::_Rb_tree_impl" }
%"struct.std::_Rb_tree<unsigned int, std::pair<const unsigned int, AddrDataTuple>, std::_Select1st<std::pair<const unsigned int, AddrDataTuple>>, std::less<unsigned int>>::_Rb_tree_impl" = type { %"struct.std::_Rb_tree_key_compare.63", %"struct.std::_Rb_tree_header" }
%"struct.std::_Rb_tree_key_compare.63" = type { %"struct.std::less.64" }
%"struct.std::less.64" = type { i8 }
%"class.std::map.66" = type { %"class.std::_Rb_tree.67" }
%"class.std::_Rb_tree.67" = type { %"struct.std::_Rb_tree<std::__cxx11::basic_string<char>, std::pair<const std::__cxx11::basic_string<char>, AddrDataTupleMorpher>, std::_Select1st<std::pair<const std::__cxx11::basic_string<char>, AddrDataTupleMorpher>>, std::less<std::__cxx11::basic_string<char>>>::_Rb_tree_impl" }
%"struct.std::_Rb_tree<std::__cxx11::basic_string<char>, std::pair<const std::__cxx11::basic_string<char>, AddrDataTupleMorpher>, std::_Select1st<std::pair<const std::__cxx11::basic_string<char>, AddrDataTupleMorpher>>, std::less<std::__cxx11::basic_string<char>>>::_Rb_tree_impl" = type { %"struct.std::_Rb_tree_key_compare", %"struct.std::_Rb_tree_header" }
%"class.std::basic_ostream" = type { ptr, %"class.std::basic_ios" }
%"class.std::basic_ios" = type { %"class.std::ios_base", ptr, i8, i8, ptr, ptr, ptr, ptr }
%"class.std::ios_base" = type { ptr, i32, i32, i32, i32, i32, ptr, %"struct.std::ios_base::_Words", [8 x %"struct.std::ios_base::_Words"], i32, ptr, %"class.std::locale" }
%"struct.std::ios_base::_Words" = type { ptr, i32 }
%"class.std::locale" = type { ptr }
%"struct.std::piecewise_construct_t" = type { i8 }
%"class.std::allocator.19" = type { i8 }
%"struct.std::_Rb_tree_const_iterator" = type { ptr }
%struct.AddrDataTuple = type { i8, i8, %"class.std::__cxx11::basic_string" }
%"struct.std::pair" = type <{ %"struct.std::_Rb_tree_const_iterator", i8, [3 x i8] }>
%"struct.std::_Rb_tree_iterator.157" = type { ptr }
%"struct.std::_Rb_tree_iterator.79" = type { ptr }
%"struct.std::_Rb_tree_const_iterator.159" = type { ptr }
%"class.std::tuple" = type { %"struct.std::_Tuple_impl" }
%"struct.std::_Tuple_impl" = type { %"struct.std::_Head_base" }
%"struct.std::_Head_base" = type { ptr }
%"class.std::tuple.158" = type { i8 }
%"struct.std::pair.80" = type { i32, %struct.AddrDataTuple }
%"struct.std::pair.165" = type <{ %"struct.std::_Rb_tree_iterator.157", i8, [3 x i8] }>
%"struct.std::_Rb_tree_iterator" = type { ptr }
%"struct.std::_Rb_tree_iterator.169" = type { ptr }
%"struct.std::_Rb_tree_const_iterator.173" = type { ptr }
%"class.std::tuple.170" = type { %"struct.std::_Tuple_impl.171" }
%"struct.std::_Tuple_impl.171" = type { %"struct.std::_Head_base.172" }
%"struct.std::_Head_base.172" = type { ptr }
%"struct.std::pair.116" = type { %"class.std::__cxx11::basic_string", ptr }
%"struct.std::_Rb_tree_const_iterator.178" = type { ptr }
%"struct.std::pair.76" = type { %"class.std::__cxx11::basic_string", i32 }
%"struct.std::_Rb_tree_iterator.179" = type { ptr }
%"struct.std::_Rb_tree_const_iterator.180" = type { ptr }
%"struct.std::pair.121" = type { %"class.std::__cxx11::basic_string", %"class.std::vector.71" }
%"class.std::vector.71" = type { %"struct.std::_Vector_base.72" }
%"struct.std::_Vector_base.72" = type { %"struct.std::_Vector_base<unsigned char, std::allocator<unsigned char>>::_Vector_impl" }
%"struct.std::_Vector_base<unsigned char, std::allocator<unsigned char>>::_Vector_impl" = type { %"struct.std::_Vector_base<unsigned char, std::allocator<unsigned char>>::_Vector_impl_data" }
%"struct.std::_Vector_base<unsigned char, std::allocator<unsigned char>>::_Vector_impl_data" = type { ptr, ptr, ptr }
%"class.__gnu_cxx::__normal_iterator.183" = type { ptr }
%"class.std::__cxx11::basic_stringstream" = type { %"class.std::basic_iostream.base", %"class.std::__cxx11::basic_stringbuf", %"class.std::basic_ios" }
%"class.std::basic_iostream.base" = type { %"class.std::basic_istream.base", %"class.std::basic_ostream.base" }
%"class.std::basic_istream.base" = type { ptr, i32 }
%"class.std::basic_ostream.base" = type { ptr }
%"class.std::__cxx11::basic_stringbuf" = type { %"class.std::basic_streambuf", i32, %"class.std::__cxx11::basic_string" }
%"class.std::basic_streambuf" = type { ptr, ptr, ptr, ptr, ptr, ptr, ptr, %"class.std::locale" }
%"struct.std::_Rb_tree_iterator.184" = type { ptr }
%"struct.std::_Rb_tree_const_iterator.185" = type { ptr }
%"struct.std::pair.128" = type { %"class.std::__cxx11::basic_string", ptr }
%"struct.std::_Rb_tree_iterator.83" = type { ptr }
%struct.AddrDataTupleMorpher = type { %"class.std::vector.71", %"class.std::vector.71", %"class.std::__cxx11::basic_string" }
%"struct.std::pair.84" = type { %"class.std::__cxx11::basic_string", %struct.AddrDataTupleMorpher }
%"struct.std::pair.87" = type { %"class.std::__cxx11::basic_string", i32 }
%"struct.std::_Rb_tree_iterator.90" = type { ptr }
%"struct.std::pair.91" = type { %"class.std::__cxx11::basic_string", %"class.std::set" }
%"struct.std::_Rb_tree_iterator.97" = type { ptr }
%"struct.std::pair.98" = type { %"class.std::__cxx11::basic_string", %"class.std::map" }
%"struct.std::pair.94" = type { %"class.std::__cxx11::basic_string", %"class.std::set" }
%"struct.std::_Rb_tree_iterator.105" = type { ptr }
%"struct.std::_Rb_tree_const_iterator.188" = type { ptr }
%"struct.std::pair.135" = type { %"class.std::__cxx11::basic_string", %"class.std::__cxx11::basic_string" }
%"struct.std::pair.101" = type { %"class.std::__cxx11::basic_string", %"class.std::map" }
%"class.__gnu_cxx::__normal_iterator" = type { ptr }
%"class.__gnu_cxx::__normal_iterator.104" = type { ptr }
%"struct.std::_Rb_tree_const_iterator.191" = type { ptr }
%"struct.std::_Rb_tree_const_iterator.196" = type { ptr }
%"class.std::basic_ofstream" = type { %"class.std::basic_ostream.base", %"class.std::basic_filebuf", %"class.std::basic_ios" }
%"class.std::basic_filebuf" = type { %"class.std::basic_streambuf", %union.pthread_mutex_t, %"class.std::__basic_file", i32, %struct.__mbstate_t, %struct.__mbstate_t, %struct.__mbstate_t, ptr, i32, i8, i8, i8, i8, ptr, ptr, i8, ptr, ptr, i32, ptr, ptr }
%union.pthread_mutex_t = type { %struct.__pthread_mutex_s }
%struct.__pthread_mutex_s = type { i32, i32, i32, i32, i32, %union.anon.106 }
%union.anon.106 = type { %struct.__pthread_internal_slist }
%struct.__pthread_internal_slist = type { ptr }
%"class.std::__basic_file" = type <{ ptr, i8, [3 x i8] }>
%struct.__mbstate_t = type { i32, %union.anon.107 }
%union.anon.107 = type { i32 }
%"class.__gnu_cxx::__normal_iterator.155" = type { ptr }
%"struct.std::_Rb_tree_iterator.108" = type { ptr }
%"struct.std::_Rb_tree_const_iterator.202" = type { ptr }
%"class.std::tuple.199" = type { %"struct.std::_Tuple_impl.200" }
%"struct.std::_Tuple_impl.200" = type { %"struct.std::_Head_base.201" }
%"struct.std::_Head_base.201" = type { ptr }
%"struct.std::pair.147" = type { %"class.std::vector", i32 }
%"class.__gnu_cxx::__normal_iterator.203" = type { ptr }
%"struct.std::_Rb_tree_iterator.204" = type { ptr }
%"struct.std::_Rb_tree_const_iterator.205" = type { ptr }
%"struct.std::pair.142" = type { %"class.std::__cxx11::basic_string", %"class.std::vector.109" }
%"class.std::vector.109" = type { %"struct.std::_Vector_base.110" }
%"struct.std::_Vector_base.110" = type { %"struct.std::_Vector_base<std::vector<pathInfo>, std::allocator<std::vector<pathInfo>>>::_Vector_impl" }
%"struct.std::_Vector_base<std::vector<pathInfo>, std::allocator<std::vector<pathInfo>>>::_Vector_impl" = type { %"struct.std::_Vector_base<std::vector<pathInfo>, std::allocator<std::vector<pathInfo>>>::_Vector_impl_data" }
%"struct.std::_Vector_base<std::vector<pathInfo>, std::allocator<std::vector<pathInfo>>>::_Vector_impl_data" = type { ptr, ptr, ptr }
%"class.__gnu_cxx::__normal_iterator.208" = type { ptr }
%"struct.std::_Rb_tree_const_iterator.209" = type { ptr }
%"class.std::tuple.212" = type { %"struct.std::_Tuple_impl.213" }
%"struct.std::_Tuple_impl.213" = type { %"struct.std::_Head_base.214" }
%"struct.std::_Head_base.214" = type { ptr }
%"class.__gnu_cxx::__normal_iterator.154" = type { ptr }
%"struct.std::_Rb_tree_node" = type { %"struct.std::_Rb_tree_node_base", %"struct.__gnu_cxx::__aligned_membuf" }
%"struct.__gnu_cxx::__aligned_membuf" = type { [28 x i8] }
%"struct.std::_Rb_tree_node.114" = type { %"struct.std::_Rb_tree_node_base", %"struct.__gnu_cxx::__aligned_membuf.115" }
%"struct.__gnu_cxx::__aligned_membuf.115" = type { [28 x i8] }
%"struct.std::_Rb_tree_node.119" = type { %"struct.std::_Rb_tree_node_base", %"struct.__gnu_cxx::__aligned_membuf.120" }
%"struct.__gnu_cxx::__aligned_membuf.120" = type { [36 x i8] }
%"struct.std::_Rb_tree_node.124" = type { %"struct.std::_Rb_tree_node_base", %"struct.__gnu_cxx::__aligned_membuf.125" }
%"struct.__gnu_cxx::__aligned_membuf.125" = type { [24 x i8] }
%"struct.std::_Rb_tree_node.126" = type { %"struct.std::_Rb_tree_node_base", %"struct.__gnu_cxx::__aligned_membuf.127" }
%"struct.__gnu_cxx::__aligned_membuf.127" = type { [28 x i8] }
%"struct.std::_Rb_tree_node.131" = type { %"struct.std::_Rb_tree_node_base", %"struct.__gnu_cxx::__aligned_membuf.132" }
%"struct.__gnu_cxx::__aligned_membuf.132" = type { [48 x i8] }
%"struct.std::_Rb_tree_node.133" = type { %"struct.std::_Rb_tree_node_base", %"struct.__gnu_cxx::__aligned_membuf.134" }
%"struct.__gnu_cxx::__aligned_membuf.134" = type { [48 x i8] }
%"struct.std::_Rb_tree_node.138" = type { %"struct.std::_Rb_tree_node_base", %"struct.__gnu_cxx::__aligned_membuf.139" }
%"struct.__gnu_cxx::__aligned_membuf.139" = type { [48 x i8] }
%"struct.std::_Rb_tree_node.140" = type { %"struct.std::_Rb_tree_node_base", %"struct.__gnu_cxx::__aligned_membuf.141" }
%"struct.__gnu_cxx::__aligned_membuf.141" = type { [36 x i8] }
%"struct.std::_Rb_tree_node.145" = type { %"struct.std::_Rb_tree_node_base", %"struct.__gnu_cxx::__aligned_membuf.146" }
%"struct.__gnu_cxx::__aligned_membuf.146" = type { [16 x i8] }
%"struct.std::_Rb_tree_node.150" = type { %"struct.std::_Rb_tree_node_base", %"struct.__gnu_cxx::__aligned_membuf.151" }
%"struct.__gnu_cxx::__aligned_membuf.151" = type { [32 x i8] }
%"struct.std::_Rb_tree_node.152" = type { %"struct.std::_Rb_tree_node_base", %"struct.__gnu_cxx::__aligned_membuf.153" }
%"struct.__gnu_cxx::__aligned_membuf.153" = type { [72 x i8] }
%"class.std::allocator.73" = type { i8 }
%"class.std::allocator.11" = type { i8 }
%"struct.std::_Rb_tree<std::__cxx11::basic_string<char>, std::__cxx11::basic_string<char>, std::_Identity<std::__cxx11::basic_string<char>>, std::less<std::__cxx11::basic_string<char>>>::_Alloc_node" = type { ptr }
%"class.std::allocator" = type { i8 }
%"struct.std::_Rb_tree<std::__cxx11::basic_string<char>, std::pair<const std::__cxx11::basic_string<char>, int>, std::_Select1st<std::pair<const std::__cxx11::basic_string<char>, int>>, std::less<std::__cxx11::basic_string<char>>>::_Alloc_node" = type { ptr }
%"class.std::allocator.37" = type { i8 }
%"struct.__gnu_cxx::__ops::_Iter_equals_val" = type { ptr }
%"struct.std::random_access_iterator_tag" = type { i8 }
%"struct.std::integral_constant" = type { i8 }
%struct._Save_errno = type { i32 }
%"struct.std::integral_constant.156" = type { i8 }
%"struct.std::is_same" = type { i8 }
%"struct.std::_Identity" = type { i8 }
%"struct.std::pair.161" = type { ptr, ptr }
%"struct.std::_Select1st" = type { i8 }
%"struct.std::_Index_tuple" = type { i8 }
%"struct.std::_Index_tuple.164" = type { i8 }
%"struct.std::_Select1st.174" = type { i8 }
%"struct.std::_Select1st.176" = type { i8 }
%"struct.std::_Select1st.181" = type { i8 }
%"struct.std::_Select1st.186" = type { i8 }
%"struct.std::_Select1st.189" = type { i8 }
%"struct.std::_Select1st.192" = type { i8 }
%"struct.std::_Select1st.194" = type { i8 }
%"struct.std::_Select1st.197" = type { i8 }
%"struct.__gnu_cxx::__ops::_Iter_less_iter" = type { i8 }
%"struct.std::_Select1st.206" = type { i8 }
%"class.std::allocator.47" = type { i8 }
%"struct.std::_Select1st.210" = type { i8 }

$_ZNSt3mapINSt7__cxx1112basic_stringIcSt11char_traitsIcESaIcEEEiSt4lessIS5_ESaISt4pairIKS5_iEEEC2Ev = comdat any

$_ZNSt3mapINSt7__cxx1112basic_stringIcSt11char_traitsIcESaIcEEEiSt4lessIS5_ESaISt4pairIKS5_iEEED2Ev = comdat any

$_ZNSt3mapINSt7__cxx1112basic_stringIcSt11char_traitsIcESaIcEEEPhSt4lessIS5_ESaISt4pairIKS5_S6_EEEC2Ev = comdat any

$_ZNSt3mapINSt7__cxx1112basic_stringIcSt11char_traitsIcESaIcEEEPhSt4lessIS5_ESaISt4pairIKS5_S6_EEED2Ev = comdat any

$_ZNSt3mapINSt7__cxx1112basic_stringIcSt11char_traitsIcESaIcEEESt6vectorIhSaIhEESt4lessIS5_ESaISt4pairIKS5_S8_EEEC2Ev = comdat any

$_ZNSt3mapINSt7__cxx1112basic_stringIcSt11char_traitsIcESaIcEEESt6vectorIhSaIhEESt4lessIS5_ESaISt4pairIKS5_S8_EEED2Ev = comdat any

$_ZNSt3setINSt7__cxx1112basic_stringIcSt11char_traitsIcESaIcEEESt4lessIS5_ESaIS5_EEC2Ev = comdat any

$_ZNSt3setINSt7__cxx1112basic_stringIcSt11char_traitsIcESaIcEEESt4lessIS5_ESaIS5_EED2Ev = comdat any

$_ZNSt3mapINSt7__cxx1112basic_stringIcSt11char_traitsIcESaIcEEEP8_IO_FILESt4lessIS5_ESaISt4pairIKS5_S7_EEEC2Ev = comdat any

$_ZNSt3mapINSt7__cxx1112basic_stringIcSt11char_traitsIcESaIcEEEP8_IO_FILESt4lessIS5_ESaISt4pairIKS5_S7_EEED2Ev = comdat any

$_ZNSt3mapINSt7__cxx1112basic_stringIcSt11char_traitsIcESaIcEEESt3setIS5_St4lessIS5_ESaIS5_EES8_SaISt4pairIKS5_SA_EEEC2Ev = comdat any

$_ZNSt3mapINSt7__cxx1112basic_stringIcSt11char_traitsIcESaIcEEESt3setIS5_St4lessIS5_ESaIS5_EES8_SaISt4pairIKS5_SA_EEED2Ev = comdat any

$_ZNSt3mapINSt7__cxx1112basic_stringIcSt11char_traitsIcESaIcEEES5_St4lessIS5_ESaISt4pairIKS5_S5_EEEC2Ev = comdat any

$_ZNSt3mapINSt7__cxx1112basic_stringIcSt11char_traitsIcESaIcEEES5_St4lessIS5_ESaISt4pairIKS5_S5_EEED2Ev = comdat any

$_ZNSt3mapINSt7__cxx1112basic_stringIcSt11char_traitsIcESaIcEEES_IS5_iSt4lessIS5_ESaISt4pairIKS5_iEEES7_SaIS8_IS9_SC_EEEC2Ev = comdat any

$_ZNSt3mapINSt7__cxx1112basic_stringIcSt11char_traitsIcESaIcEEES_IS5_iSt4lessIS5_ESaISt4pairIKS5_iEEES7_SaIS8_IS9_SC_EEED2Ev = comdat any

$_ZN8pathInfoC2Ev = comdat any

$_ZN8pathInfoD2Ev = comdat any

$_ZNSt3mapINSt7__cxx1112basic_stringIcSt11char_traitsIcESaIcEEESt6vectorIS6_I8pathInfoSaIS7_EESaIS9_EESt4lessIS5_ESaISt4pairIKS5_SB_EEEC2Ev = comdat any

$_ZNSt3mapINSt7__cxx1112basic_stringIcSt11char_traitsIcESaIcEEESt6vectorIS6_I8pathInfoSaIS7_EESaIS9_EESt4lessIS5_ESaISt4pairIKS5_SB_EEED2Ev = comdat any

$_ZNSt6vectorI8pathInfoSaIS0_EEC2Ev = comdat any

$_ZNSt6vectorI8pathInfoSaIS0_EED2Ev = comdat any

$_ZNSt3mapISt6vectorINSt7__cxx1112basic_stringIcSt11char_traitsIcESaIcEEESaIS6_EEiSt4lessIS8_ESaISt4pairIKS8_iEEEC2Ev = comdat any

$_ZNSt3mapISt6vectorINSt7__cxx1112basic_stringIcSt11char_traitsIcESaIcEEESaIS6_EEiSt4lessIS8_ESaISt4pairIKS8_iEEED2Ev = comdat any

$_ZNSt3mapIj13AddrDataTupleSt4lessIjESaISt4pairIKjS0_EEEC2Ev = comdat any

$_ZNSt3mapIj13AddrDataTupleSt4lessIjESaISt4pairIKjS0_EEED2Ev = comdat any

$_ZNSt3mapINSt7__cxx1112basic_stringIcSt11char_traitsIcESaIcEEE20AddrDataTupleMorpherSt4lessIS5_ESaISt4pairIKS5_S6_EEEC2Ev = comdat any

$_ZNSt3mapINSt7__cxx1112basic_stringIcSt11char_traitsIcESaIcEEE20AddrDataTupleMorpherSt4lessIS5_ESaISt4pairIKS5_S6_EEED2Ev = comdat any

$_ZStneRKSt23_Rb_tree_const_iteratorINSt7__cxx1112basic_stringIcSt11char_traitsIcESaIcEEEES8_ = comdat any

$_ZNSt3setINSt7__cxx1112basic_stringIcSt11char_traitsIcESaIcEEESt4lessIS5_ESaIS5_EE4findERKS5_ = comdat any

$_ZNKSt3setINSt7__cxx1112basic_stringIcSt11char_traitsIcESaIcEEESt4lessIS5_ESaIS5_EE3endEv = comdat any

$_ZN13AddrDataTupleC2Ev = comdat any

$_ZNSt3mapIj13AddrDataTupleSt4lessIjESaISt4pairIKjS0_EEEixEOj = comdat any

$_ZN13AddrDataTupleaSERKS_ = comdat any

$_ZN13AddrDataTupleD2Ev = comdat any

$_ZNSt3setINSt7__cxx1112basic_stringIcSt11char_traitsIcESaIcEEESt4lessIS5_ESaIS5_EE6insertERKS5_ = comdat any

$_ZNSt3mapINSt7__cxx1112basic_stringIcSt11char_traitsIcESaIcEEEPhSt4lessIS5_ESaISt4pairIKS5_S6_EEEixERSA_ = comdat any

$_ZStneRKSt17_Rb_tree_iteratorISt4pairIKNSt7__cxx1112basic_stringIcSt11char_traitsIcESaIcEEEiEESB_ = comdat any

$_ZNSt3mapINSt7__cxx1112basic_stringIcSt11char_traitsIcESaIcEEEiSt4lessIS5_ESaISt4pairIKS5_iEEE4findERS9_ = comdat any

$_ZNSt3mapINSt7__cxx1112basic_stringIcSt11char_traitsIcESaIcEEEiSt4lessIS5_ESaISt4pairIKS5_iEEE3endEv = comdat any

$_ZNSt3mapINSt7__cxx1112basic_stringIcSt11char_traitsIcESaIcEEEiSt4lessIS5_ESaISt4pairIKS5_iEEEixERS9_ = comdat any

$_ZNSt3mapINSt7__cxx1112basic_stringIcSt11char_traitsIcESaIcEEESt6vectorIhSaIhEESt4lessIS5_ESaISt4pairIKS5_S8_EEEixERSC_ = comdat any

$_ZNSt6vectorIhSaIhEE9push_backERKh = comdat any

$_ZNSt17_Rb_tree_iteratorISt4pairIKNSt7__cxx1112basic_stringIcSt11char_traitsIcESaIcEEEiEEC2Ev = comdat any

$_ZNSt3mapINSt7__cxx1112basic_stringIcSt11char_traitsIcESaIcEEEiSt4lessIS5_ESaISt4pairIKS5_iEEE5beginEv = comdat any

$_ZNKSt17_Rb_tree_iteratorISt4pairIKNSt7__cxx1112basic_stringIcSt11char_traitsIcESaIcEEEiEEptEv = comdat any

$_ZNSt6vectorIhSaIhEEixEj = comdat any

$_ZNSt17_Rb_tree_iteratorISt4pairIKNSt7__cxx1112basic_stringIcSt11char_traitsIcESaIcEEEiEEppEi = comdat any

$_ZNSt3mapINSt7__cxx1112basic_stringIcSt11char_traitsIcESaIcEEEiSt4lessIS5_ESaISt4pairIKS5_iEEE5clearEv = comdat any

$_ZNSt3mapINSt7__cxx1112basic_stringIcSt11char_traitsIcESaIcEEESt6vectorIhSaIhEESt4lessIS5_ESaISt4pairIKS5_S8_EEE5clearEv = comdat any

$_ZNSt3setINSt7__cxx1112basic_stringIcSt11char_traitsIcESaIcEEESt4lessIS5_ESaIS5_EE5clearEv = comdat any

$_ZNSt17_Rb_tree_iteratorISt4pairIKj13AddrDataTupleEEC2Ev = comdat any

$_ZNSt3mapINSt7__cxx1112basic_stringIcSt11char_traitsIcESaIcEEEP8_IO_FILESt4lessIS5_ESaISt4pairIKS5_S7_EEEixERSB_ = comdat any

$_ZNSt3mapIj13AddrDataTupleSt4lessIjESaISt4pairIKjS0_EEE5beginEv = comdat any

$_ZStneRKSt17_Rb_tree_iteratorISt4pairIKj13AddrDataTupleEES6_ = comdat any

$_ZNSt3mapIj13AddrDataTupleSt4lessIjESaISt4pairIKjS0_EEE3endEv = comdat any

$_ZNKSt17_Rb_tree_iteratorISt4pairIKj13AddrDataTupleEEptEv = comdat any

$_ZNSt17_Rb_tree_iteratorISt4pairIKj13AddrDataTupleEEppEv = comdat any

$_ZNSt3mapINSt7__cxx1112basic_stringIcSt11char_traitsIcESaIcEEE20AddrDataTupleMorpherSt4lessIS5_ESaISt4pairIKS5_S6_EEE5beginEv = comdat any

$_ZStneRKSt17_Rb_tree_iteratorISt4pairIKNSt7__cxx1112basic_stringIcSt11char_traitsIcESaIcEEE20AddrDataTupleMorpherEESC_ = comdat any

$_ZNSt3mapINSt7__cxx1112basic_stringIcSt11char_traitsIcESaIcEEE20AddrDataTupleMorpherSt4lessIS5_ESaISt4pairIKS5_S6_EEE3endEv = comdat any

$_ZNKSt17_Rb_tree_iteratorISt4pairIKNSt7__cxx1112basic_stringIcSt11char_traitsIcESaIcEEE20AddrDataTupleMorpherEEptEv = comdat any

$_ZN20AddrDataTupleMorpherC2ERKS_ = comdat any

$_ZNKSt6vectorIhSaIhEE4sizeEv = comdat any

$_ZN20AddrDataTupleMorpherD2Ev = comdat any

$_ZNSt17_Rb_tree_iteratorISt4pairIKNSt7__cxx1112basic_stringIcSt11char_traitsIcESaIcEEE20AddrDataTupleMorpherEEppEi = comdat any

$_ZNSt3mapINSt7__cxx1112basic_stringIcSt11char_traitsIcESaIcEEE20AddrDataTupleMorpherSt4lessIS5_ESaISt4pairIKS5_S6_EEE5clearEv = comdat any

$_ZSteqRKSt17_Rb_tree_iteratorISt4pairIKNSt7__cxx1112basic_stringIcSt11char_traitsIcESaIcEEEiEESB_ = comdat any

$_ZStplIcSt11char_traitsIcESaIcEENSt7__cxx1112basic_stringIT_T0_T1_EERKS8_PKS5_ = comdat any

$_ZNKSt17_Rb_tree_iteratorISt4pairIKNSt7__cxx1112basic_stringIcSt11char_traitsIcESaIcEEEiEEdeEv = comdat any

$_ZNSt4pairINSt7__cxx1112basic_stringIcSt11char_traitsIcESaIcEEEiEC2IKS5_iLb1EEERKS_IT_T0_E = comdat any

$_ZNSt4pairINSt7__cxx1112basic_stringIcSt11char_traitsIcESaIcEEEiED2Ev = comdat any

$_ZNSt17_Rb_tree_iteratorISt4pairIKNSt7__cxx1112basic_stringIcSt11char_traitsIcESaIcEEEiEEppEv = comdat any

$_ZNSt3mapINSt7__cxx1112basic_stringIcSt11char_traitsIcESaIcEEESt3setIS5_St4lessIS5_ESaIS5_EES8_SaISt4pairIKS5_SA_EEE5beginEv = comdat any

$_ZNSt3mapINSt7__cxx1112basic_stringIcSt11char_traitsIcESaIcEEESt3setIS5_St4lessIS5_ESaIS5_EES8_SaISt4pairIKS5_SA_EEE3endEv = comdat any

$_ZStneRKSt17_Rb_tree_iteratorISt4pairIKNSt7__cxx1112basic_stringIcSt11char_traitsIcESaIcEEESt3setIS6_St4lessIS6_ESaIS6_EEEESG_ = comdat any

$_ZNKSt17_Rb_tree_iteratorISt4pairIKNSt7__cxx1112basic_stringIcSt11char_traitsIcESaIcEEESt3setIS6_St4lessIS6_ESaIS6_EEEEdeEv = comdat any

$_ZNSt4pairINSt7__cxx1112basic_stringIcSt11char_traitsIcESaIcEEESt3setIS5_St4lessIS5_ESaIS5_EEEC2IKS5_SA_Lb1EEERKS_IT_T0_E = comdat any

$_ZNKSt3setINSt7__cxx1112basic_stringIcSt11char_traitsIcESaIcEEESt4lessIS5_ESaIS5_EE5beginEv = comdat any

$_ZNKSt23_Rb_tree_const_iteratorINSt7__cxx1112basic_stringIcSt11char_traitsIcESaIcEEEEdeEv = comdat any

$_ZNSt23_Rb_tree_const_iteratorINSt7__cxx1112basic_stringIcSt11char_traitsIcESaIcEEEEppEv = comdat any

$_ZSt3maxIiERKT_S2_S2_ = comdat any

$_ZNSt3mapINSt7__cxx1112basic_stringIcSt11char_traitsIcESaIcEEES5_St4lessIS5_ESaISt4pairIKS5_S5_EEEixERS9_ = comdat any

$_ZNSt4pairINSt7__cxx1112basic_stringIcSt11char_traitsIcESaIcEEESt3setIS5_St4lessIS5_ESaIS5_EEED2Ev = comdat any

$_ZNSt17_Rb_tree_iteratorISt4pairIKNSt7__cxx1112basic_stringIcSt11char_traitsIcESaIcEEESt3setIS6_St4lessIS6_ESaIS6_EEEEppEv = comdat any

$_ZNSt3mapINSt7__cxx1112basic_stringIcSt11char_traitsIcESaIcEEES_IS5_iSt4lessIS5_ESaISt4pairIKS5_iEEES7_SaIS8_IS9_SC_EEE5beginEv = comdat any

$_ZNSt3mapINSt7__cxx1112basic_stringIcSt11char_traitsIcESaIcEEES_IS5_iSt4lessIS5_ESaISt4pairIKS5_iEEES7_SaIS8_IS9_SC_EEE3endEv = comdat any

$_ZStneRKSt17_Rb_tree_iteratorISt4pairIKNSt7__cxx1112basic_stringIcSt11char_traitsIcESaIcEEESt3mapIS6_iSt4lessIS6_ESaIS0_IS7_iEEEEESH_ = comdat any

$_ZNKSt17_Rb_tree_iteratorISt4pairIKNSt7__cxx1112basic_stringIcSt11char_traitsIcESaIcEEESt3mapIS6_iSt4lessIS6_ESaIS0_IS7_iEEEEEdeEv = comdat any

$_ZNSt4pairINSt7__cxx1112basic_stringIcSt11char_traitsIcESaIcEEESt3mapIS5_iSt4lessIS5_ESaIS_IKS5_iEEEEC2IS9_SC_Lb1EEERKS_IT_T0_E = comdat any

$_ZNSt4pairINSt7__cxx1112basic_stringIcSt11char_traitsIcESaIcEEESt3mapIS5_iSt4lessIS5_ESaIS_IKS5_iEEEED2Ev = comdat any

$_ZNSt17_Rb_tree_iteratorISt4pairIKNSt7__cxx1112basic_stringIcSt11char_traitsIcESaIcEEESt3mapIS6_iSt4lessIS6_ESaIS0_IS7_iEEEEEppEv = comdat any

$_ZNSt6vectorI8pathInfoSaIS0_EE5beginEv = comdat any

$_ZNSt6vectorI8pathInfoSaIS0_EE3endEv = comdat any

$_ZN9__gnu_cxxneIP8pathInfoSt6vectorIS1_SaIS1_EEEEbRKNS_17__normal_iteratorIT_T0_EESB_ = comdat any

$_ZNK9__gnu_cxx17__normal_iteratorIP8pathInfoSt6vectorIS1_SaIS1_EEEdeEv = comdat any

$_ZN8pathInfoC2ERKS_ = comdat any

$_ZN8pathInfo12getBBStrArryB5cxx11Ev = comdat any

$_ZNSt6vectorINSt7__cxx1112basic_stringIcSt11char_traitsIcESaIcEEESaIS5_EE5beginEv = comdat any

$_ZNSt6vectorINSt7__cxx1112basic_stringIcSt11char_traitsIcESaIcEEESaIS5_EE3endEv = comdat any

$_ZN9__gnu_cxxneIPNSt7__cxx1112basic_stringIcSt11char_traitsIcESaIcEEESt6vectorIS6_SaIS6_EEEEbRKNS_17__normal_iteratorIT_T0_EESG_ = comdat any

$_ZNK9__gnu_cxx17__normal_iteratorIPNSt7__cxx1112basic_stringIcSt11char_traitsIcESaIcEEESt6vectorIS6_SaIS6_EEEdeEv = comdat any

$_ZN9__gnu_cxx17__normal_iteratorIPNSt7__cxx1112basic_stringIcSt11char_traitsIcESaIcEEESt6vectorIS6_SaIS6_EEEppEv = comdat any

$_ZNSt6vectorINSt7__cxx1112basic_stringIcSt11char_traitsIcESaIcEEESaIS5_EED2Ev = comdat any

$_ZN8pathInfo12getPathCountEv = comdat any

$_ZN9__gnu_cxx17__normal_iteratorIP8pathInfoSt6vectorIS1_SaIS1_EEEppEv = comdat any

$_ZNSt3mapINSt7__cxx1112basic_stringIcSt11char_traitsIcESaIcEEESt3setIS5_St4lessIS5_ESaIS5_EES8_SaISt4pairIKS5_SA_EEEixERSC_ = comdat any

$_ZStneRKSt17_Rb_tree_iteratorISt4pairIKNSt7__cxx1112basic_stringIcSt11char_traitsIcESaIcEEES6_EESB_ = comdat any

$_ZNSt3mapINSt7__cxx1112basic_stringIcSt11char_traitsIcESaIcEEES5_St4lessIS5_ESaISt4pairIKS5_S5_EEE4findERS9_ = comdat any

$_ZNSt3mapINSt7__cxx1112basic_stringIcSt11char_traitsIcESaIcEEES5_St4lessIS5_ESaISt4pairIKS5_S5_EEE3endEv = comdat any

$_ZSteqRKSt17_Rb_tree_iteratorISt4pairIKNSt7__cxx1112basic_stringIcSt11char_traitsIcESaIcEEESt3mapIS6_iSt4lessIS6_ESaIS0_IS7_iEEEEESH_ = comdat any

$_ZNSt3mapINSt7__cxx1112basic_stringIcSt11char_traitsIcESaIcEEES_IS5_iSt4lessIS5_ESaISt4pairIKS5_iEEES7_SaIS8_IS9_SC_EEE4findERS9_ = comdat any

$_ZNSt3mapINSt7__cxx1112basic_stringIcSt11char_traitsIcESaIcEEES_IS5_iSt4lessIS5_ESaISt4pairIKS5_iEEES7_SaIS8_IS9_SC_EEEixERS9_ = comdat any

$_ZN8pathInfo8insertBBENSt7__cxx1112basic_stringIcSt11char_traitsIcESaIcEEE = comdat any

$_ZSteqIcEN9__gnu_cxx11__enable_ifIXsr9__is_charIT_EE7__valueEbE6__typeERKNSt7__cxx1112basic_stringIS2_St11char_traitsIS2_ESaIS2_EEESC_ = comdat any

$_ZN8pathInfoC2EOS_ = comdat any

$_ZNKSt6vectorINSt7__cxx1112basic_stringIcSt11char_traitsIcESaIcEEESaIS5_EE5emptyEv = comdat any

$_ZN8pathInfoaSEOS_ = comdat any

$_ZN8pathInfo18incrementPathCountEv = comdat any

$_ZSteqRKSt17_Rb_tree_iteratorISt4pairIKSt6vectorINSt7__cxx1112basic_stringIcSt11char_traitsIcESaIcEEESaIS7_EEiEESE_ = comdat any

$_ZNSt3mapISt6vectorINSt7__cxx1112basic_stringIcSt11char_traitsIcESaIcEEESaIS6_EEiSt4lessIS8_ESaISt4pairIKS8_iEEE4findERSC_ = comdat any

$_ZNSt3mapISt6vectorINSt7__cxx1112basic_stringIcSt11char_traitsIcESaIcEEESaIS6_EEiSt4lessIS8_ESaISt4pairIKS8_iEEE3endEv = comdat any

$_ZNKSt3mapISt6vectorINSt7__cxx1112basic_stringIcSt11char_traitsIcESaIcEEESaIS6_EEiSt4lessIS8_ESaISt4pairIKS8_iEEE4sizeEv = comdat any

$_ZNSt3mapISt6vectorINSt7__cxx1112basic_stringIcSt11char_traitsIcESaIcEEESaIS6_EEiSt4lessIS8_ESaISt4pairIKS8_iEEEixEOS8_ = comdat any

$_ZNKSt6vectorI8pathInfoSaIS0_EE5emptyEv = comdat any

$_ZNSt6vectorI8pathInfoSaIS0_EEixEj = comdat any

$_ZNKSt6vectorI8pathInfoSaIS0_EE4sizeEv = comdat any

$_ZNSt6vectorI8pathInfoSaIS0_EE9push_backERKS0_ = comdat any

$_ZN8pathInfo5clearEv = comdat any

$_ZNSt3mapINSt7__cxx1112basic_stringIcSt11char_traitsIcESaIcEEESt6vectorIS6_I8pathInfoSaIS7_EESaIS9_EESt4lessIS5_ESaISt4pairIKS5_SB_EEEixERSF_ = comdat any

$_ZNSt6vectorIS_I8pathInfoSaIS0_EESaIS2_EE9push_backERKS2_ = comdat any

$_ZNSt3mapINSt7__cxx1112basic_stringIcSt11char_traitsIcESaIcEEE20AddrDataTupleMorpherSt4lessIS5_ESaISt4pairIKS5_S6_EEEixERSA_ = comdat any

$_ZNSt3mapINSt7__cxx1112basic_stringIcSt11char_traitsIcESaIcEEE20AddrDataTupleMorpherSt4lessIS5_ESaISt4pairIKS5_S6_EEEixEOS5_ = comdat any

$_ZNKSt6vectorIhSaIhEE5emptyEv = comdat any

$_ZNSt6vectorIhSaIhEE9push_backEOh = comdat any

$_ZNSt7__cxx115stoulERKNS_12basic_stringIcSt11char_traitsIcESaIcEEEPji = comdat any

$_ZNSt8_Rb_treeINSt7__cxx1112basic_stringIcSt11char_traitsIcESaIcEEESt4pairIKS5_iESt10_Select1stIS8_ESt4lessIS5_ESaIS8_EEC2Ev = comdat any

$_ZNSt8_Rb_treeINSt7__cxx1112basic_stringIcSt11char_traitsIcESaIcEEESt4pairIKS5_iESt10_Select1stIS8_ESt4lessIS5_ESaIS8_EE13_Rb_tree_implISC_Lb1EEC2Ev = comdat any

$_ZNSaISt13_Rb_tree_nodeISt4pairIKNSt7__cxx1112basic_stringIcSt11char_traitsIcESaIcEEEiEEEC2Ev = comdat any

$_ZNSt20_Rb_tree_key_compareISt4lessINSt7__cxx1112basic_stringIcSt11char_traitsIcESaIcEEEEEC2Ev = comdat any

$_ZNSt15_Rb_tree_headerC2Ev = comdat any

$_ZN9__gnu_cxx13new_allocatorISt13_Rb_tree_nodeISt4pairIKNSt7__cxx1112basic_stringIcSt11char_traitsIcESaIcEEEiEEEC2Ev = comdat any

$_ZNSt15_Rb_tree_header8_M_resetEv = comdat any

$__clang_call_terminate = comdat any

$_ZNSt8_Rb_treeINSt7__cxx1112basic_stringIcSt11char_traitsIcESaIcEEESt4pairIKS5_iESt10_Select1stIS8_ESt4lessIS5_ESaIS8_EED2Ev = comdat any

$_ZNSt8_Rb_treeINSt7__cxx1112basic_stringIcSt11char_traitsIcESaIcEEESt4pairIKS5_iESt10_Select1stIS8_ESt4lessIS5_ESaIS8_EE8_M_eraseEPSt13_Rb_tree_nodeIS8_E = comdat any

$_ZNSt8_Rb_treeINSt7__cxx1112basic_stringIcSt11char_traitsIcESaIcEEESt4pairIKS5_iESt10_Select1stIS8_ESt4lessIS5_ESaIS8_EE8_M_beginEv = comdat any

$_ZNSt8_Rb_treeINSt7__cxx1112basic_stringIcSt11char_traitsIcESaIcEEESt4pairIKS5_iESt10_Select1stIS8_ESt4lessIS5_ESaIS8_EE13_Rb_tree_implISC_Lb1EED2Ev = comdat any

$_ZNSt8_Rb_treeINSt7__cxx1112basic_stringIcSt11char_traitsIcESaIcEEESt4pairIKS5_iESt10_Select1stIS8_ESt4lessIS5_ESaIS8_EE8_S_rightEPSt18_Rb_tree_node_base = comdat any

$_ZNSt8_Rb_treeINSt7__cxx1112basic_stringIcSt11char_traitsIcESaIcEEESt4pairIKS5_iESt10_Select1stIS8_ESt4lessIS5_ESaIS8_EE7_S_leftEPSt18_Rb_tree_node_base = comdat any

$_ZNSt8_Rb_treeINSt7__cxx1112basic_stringIcSt11char_traitsIcESaIcEEESt4pairIKS5_iESt10_Select1stIS8_ESt4lessIS5_ESaIS8_EE12_M_drop_nodeEPSt13_Rb_tree_nodeIS8_E = comdat any

$_ZNSt8_Rb_treeINSt7__cxx1112basic_stringIcSt11char_traitsIcESaIcEEESt4pairIKS5_iESt10_Select1stIS8_ESt4lessIS5_ESaIS8_EE15_M_destroy_nodeEPSt13_Rb_tree_nodeIS8_E = comdat any

$_ZNSt8_Rb_treeINSt7__cxx1112basic_stringIcSt11char_traitsIcESaIcEEESt4pairIKS5_iESt10_Select1stIS8_ESt4lessIS5_ESaIS8_EE11_M_put_nodeEPSt13_Rb_tree_nodeIS8_E = comdat any

$_ZNSt16allocator_traitsISaISt13_Rb_tree_nodeISt4pairIKNSt7__cxx1112basic_stringIcSt11char_traitsIcESaIcEEEiEEEE7destroyIS9_EEvRSB_PT_ = comdat any

$_ZNSt8_Rb_treeINSt7__cxx1112basic_stringIcSt11char_traitsIcESaIcEEESt4pairIKS5_iESt10_Select1stIS8_ESt4lessIS5_ESaIS8_EE21_M_get_Node_allocatorEv = comdat any

$_ZNSt13_Rb_tree_nodeISt4pairIKNSt7__cxx1112basic_stringIcSt11char_traitsIcESaIcEEEiEE9_M_valptrEv = comdat any

$_ZN9__gnu_cxx13new_allocatorISt13_Rb_tree_nodeISt4pairIKNSt7__cxx1112basic_stringIcSt11char_traitsIcESaIcEEEiEEE7destroyISA_EEvPT_ = comdat any

$_ZNSt4pairIKNSt7__cxx1112basic_stringIcSt11char_traitsIcESaIcEEEiED2Ev = comdat any

$_ZN9__gnu_cxx16__aligned_membufISt4pairIKNSt7__cxx1112basic_stringIcSt11char_traitsIcESaIcEEEiEE6_M_ptrEv = comdat any

$_ZN9__gnu_cxx16__aligned_membufISt4pairIKNSt7__cxx1112basic_stringIcSt11char_traitsIcESaIcEEEiEE7_M_addrEv = comdat any

$_ZNSt16allocator_traitsISaISt13_Rb_tree_nodeISt4pairIKNSt7__cxx1112basic_stringIcSt11char_traitsIcESaIcEEEiEEEE10deallocateERSB_PSA_j = comdat any

$_ZN9__gnu_cxx13new_allocatorISt13_Rb_tree_nodeISt4pairIKNSt7__cxx1112basic_stringIcSt11char_traitsIcESaIcEEEiEEE10deallocateEPSB_j = comdat any

$_ZN9__gnu_cxx13new_allocatorISt13_Rb_tree_nodeISt4pairIKNSt7__cxx1112basic_stringIcSt11char_traitsIcESaIcEEEiEEED2Ev = comdat any

$_ZNSt8_Rb_treeINSt7__cxx1112basic_stringIcSt11char_traitsIcESaIcEEESt4pairIKS5_PhESt10_Select1stIS9_ESt4lessIS5_ESaIS9_EEC2Ev = comdat any

$_ZNSt8_Rb_treeINSt7__cxx1112basic_stringIcSt11char_traitsIcESaIcEEESt4pairIKS5_PhESt10_Select1stIS9_ESt4lessIS5_ESaIS9_EE13_Rb_tree_implISD_Lb1EEC2Ev = comdat any

$_ZNSaISt13_Rb_tree_nodeISt4pairIKNSt7__cxx1112basic_stringIcSt11char_traitsIcESaIcEEEPhEEEC2Ev = comdat any

$_ZN9__gnu_cxx13new_allocatorISt13_Rb_tree_nodeISt4pairIKNSt7__cxx1112basic_stringIcSt11char_traitsIcESaIcEEEPhEEEC2Ev = comdat any

$_ZNSt8_Rb_treeINSt7__cxx1112basic_stringIcSt11char_traitsIcESaIcEEESt4pairIKS5_PhESt10_Select1stIS9_ESt4lessIS5_ESaIS9_EED2Ev = comdat any

$_ZNSt8_Rb_treeINSt7__cxx1112basic_stringIcSt11char_traitsIcESaIcEEESt4pairIKS5_PhESt10_Select1stIS9_ESt4lessIS5_ESaIS9_EE8_M_eraseEPSt13_Rb_tree_nodeIS9_E = comdat any

$_ZNSt8_Rb_treeINSt7__cxx1112basic_stringIcSt11char_traitsIcESaIcEEESt4pairIKS5_PhESt10_Select1stIS9_ESt4lessIS5_ESaIS9_EE8_M_beginEv = comdat any

$_ZNSt8_Rb_treeINSt7__cxx1112basic_stringIcSt11char_traitsIcESaIcEEESt4pairIKS5_PhESt10_Select1stIS9_ESt4lessIS5_ESaIS9_EE13_Rb_tree_implISD_Lb1EED2Ev = comdat any

$_ZNSt8_Rb_treeINSt7__cxx1112basic_stringIcSt11char_traitsIcESaIcEEESt4pairIKS5_PhESt10_Select1stIS9_ESt4lessIS5_ESaIS9_EE8_S_rightEPSt18_Rb_tree_node_base = comdat any

$_ZNSt8_Rb_treeINSt7__cxx1112basic_stringIcSt11char_traitsIcESaIcEEESt4pairIKS5_PhESt10_Select1stIS9_ESt4lessIS5_ESaIS9_EE7_S_leftEPSt18_Rb_tree_node_base = comdat any

$_ZNSt8_Rb_treeINSt7__cxx1112basic_stringIcSt11char_traitsIcESaIcEEESt4pairIKS5_PhESt10_Select1stIS9_ESt4lessIS5_ESaIS9_EE12_M_drop_nodeEPSt13_Rb_tree_nodeIS9_E = comdat any

$_ZNSt8_Rb_treeINSt7__cxx1112basic_stringIcSt11char_traitsIcESaIcEEESt4pairIKS5_PhESt10_Select1stIS9_ESt4lessIS5_ESaIS9_EE15_M_destroy_nodeEPSt13_Rb_tree_nodeIS9_E = comdat any

$_ZNSt8_Rb_treeINSt7__cxx1112basic_stringIcSt11char_traitsIcESaIcEEESt4pairIKS5_PhESt10_Select1stIS9_ESt4lessIS5_ESaIS9_EE11_M_put_nodeEPSt13_Rb_tree_nodeIS9_E = comdat any

$_ZNSt16allocator_traitsISaISt13_Rb_tree_nodeISt4pairIKNSt7__cxx1112basic_stringIcSt11char_traitsIcESaIcEEEPhEEEE7destroyISA_EEvRSC_PT_ = comdat any

$_ZNSt8_Rb_treeINSt7__cxx1112basic_stringIcSt11char_traitsIcESaIcEEESt4pairIKS5_PhESt10_Select1stIS9_ESt4lessIS5_ESaIS9_EE21_M_get_Node_allocatorEv = comdat any

$_ZNSt13_Rb_tree_nodeISt4pairIKNSt7__cxx1112basic_stringIcSt11char_traitsIcESaIcEEEPhEE9_M_valptrEv = comdat any

$_ZN9__gnu_cxx13new_allocatorISt13_Rb_tree_nodeISt4pairIKNSt7__cxx1112basic_stringIcSt11char_traitsIcESaIcEEEPhEEE7destroyISB_EEvPT_ = comdat any

$_ZNSt4pairIKNSt7__cxx1112basic_stringIcSt11char_traitsIcESaIcEEEPhED2Ev = comdat any

$_ZN9__gnu_cxx16__aligned_membufISt4pairIKNSt7__cxx1112basic_stringIcSt11char_traitsIcESaIcEEEPhEE6_M_ptrEv = comdat any

$_ZN9__gnu_cxx16__aligned_membufISt4pairIKNSt7__cxx1112basic_stringIcSt11char_traitsIcESaIcEEEPhEE7_M_addrEv = comdat any

$_ZNSt16allocator_traitsISaISt13_Rb_tree_nodeISt4pairIKNSt7__cxx1112basic_stringIcSt11char_traitsIcESaIcEEEPhEEEE10deallocateERSC_PSB_j = comdat any

$_ZN9__gnu_cxx13new_allocatorISt13_Rb_tree_nodeISt4pairIKNSt7__cxx1112basic_stringIcSt11char_traitsIcESaIcEEEPhEEE10deallocateEPSC_j = comdat any

$_ZNSaISt13_Rb_tree_nodeISt4pairIKNSt7__cxx1112basic_stringIcSt11char_traitsIcESaIcEEEPhEEED2Ev = comdat any

$_ZN9__gnu_cxx13new_allocatorISt13_Rb_tree_nodeISt4pairIKNSt7__cxx1112basic_stringIcSt11char_traitsIcESaIcEEEPhEEED2Ev = comdat any

$_ZNSt8_Rb_treeINSt7__cxx1112basic_stringIcSt11char_traitsIcESaIcEEESt4pairIKS5_St6vectorIhSaIhEEESt10_Select1stISB_ESt4lessIS5_ESaISB_EEC2Ev = comdat any

$_ZNSt8_Rb_treeINSt7__cxx1112basic_stringIcSt11char_traitsIcESaIcEEESt4pairIKS5_St6vectorIhSaIhEEESt10_Select1stISB_ESt4lessIS5_ESaISB_EE13_Rb_tree_implISF_Lb1EEC2Ev = comdat any

$_ZNSaISt13_Rb_tree_nodeISt4pairIKNSt7__cxx1112basic_stringIcSt11char_traitsIcESaIcEEESt6vectorIhSaIhEEEEEC2Ev = comdat any

$_ZN9__gnu_cxx13new_allocatorISt13_Rb_tree_nodeISt4pairIKNSt7__cxx1112basic_stringIcSt11char_traitsIcESaIcEEESt6vectorIhSaIhEEEEEC2Ev = comdat any

$_ZNSt8_Rb_treeINSt7__cxx1112basic_stringIcSt11char_traitsIcESaIcEEESt4pairIKS5_St6vectorIhSaIhEEESt10_Select1stISB_ESt4lessIS5_ESaISB_EED2Ev = comdat any

$_ZNSt8_Rb_treeINSt7__cxx1112basic_stringIcSt11char_traitsIcESaIcEEESt4pairIKS5_St6vectorIhSaIhEEESt10_Select1stISB_ESt4lessIS5_ESaISB_EE8_M_eraseEPSt13_Rb_tree_nodeISB_E = comdat any

$_ZNSt8_Rb_treeINSt7__cxx1112basic_stringIcSt11char_traitsIcESaIcEEESt4pairIKS5_St6vectorIhSaIhEEESt10_Select1stISB_ESt4lessIS5_ESaISB_EE8_M_beginEv = comdat any

$_ZNSt8_Rb_treeINSt7__cxx1112basic_stringIcSt11char_traitsIcESaIcEEESt4pairIKS5_St6vectorIhSaIhEEESt10_Select1stISB_ESt4lessIS5_ESaISB_EE13_Rb_tree_implISF_Lb1EED2Ev = comdat any

$_ZNSt8_Rb_treeINSt7__cxx1112basic_stringIcSt11char_traitsIcESaIcEEESt4pairIKS5_St6vectorIhSaIhEEESt10_Select1stISB_ESt4lessIS5_ESaISB_EE8_S_rightEPSt18_Rb_tree_node_base = comdat any

$_ZNSt8_Rb_treeINSt7__cxx1112basic_stringIcSt11char_traitsIcESaIcEEESt4pairIKS5_St6vectorIhSaIhEEESt10_Select1stISB_ESt4lessIS5_ESaISB_EE7_S_leftEPSt18_Rb_tree_node_base = comdat any

$_ZNSt8_Rb_treeINSt7__cxx1112basic_stringIcSt11char_traitsIcESaIcEEESt4pairIKS5_St6vectorIhSaIhEEESt10_Select1stISB_ESt4lessIS5_ESaISB_EE12_M_drop_nodeEPSt13_Rb_tree_nodeISB_E = comdat any

$_ZNSt8_Rb_treeINSt7__cxx1112basic_stringIcSt11char_traitsIcESaIcEEESt4pairIKS5_St6vectorIhSaIhEEESt10_Select1stISB_ESt4lessIS5_ESaISB_EE15_M_destroy_nodeEPSt13_Rb_tree_nodeISB_E = comdat any

$_ZNSt8_Rb_treeINSt7__cxx1112basic_stringIcSt11char_traitsIcESaIcEEESt4pairIKS5_St6vectorIhSaIhEEESt10_Select1stISB_ESt4lessIS5_ESaISB_EE11_M_put_nodeEPSt13_Rb_tree_nodeISB_E = comdat any

$_ZNSt16allocator_traitsISaISt13_Rb_tree_nodeISt4pairIKNSt7__cxx1112basic_stringIcSt11char_traitsIcESaIcEEESt6vectorIhSaIhEEEEEE7destroyISC_EEvRSE_PT_ = comdat any

$_ZNSt8_Rb_treeINSt7__cxx1112basic_stringIcSt11char_traitsIcESaIcEEESt4pairIKS5_St6vectorIhSaIhEEESt10_Select1stISB_ESt4lessIS5_ESaISB_EE21_M_get_Node_allocatorEv = comdat any

$_ZNSt13_Rb_tree_nodeISt4pairIKNSt7__cxx1112basic_stringIcSt11char_traitsIcESaIcEEESt6vectorIhSaIhEEEE9_M_valptrEv = comdat any

$_ZN9__gnu_cxx13new_allocatorISt13_Rb_tree_nodeISt4pairIKNSt7__cxx1112basic_stringIcSt11char_traitsIcESaIcEEESt6vectorIhSaIhEEEEE7destroyISD_EEvPT_ = comdat any

$_ZNSt4pairIKNSt7__cxx1112basic_stringIcSt11char_traitsIcESaIcEEESt6vectorIhSaIhEEED2Ev = comdat any

$_ZNSt6vectorIhSaIhEED2Ev = comdat any

$_ZSt8_DestroyIPhhEvT_S1_RSaIT0_E = comdat any

$_ZNSt12_Vector_baseIhSaIhEE19_M_get_Tp_allocatorEv = comdat any

$_ZNSt12_Vector_baseIhSaIhEED2Ev = comdat any

$_ZSt8_DestroyIPhEvT_S1_ = comdat any

$_ZNSt12_Destroy_auxILb1EE9__destroyIPhEEvT_S3_ = comdat any

$_ZNSt12_Vector_baseIhSaIhEE13_M_deallocateEPhj = comdat any

$_ZNSt12_Vector_baseIhSaIhEE12_Vector_implD2Ev = comdat any

$_ZNSt16allocator_traitsISaIhEE10deallocateERS0_Phj = comdat any

$_ZN9__gnu_cxx13new_allocatorIhE10deallocateEPhj = comdat any

$_ZN9__gnu_cxx13new_allocatorIhED2Ev = comdat any

$_ZN9__gnu_cxx16__aligned_membufISt4pairIKNSt7__cxx1112basic_stringIcSt11char_traitsIcESaIcEEESt6vectorIhSaIhEEEE6_M_ptrEv = comdat any

$_ZN9__gnu_cxx16__aligned_membufISt4pairIKNSt7__cxx1112basic_stringIcSt11char_traitsIcESaIcEEESt6vectorIhSaIhEEEE7_M_addrEv = comdat any

$_ZNSt16allocator_traitsISaISt13_Rb_tree_nodeISt4pairIKNSt7__cxx1112basic_stringIcSt11char_traitsIcESaIcEEESt6vectorIhSaIhEEEEEE10deallocateERSE_PSD_j = comdat any

$_ZN9__gnu_cxx13new_allocatorISt13_Rb_tree_nodeISt4pairIKNSt7__cxx1112basic_stringIcSt11char_traitsIcESaIcEEESt6vectorIhSaIhEEEEE10deallocateEPSE_j = comdat any

$_ZNSaISt13_Rb_tree_nodeISt4pairIKNSt7__cxx1112basic_stringIcSt11char_traitsIcESaIcEEESt6vectorIhSaIhEEEEED2Ev = comdat any

$_ZN9__gnu_cxx13new_allocatorISt13_Rb_tree_nodeISt4pairIKNSt7__cxx1112basic_stringIcSt11char_traitsIcESaIcEEESt6vectorIhSaIhEEEEED2Ev = comdat any

$_ZNSt8_Rb_treeINSt7__cxx1112basic_stringIcSt11char_traitsIcESaIcEEES5_St9_IdentityIS5_ESt4lessIS5_ESaIS5_EEC2Ev = comdat any

$_ZNSt8_Rb_treeINSt7__cxx1112basic_stringIcSt11char_traitsIcESaIcEEES5_St9_IdentityIS5_ESt4lessIS5_ESaIS5_EE13_Rb_tree_implIS9_Lb1EEC2Ev = comdat any

$_ZNSaISt13_Rb_tree_nodeINSt7__cxx1112basic_stringIcSt11char_traitsIcESaIcEEEEEC2Ev = comdat any

$_ZN9__gnu_cxx13new_allocatorISt13_Rb_tree_nodeINSt7__cxx1112basic_stringIcSt11char_traitsIcESaIcEEEEEC2Ev = comdat any

$_ZNSt8_Rb_treeINSt7__cxx1112basic_stringIcSt11char_traitsIcESaIcEEES5_St9_IdentityIS5_ESt4lessIS5_ESaIS5_EED2Ev = comdat any

$_ZNSt8_Rb_treeINSt7__cxx1112basic_stringIcSt11char_traitsIcESaIcEEES5_St9_IdentityIS5_ESt4lessIS5_ESaIS5_EE8_M_eraseEPSt13_Rb_tree_nodeIS5_E = comdat any

$_ZNSt8_Rb_treeINSt7__cxx1112basic_stringIcSt11char_traitsIcESaIcEEES5_St9_IdentityIS5_ESt4lessIS5_ESaIS5_EE8_M_beginEv = comdat any

$_ZNSt8_Rb_treeINSt7__cxx1112basic_stringIcSt11char_traitsIcESaIcEEES5_St9_IdentityIS5_ESt4lessIS5_ESaIS5_EE13_Rb_tree_implIS9_Lb1EED2Ev = comdat any

$_ZNSt8_Rb_treeINSt7__cxx1112basic_stringIcSt11char_traitsIcESaIcEEES5_St9_IdentityIS5_ESt4lessIS5_ESaIS5_EE8_S_rightEPSt18_Rb_tree_node_base = comdat any

$_ZNSt8_Rb_treeINSt7__cxx1112basic_stringIcSt11char_traitsIcESaIcEEES5_St9_IdentityIS5_ESt4lessIS5_ESaIS5_EE7_S_leftEPSt18_Rb_tree_node_base = comdat any

$_ZNSt8_Rb_treeINSt7__cxx1112basic_stringIcSt11char_traitsIcESaIcEEES5_St9_IdentityIS5_ESt4lessIS5_ESaIS5_EE12_M_drop_nodeEPSt13_Rb_tree_nodeIS5_E = comdat any

$_ZNSt8_Rb_treeINSt7__cxx1112basic_stringIcSt11char_traitsIcESaIcEEES5_St9_IdentityIS5_ESt4lessIS5_ESaIS5_EE15_M_destroy_nodeEPSt13_Rb_tree_nodeIS5_E = comdat any

$_ZNSt8_Rb_treeINSt7__cxx1112basic_stringIcSt11char_traitsIcESaIcEEES5_St9_IdentityIS5_ESt4lessIS5_ESaIS5_EE11_M_put_nodeEPSt13_Rb_tree_nodeIS5_E = comdat any

$_ZNSt16allocator_traitsISaISt13_Rb_tree_nodeINSt7__cxx1112basic_stringIcSt11char_traitsIcESaIcEEEEEE7destroyIS6_EEvRS8_PT_ = comdat any

$_ZNSt8_Rb_treeINSt7__cxx1112basic_stringIcSt11char_traitsIcESaIcEEES5_St9_IdentityIS5_ESt4lessIS5_ESaIS5_EE21_M_get_Node_allocatorEv = comdat any

$_ZNSt13_Rb_tree_nodeINSt7__cxx1112basic_stringIcSt11char_traitsIcESaIcEEEE9_M_valptrEv = comdat any

$_ZN9__gnu_cxx13new_allocatorISt13_Rb_tree_nodeINSt7__cxx1112basic_stringIcSt11char_traitsIcESaIcEEEEE7destroyIS7_EEvPT_ = comdat any

$_ZN9__gnu_cxx16__aligned_membufINSt7__cxx1112basic_stringIcSt11char_traitsIcESaIcEEEE6_M_ptrEv = comdat any

$_ZN9__gnu_cxx16__aligned_membufINSt7__cxx1112basic_stringIcSt11char_traitsIcESaIcEEEE7_M_addrEv = comdat any

$_ZNSt16allocator_traitsISaISt13_Rb_tree_nodeINSt7__cxx1112basic_stringIcSt11char_traitsIcESaIcEEEEEE10deallocateERS8_PS7_j = comdat any

$_ZN9__gnu_cxx13new_allocatorISt13_Rb_tree_nodeINSt7__cxx1112basic_stringIcSt11char_traitsIcESaIcEEEEE10deallocateEPS8_j = comdat any

$_ZN9__gnu_cxx13new_allocatorISt13_Rb_tree_nodeINSt7__cxx1112basic_stringIcSt11char_traitsIcESaIcEEEEED2Ev = comdat any

$_ZNSt8_Rb_treeINSt7__cxx1112basic_stringIcSt11char_traitsIcESaIcEEESt4pairIKS5_P8_IO_FILEESt10_Select1stISA_ESt4lessIS5_ESaISA_EEC2Ev = comdat any

$_ZNSt8_Rb_treeINSt7__cxx1112basic_stringIcSt11char_traitsIcESaIcEEESt4pairIKS5_P8_IO_FILEESt10_Select1stISA_ESt4lessIS5_ESaISA_EE13_Rb_tree_implISE_Lb1EEC2Ev = comdat any

$_ZNSaISt13_Rb_tree_nodeISt4pairIKNSt7__cxx1112basic_stringIcSt11char_traitsIcESaIcEEEP8_IO_FILEEEEC2Ev = comdat any

$_ZN9__gnu_cxx13new_allocatorISt13_Rb_tree_nodeISt4pairIKNSt7__cxx1112basic_stringIcSt11char_traitsIcESaIcEEEP8_IO_FILEEEEC2Ev = comdat any

$_ZNSt8_Rb_treeINSt7__cxx1112basic_stringIcSt11char_traitsIcESaIcEEESt4pairIKS5_P8_IO_FILEESt10_Select1stISA_ESt4lessIS5_ESaISA_EED2Ev = comdat any

$_ZNSt8_Rb_treeINSt7__cxx1112basic_stringIcSt11char_traitsIcESaIcEEESt4pairIKS5_P8_IO_FILEESt10_Select1stISA_ESt4lessIS5_ESaISA_EE8_M_eraseEPSt13_Rb_tree_nodeISA_E = comdat any

$_ZNSt8_Rb_treeINSt7__cxx1112basic_stringIcSt11char_traitsIcESaIcEEESt4pairIKS5_P8_IO_FILEESt10_Select1stISA_ESt4lessIS5_ESaISA_EE8_M_beginEv = comdat any

$_ZNSt8_Rb_treeINSt7__cxx1112basic_stringIcSt11char_traitsIcESaIcEEESt4pairIKS5_P8_IO_FILEESt10_Select1stISA_ESt4lessIS5_ESaISA_EE13_Rb_tree_implISE_Lb1EED2Ev = comdat any

$_ZNSt8_Rb_treeINSt7__cxx1112basic_stringIcSt11char_traitsIcESaIcEEESt4pairIKS5_P8_IO_FILEESt10_Select1stISA_ESt4lessIS5_ESaISA_EE8_S_rightEPSt18_Rb_tree_node_base = comdat any

$_ZNSt8_Rb_treeINSt7__cxx1112basic_stringIcSt11char_traitsIcESaIcEEESt4pairIKS5_P8_IO_FILEESt10_Select1stISA_ESt4lessIS5_ESaISA_EE7_S_leftEPSt18_Rb_tree_node_base = comdat any

$_ZNSt8_Rb_treeINSt7__cxx1112basic_stringIcSt11char_traitsIcESaIcEEESt4pairIKS5_P8_IO_FILEESt10_Select1stISA_ESt4lessIS5_ESaISA_EE12_M_drop_nodeEPSt13_Rb_tree_nodeISA_E = comdat any

$_ZNSt8_Rb_treeINSt7__cxx1112basic_stringIcSt11char_traitsIcESaIcEEESt4pairIKS5_P8_IO_FILEESt10_Select1stISA_ESt4lessIS5_ESaISA_EE15_M_destroy_nodeEPSt13_Rb_tree_nodeISA_E = comdat any

$_ZNSt8_Rb_treeINSt7__cxx1112basic_stringIcSt11char_traitsIcESaIcEEESt4pairIKS5_P8_IO_FILEESt10_Select1stISA_ESt4lessIS5_ESaISA_EE11_M_put_nodeEPSt13_Rb_tree_nodeISA_E = comdat any

$_ZNSt16allocator_traitsISaISt13_Rb_tree_nodeISt4pairIKNSt7__cxx1112basic_stringIcSt11char_traitsIcESaIcEEEP8_IO_FILEEEEE7destroyISB_EEvRSD_PT_ = comdat any

$_ZNSt8_Rb_treeINSt7__cxx1112basic_stringIcSt11char_traitsIcESaIcEEESt4pairIKS5_P8_IO_FILEESt10_Select1stISA_ESt4lessIS5_ESaISA_EE21_M_get_Node_allocatorEv = comdat any

$_ZNSt13_Rb_tree_nodeISt4pairIKNSt7__cxx1112basic_stringIcSt11char_traitsIcESaIcEEEP8_IO_FILEEE9_M_valptrEv = comdat any

$_ZN9__gnu_cxx13new_allocatorISt13_Rb_tree_nodeISt4pairIKNSt7__cxx1112basic_stringIcSt11char_traitsIcESaIcEEEP8_IO_FILEEEE7destroyISC_EEvPT_ = comdat any

$_ZNSt4pairIKNSt7__cxx1112basic_stringIcSt11char_traitsIcESaIcEEEP8_IO_FILEED2Ev = comdat any

$_ZN9__gnu_cxx16__aligned_membufISt4pairIKNSt7__cxx1112basic_stringIcSt11char_traitsIcESaIcEEEP8_IO_FILEEE6_M_ptrEv = comdat any

$_ZN9__gnu_cxx16__aligned_membufISt4pairIKNSt7__cxx1112basic_stringIcSt11char_traitsIcESaIcEEEP8_IO_FILEEE7_M_addrEv = comdat any

$_ZNSt16allocator_traitsISaISt13_Rb_tree_nodeISt4pairIKNSt7__cxx1112basic_stringIcSt11char_traitsIcESaIcEEEP8_IO_FILEEEEE10deallocateERSD_PSC_j = comdat any

$_ZN9__gnu_cxx13new_allocatorISt13_Rb_tree_nodeISt4pairIKNSt7__cxx1112basic_stringIcSt11char_traitsIcESaIcEEEP8_IO_FILEEEE10deallocateEPSD_j = comdat any

$_ZNSaISt13_Rb_tree_nodeISt4pairIKNSt7__cxx1112basic_stringIcSt11char_traitsIcESaIcEEEP8_IO_FILEEEED2Ev = comdat any

$_ZN9__gnu_cxx13new_allocatorISt13_Rb_tree_nodeISt4pairIKNSt7__cxx1112basic_stringIcSt11char_traitsIcESaIcEEEP8_IO_FILEEEED2Ev = comdat any

$_ZNSt8_Rb_treeINSt7__cxx1112basic_stringIcSt11char_traitsIcESaIcEEESt4pairIKS5_St3setIS5_St4lessIS5_ESaIS5_EEESt10_Select1stISD_ESA_SaISD_EEC2Ev = comdat any

$_ZNSt8_Rb_treeINSt7__cxx1112basic_stringIcSt11char_traitsIcESaIcEEESt4pairIKS5_St3setIS5_St4lessIS5_ESaIS5_EEESt10_Select1stISD_ESA_SaISD_EE13_Rb_tree_implISA_Lb1EEC2Ev = comdat any

$_ZNSaISt13_Rb_tree_nodeISt4pairIKNSt7__cxx1112basic_stringIcSt11char_traitsIcESaIcEEESt3setIS6_St4lessIS6_ESaIS6_EEEEEC2Ev = comdat any

$_ZN9__gnu_cxx13new_allocatorISt13_Rb_tree_nodeISt4pairIKNSt7__cxx1112basic_stringIcSt11char_traitsIcESaIcEEESt3setIS8_St4lessIS8_ESaIS8_EEEEEC2Ev = comdat any

$_ZNSt8_Rb_treeINSt7__cxx1112basic_stringIcSt11char_traitsIcESaIcEEESt4pairIKS5_St3setIS5_St4lessIS5_ESaIS5_EEESt10_Select1stISD_ESA_SaISD_EED2Ev = comdat any

$_ZNSt8_Rb_treeINSt7__cxx1112basic_stringIcSt11char_traitsIcESaIcEEESt4pairIKS5_St3setIS5_St4lessIS5_ESaIS5_EEESt10_Select1stISD_ESA_SaISD_EE8_M_eraseEPSt13_Rb_tree_nodeISD_E = comdat any

$_ZNSt8_Rb_treeINSt7__cxx1112basic_stringIcSt11char_traitsIcESaIcEEESt4pairIKS5_St3setIS5_St4lessIS5_ESaIS5_EEESt10_Select1stISD_ESA_SaISD_EE8_M_beginEv = comdat any

$_ZNSt8_Rb_treeINSt7__cxx1112basic_stringIcSt11char_traitsIcESaIcEEESt4pairIKS5_St3setIS5_St4lessIS5_ESaIS5_EEESt10_Select1stISD_ESA_SaISD_EE13_Rb_tree_implISA_Lb1EED2Ev = comdat any

$_ZNSt8_Rb_treeINSt7__cxx1112basic_stringIcSt11char_traitsIcESaIcEEESt4pairIKS5_St3setIS5_St4lessIS5_ESaIS5_EEESt10_Select1stISD_ESA_SaISD_EE8_S_rightEPSt18_Rb_tree_node_base = comdat any

$_ZNSt8_Rb_treeINSt7__cxx1112basic_stringIcSt11char_traitsIcESaIcEEESt4pairIKS5_St3setIS5_St4lessIS5_ESaIS5_EEESt10_Select1stISD_ESA_SaISD_EE7_S_leftEPSt18_Rb_tree_node_base = comdat any

$_ZNSt8_Rb_treeINSt7__cxx1112basic_stringIcSt11char_traitsIcESaIcEEESt4pairIKS5_St3setIS5_St4lessIS5_ESaIS5_EEESt10_Select1stISD_ESA_SaISD_EE12_M_drop_nodeEPSt13_Rb_tree_nodeISD_E = comdat any

$_ZNSt8_Rb_treeINSt7__cxx1112basic_stringIcSt11char_traitsIcESaIcEEESt4pairIKS5_St3setIS5_St4lessIS5_ESaIS5_EEESt10_Select1stISD_ESA_SaISD_EE15_M_destroy_nodeEPSt13_Rb_tree_nodeISD_E = comdat any

$_ZNSt8_Rb_treeINSt7__cxx1112basic_stringIcSt11char_traitsIcESaIcEEESt4pairIKS5_St3setIS5_St4lessIS5_ESaIS5_EEESt10_Select1stISD_ESA_SaISD_EE11_M_put_nodeEPSt13_Rb_tree_nodeISD_E = comdat any

$_ZNSt16allocator_traitsISaISt13_Rb_tree_nodeISt4pairIKNSt7__cxx1112basic_stringIcSt11char_traitsIcESaIcEEESt3setIS7_St4lessIS7_ESaIS7_EEEEEE7destroyISE_EEvRSG_PT_ = comdat any

$_ZNSt8_Rb_treeINSt7__cxx1112basic_stringIcSt11char_traitsIcESaIcEEESt4pairIKS5_St3setIS5_St4lessIS5_ESaIS5_EEESt10_Select1stISD_ESA_SaISD_EE21_M_get_Node_allocatorEv = comdat any

$_ZNSt13_Rb_tree_nodeISt4pairIKNSt7__cxx1112basic_stringIcSt11char_traitsIcESaIcEEESt3setIS6_St4lessIS6_ESaIS6_EEEE9_M_valptrEv = comdat any

$_ZN9__gnu_cxx13new_allocatorISt13_Rb_tree_nodeISt4pairIKNSt7__cxx1112basic_stringIcSt11char_traitsIcESaIcEEESt3setIS8_St4lessIS8_ESaIS8_EEEEE7destroyISF_EEvPT_ = comdat any

$_ZNSt4pairIKNSt7__cxx1112basic_stringIcSt11char_traitsIcESaIcEEESt3setIS5_St4lessIS5_ESaIS5_EEED2Ev = comdat any

$_ZN9__gnu_cxx16__aligned_membufISt4pairIKNSt7__cxx1112basic_stringIcSt11char_traitsIcESaIcEEESt3setIS7_St4lessIS7_ESaIS7_EEEE6_M_ptrEv = comdat any

$_ZN9__gnu_cxx16__aligned_membufISt4pairIKNSt7__cxx1112basic_stringIcSt11char_traitsIcESaIcEEESt3setIS7_St4lessIS7_ESaIS7_EEEE7_M_addrEv = comdat any

$_ZNSt16allocator_traitsISaISt13_Rb_tree_nodeISt4pairIKNSt7__cxx1112basic_stringIcSt11char_traitsIcESaIcEEESt3setIS7_St4lessIS7_ESaIS7_EEEEEE10deallocateERSG_PSF_j = comdat any

$_ZN9__gnu_cxx13new_allocatorISt13_Rb_tree_nodeISt4pairIKNSt7__cxx1112basic_stringIcSt11char_traitsIcESaIcEEESt3setIS8_St4lessIS8_ESaIS8_EEEEE10deallocateEPSG_j = comdat any

$_ZNSaISt13_Rb_tree_nodeISt4pairIKNSt7__cxx1112basic_stringIcSt11char_traitsIcESaIcEEESt3setIS6_St4lessIS6_ESaIS6_EEEEED2Ev = comdat any

$_ZN9__gnu_cxx13new_allocatorISt13_Rb_tree_nodeISt4pairIKNSt7__cxx1112basic_stringIcSt11char_traitsIcESaIcEEESt3setIS8_St4lessIS8_ESaIS8_EEEEED2Ev = comdat any

$_ZNSt8_Rb_treeINSt7__cxx1112basic_stringIcSt11char_traitsIcESaIcEEESt4pairIKS5_S5_ESt10_Select1stIS8_ESt4lessIS5_ESaIS8_EEC2Ev = comdat any

$_ZNSt8_Rb_treeINSt7__cxx1112basic_stringIcSt11char_traitsIcESaIcEEESt4pairIKS5_S5_ESt10_Select1stIS8_ESt4lessIS5_ESaIS8_EE13_Rb_tree_implISC_Lb1EEC2Ev = comdat any

$_ZNSaISt13_Rb_tree_nodeISt4pairIKNSt7__cxx1112basic_stringIcSt11char_traitsIcESaIcEEES6_EEEC2Ev = comdat any

$_ZN9__gnu_cxx13new_allocatorISt13_Rb_tree_nodeISt4pairIKNSt7__cxx1112basic_stringIcSt11char_traitsIcESaIcEEES8_EEEC2Ev = comdat any

$_ZNSt8_Rb_treeINSt7__cxx1112basic_stringIcSt11char_traitsIcESaIcEEESt4pairIKS5_S5_ESt10_Select1stIS8_ESt4lessIS5_ESaIS8_EED2Ev = comdat any

$_ZNSt8_Rb_treeINSt7__cxx1112basic_stringIcSt11char_traitsIcESaIcEEESt4pairIKS5_S5_ESt10_Select1stIS8_ESt4lessIS5_ESaIS8_EE8_M_eraseEPSt13_Rb_tree_nodeIS8_E = comdat any

$_ZNSt8_Rb_treeINSt7__cxx1112basic_stringIcSt11char_traitsIcESaIcEEESt4pairIKS5_S5_ESt10_Select1stIS8_ESt4lessIS5_ESaIS8_EE8_M_beginEv = comdat any

$_ZNSt8_Rb_treeINSt7__cxx1112basic_stringIcSt11char_traitsIcESaIcEEESt4pairIKS5_S5_ESt10_Select1stIS8_ESt4lessIS5_ESaIS8_EE13_Rb_tree_implISC_Lb1EED2Ev = comdat any

$_ZNSt8_Rb_treeINSt7__cxx1112basic_stringIcSt11char_traitsIcESaIcEEESt4pairIKS5_S5_ESt10_Select1stIS8_ESt4lessIS5_ESaIS8_EE8_S_rightEPSt18_Rb_tree_node_base = comdat any

$_ZNSt8_Rb_treeINSt7__cxx1112basic_stringIcSt11char_traitsIcESaIcEEESt4pairIKS5_S5_ESt10_Select1stIS8_ESt4lessIS5_ESaIS8_EE7_S_leftEPSt18_Rb_tree_node_base = comdat any

$_ZNSt8_Rb_treeINSt7__cxx1112basic_stringIcSt11char_traitsIcESaIcEEESt4pairIKS5_S5_ESt10_Select1stIS8_ESt4lessIS5_ESaIS8_EE12_M_drop_nodeEPSt13_Rb_tree_nodeIS8_E = comdat any

$_ZNSt8_Rb_treeINSt7__cxx1112basic_stringIcSt11char_traitsIcESaIcEEESt4pairIKS5_S5_ESt10_Select1stIS8_ESt4lessIS5_ESaIS8_EE15_M_destroy_nodeEPSt13_Rb_tree_nodeIS8_E = comdat any

$_ZNSt8_Rb_treeINSt7__cxx1112basic_stringIcSt11char_traitsIcESaIcEEESt4pairIKS5_S5_ESt10_Select1stIS8_ESt4lessIS5_ESaIS8_EE11_M_put_nodeEPSt13_Rb_tree_nodeIS8_E = comdat any

$_ZNSt16allocator_traitsISaISt13_Rb_tree_nodeISt4pairIKNSt7__cxx1112basic_stringIcSt11char_traitsIcESaIcEEES7_EEEE7destroyIS9_EEvRSB_PT_ = comdat any

$_ZNSt8_Rb_treeINSt7__cxx1112basic_stringIcSt11char_traitsIcESaIcEEESt4pairIKS5_S5_ESt10_Select1stIS8_ESt4lessIS5_ESaIS8_EE21_M_get_Node_allocatorEv = comdat any

$_ZNSt13_Rb_tree_nodeISt4pairIKNSt7__cxx1112basic_stringIcSt11char_traitsIcESaIcEEES6_EE9_M_valptrEv = comdat any

$_ZN9__gnu_cxx13new_allocatorISt13_Rb_tree_nodeISt4pairIKNSt7__cxx1112basic_stringIcSt11char_traitsIcESaIcEEES8_EEE7destroyISA_EEvPT_ = comdat any

$_ZNSt4pairIKNSt7__cxx1112basic_stringIcSt11char_traitsIcESaIcEEES5_ED2Ev = comdat any

$_ZN9__gnu_cxx16__aligned_membufISt4pairIKNSt7__cxx1112basic_stringIcSt11char_traitsIcESaIcEEES7_EE6_M_ptrEv = comdat any

$_ZN9__gnu_cxx16__aligned_membufISt4pairIKNSt7__cxx1112basic_stringIcSt11char_traitsIcESaIcEEES7_EE7_M_addrEv = comdat any

$_ZNSt16allocator_traitsISaISt13_Rb_tree_nodeISt4pairIKNSt7__cxx1112basic_stringIcSt11char_traitsIcESaIcEEES7_EEEE10deallocateERSB_PSA_j = comdat any

$_ZN9__gnu_cxx13new_allocatorISt13_Rb_tree_nodeISt4pairIKNSt7__cxx1112basic_stringIcSt11char_traitsIcESaIcEEES8_EEE10deallocateEPSB_j = comdat any

$_ZNSaISt13_Rb_tree_nodeISt4pairIKNSt7__cxx1112basic_stringIcSt11char_traitsIcESaIcEEES6_EEED2Ev = comdat any

$_ZN9__gnu_cxx13new_allocatorISt13_Rb_tree_nodeISt4pairIKNSt7__cxx1112basic_stringIcSt11char_traitsIcESaIcEEES8_EEED2Ev = comdat any

$_ZNSt8_Rb_treeINSt7__cxx1112basic_stringIcSt11char_traitsIcESaIcEEESt4pairIKS5_St3mapIS5_iSt4lessIS5_ESaIS6_IS7_iEEEESt10_Select1stISE_ESA_SaISE_EEC2Ev = comdat any

$_ZNSt8_Rb_treeINSt7__cxx1112basic_stringIcSt11char_traitsIcESaIcEEESt4pairIKS5_St3mapIS5_iSt4lessIS5_ESaIS6_IS7_iEEEESt10_Select1stISE_ESA_SaISE_EE13_Rb_tree_implISA_Lb1EEC2Ev = comdat any

$_ZNSaISt13_Rb_tree_nodeISt4pairIKNSt7__cxx1112basic_stringIcSt11char_traitsIcESaIcEEESt3mapIS6_iSt4lessIS6_ESaIS0_IS7_iEEEEEEC2Ev = comdat any

$_ZN9__gnu_cxx13new_allocatorISt13_Rb_tree_nodeISt4pairIKNSt7__cxx1112basic_stringIcSt11char_traitsIcESaIcEEESt3mapIS8_iSt4lessIS8_ESaIS2_IS9_iEEEEEEC2Ev = comdat any

$_ZNSt8_Rb_treeINSt7__cxx1112basic_stringIcSt11char_traitsIcESaIcEEESt4pairIKS5_St3mapIS5_iSt4lessIS5_ESaIS6_IS7_iEEEESt10_Select1stISE_ESA_SaISE_EED2Ev = comdat any

$_ZNSt8_Rb_treeINSt7__cxx1112basic_stringIcSt11char_traitsIcESaIcEEESt4pairIKS5_St3mapIS5_iSt4lessIS5_ESaIS6_IS7_iEEEESt10_Select1stISE_ESA_SaISE_EE8_M_eraseEPSt13_Rb_tree_nodeISE_E = comdat any

$_ZNSt8_Rb_treeINSt7__cxx1112basic_stringIcSt11char_traitsIcESaIcEEESt4pairIKS5_St3mapIS5_iSt4lessIS5_ESaIS6_IS7_iEEEESt10_Select1stISE_ESA_SaISE_EE8_M_beginEv = comdat any

$_ZNSt8_Rb_treeINSt7__cxx1112basic_stringIcSt11char_traitsIcESaIcEEESt4pairIKS5_St3mapIS5_iSt4lessIS5_ESaIS6_IS7_iEEEESt10_Select1stISE_ESA_SaISE_EE13_Rb_tree_implISA_Lb1EED2Ev = comdat any

$_ZNSt8_Rb_treeINSt7__cxx1112basic_stringIcSt11char_traitsIcESaIcEEESt4pairIKS5_St3mapIS5_iSt4lessIS5_ESaIS6_IS7_iEEEESt10_Select1stISE_ESA_SaISE_EE8_S_rightEPSt18_Rb_tree_node_base = comdat any

$_ZNSt8_Rb_treeINSt7__cxx1112basic_stringIcSt11char_traitsIcESaIcEEESt4pairIKS5_St3mapIS5_iSt4lessIS5_ESaIS6_IS7_iEEEESt10_Select1stISE_ESA_SaISE_EE7_S_leftEPSt18_Rb_tree_node_base = comdat any

$_ZNSt8_Rb_treeINSt7__cxx1112basic_stringIcSt11char_traitsIcESaIcEEESt4pairIKS5_St3mapIS5_iSt4lessIS5_ESaIS6_IS7_iEEEESt10_Select1stISE_ESA_SaISE_EE12_M_drop_nodeEPSt13_Rb_tree_nodeISE_E = comdat any

$_ZNSt8_Rb_treeINSt7__cxx1112basic_stringIcSt11char_traitsIcESaIcEEESt4pairIKS5_St3mapIS5_iSt4lessIS5_ESaIS6_IS7_iEEEESt10_Select1stISE_ESA_SaISE_EE15_M_destroy_nodeEPSt13_Rb_tree_nodeISE_E = comdat any

$_ZNSt8_Rb_treeINSt7__cxx1112basic_stringIcSt11char_traitsIcESaIcEEESt4pairIKS5_St3mapIS5_iSt4lessIS5_ESaIS6_IS7_iEEEESt10_Select1stISE_ESA_SaISE_EE11_M_put_nodeEPSt13_Rb_tree_nodeISE_E = comdat any

$_ZNSt16allocator_traitsISaISt13_Rb_tree_nodeISt4pairIKNSt7__cxx1112basic_stringIcSt11char_traitsIcESaIcEEESt3mapIS7_iSt4lessIS7_ESaIS1_IS8_iEEEEEEE7destroyISF_EEvRSH_PT_ = comdat any

$_ZNSt8_Rb_treeINSt7__cxx1112basic_stringIcSt11char_traitsIcESaIcEEESt4pairIKS5_St3mapIS5_iSt4lessIS5_ESaIS6_IS7_iEEEESt10_Select1stISE_ESA_SaISE_EE21_M_get_Node_allocatorEv = comdat any

$_ZNSt13_Rb_tree_nodeISt4pairIKNSt7__cxx1112basic_stringIcSt11char_traitsIcESaIcEEESt3mapIS6_iSt4lessIS6_ESaIS0_IS7_iEEEEE9_M_valptrEv = comdat any

$_ZN9__gnu_cxx13new_allocatorISt13_Rb_tree_nodeISt4pairIKNSt7__cxx1112basic_stringIcSt11char_traitsIcESaIcEEESt3mapIS8_iSt4lessIS8_ESaIS2_IS9_iEEEEEE7destroyISG_EEvPT_ = comdat any

$_ZNSt4pairIKNSt7__cxx1112basic_stringIcSt11char_traitsIcESaIcEEESt3mapIS5_iSt4lessIS5_ESaIS_IS6_iEEEED2Ev = comdat any

$_ZN9__gnu_cxx16__aligned_membufISt4pairIKNSt7__cxx1112basic_stringIcSt11char_traitsIcESaIcEEESt3mapIS7_iSt4lessIS7_ESaIS1_IS8_iEEEEE6_M_ptrEv = comdat any

$_ZN9__gnu_cxx16__aligned_membufISt4pairIKNSt7__cxx1112basic_stringIcSt11char_traitsIcESaIcEEESt3mapIS7_iSt4lessIS7_ESaIS1_IS8_iEEEEE7_M_addrEv = comdat any

$_ZNSt16allocator_traitsISaISt13_Rb_tree_nodeISt4pairIKNSt7__cxx1112basic_stringIcSt11char_traitsIcESaIcEEESt3mapIS7_iSt4lessIS7_ESaIS1_IS8_iEEEEEEE10deallocateERSH_PSG_j = comdat any

$_ZN9__gnu_cxx13new_allocatorISt13_Rb_tree_nodeISt4pairIKNSt7__cxx1112basic_stringIcSt11char_traitsIcESaIcEEESt3mapIS8_iSt4lessIS8_ESaIS2_IS9_iEEEEEE10deallocateEPSH_j = comdat any

$_ZNSaISt13_Rb_tree_nodeISt4pairIKNSt7__cxx1112basic_stringIcSt11char_traitsIcESaIcEEESt3mapIS6_iSt4lessIS6_ESaIS0_IS7_iEEEEEED2Ev = comdat any

$_ZN9__gnu_cxx13new_allocatorISt13_Rb_tree_nodeISt4pairIKNSt7__cxx1112basic_stringIcSt11char_traitsIcESaIcEEESt3mapIS8_iSt4lessIS8_ESaIS2_IS9_iEEEEEED2Ev = comdat any

$_ZNSt6vectorINSt7__cxx1112basic_stringIcSt11char_traitsIcESaIcEEESaIS5_EEC2Ev = comdat any

$_ZNSt12_Vector_baseINSt7__cxx1112basic_stringIcSt11char_traitsIcESaIcEEESaIS5_EEC2Ev = comdat any

$_ZNSt12_Vector_baseINSt7__cxx1112basic_stringIcSt11char_traitsIcESaIcEEESaIS5_EE12_Vector_implC2Ev = comdat any

$_ZNSaINSt7__cxx1112basic_stringIcSt11char_traitsIcESaIcEEEEC2Ev = comdat any

$_ZN9__gnu_cxx13new_allocatorINSt7__cxx1112basic_stringIcSt11char_traitsIcESaIcEEEEC2Ev = comdat any

$_ZNSt8_Rb_treeINSt7__cxx1112basic_stringIcSt11char_traitsIcESaIcEEESt4pairIKS5_St6vectorIS8_I8pathInfoSaIS9_EESaISB_EEESt10_Select1stISE_ESt4lessIS5_ESaISE_EEC2Ev = comdat any

$_ZNSt8_Rb_treeINSt7__cxx1112basic_stringIcSt11char_traitsIcESaIcEEESt4pairIKS5_St6vectorIS8_I8pathInfoSaIS9_EESaISB_EEESt10_Select1stISE_ESt4lessIS5_ESaISE_EE13_Rb_tree_implISI_Lb1EEC2Ev = comdat any

$_ZNSaISt13_Rb_tree_nodeISt4pairIKNSt7__cxx1112basic_stringIcSt11char_traitsIcESaIcEEESt6vectorIS8_I8pathInfoSaIS9_EESaISB_EEEEEC2Ev = comdat any

$_ZN9__gnu_cxx13new_allocatorISt13_Rb_tree_nodeISt4pairIKNSt7__cxx1112basic_stringIcSt11char_traitsIcESaIcEEESt6vectorISA_I8pathInfoSaISB_EESaISD_EEEEEC2Ev = comdat any

$_ZNSt8_Rb_treeINSt7__cxx1112basic_stringIcSt11char_traitsIcESaIcEEESt4pairIKS5_St6vectorIS8_I8pathInfoSaIS9_EESaISB_EEESt10_Select1stISE_ESt4lessIS5_ESaISE_EED2Ev = comdat any

$_ZNSt8_Rb_treeINSt7__cxx1112basic_stringIcSt11char_traitsIcESaIcEEESt4pairIKS5_St6vectorIS8_I8pathInfoSaIS9_EESaISB_EEESt10_Select1stISE_ESt4lessIS5_ESaISE_EE8_M_eraseEPSt13_Rb_tree_nodeISE_E = comdat any

$_ZNSt8_Rb_treeINSt7__cxx1112basic_stringIcSt11char_traitsIcESaIcEEESt4pairIKS5_St6vectorIS8_I8pathInfoSaIS9_EESaISB_EEESt10_Select1stISE_ESt4lessIS5_ESaISE_EE8_M_beginEv = comdat any

$_ZNSt8_Rb_treeINSt7__cxx1112basic_stringIcSt11char_traitsIcESaIcEEESt4pairIKS5_St6vectorIS8_I8pathInfoSaIS9_EESaISB_EEESt10_Select1stISE_ESt4lessIS5_ESaISE_EE13_Rb_tree_implISI_Lb1EED2Ev = comdat any

$_ZNSt8_Rb_treeINSt7__cxx1112basic_stringIcSt11char_traitsIcESaIcEEESt4pairIKS5_St6vectorIS8_I8pathInfoSaIS9_EESaISB_EEESt10_Select1stISE_ESt4lessIS5_ESaISE_EE8_S_rightEPSt18_Rb_tree_node_base = comdat any

$_ZNSt8_Rb_treeINSt7__cxx1112basic_stringIcSt11char_traitsIcESaIcEEESt4pairIKS5_St6vectorIS8_I8pathInfoSaIS9_EESaISB_EEESt10_Select1stISE_ESt4lessIS5_ESaISE_EE7_S_leftEPSt18_Rb_tree_node_base = comdat any

$_ZNSt8_Rb_treeINSt7__cxx1112basic_stringIcSt11char_traitsIcESaIcEEESt4pairIKS5_St6vectorIS8_I8pathInfoSaIS9_EESaISB_EEESt10_Select1stISE_ESt4lessIS5_ESaISE_EE12_M_drop_nodeEPSt13_Rb_tree_nodeISE_E = comdat any

$_ZNSt8_Rb_treeINSt7__cxx1112basic_stringIcSt11char_traitsIcESaIcEEESt4pairIKS5_St6vectorIS8_I8pathInfoSaIS9_EESaISB_EEESt10_Select1stISE_ESt4lessIS5_ESaISE_EE15_M_destroy_nodeEPSt13_Rb_tree_nodeISE_E = comdat any

$_ZNSt8_Rb_treeINSt7__cxx1112basic_stringIcSt11char_traitsIcESaIcEEESt4pairIKS5_St6vectorIS8_I8pathInfoSaIS9_EESaISB_EEESt10_Select1stISE_ESt4lessIS5_ESaISE_EE11_M_put_nodeEPSt13_Rb_tree_nodeISE_E = comdat any

$_ZNSt16allocator_traitsISaISt13_Rb_tree_nodeISt4pairIKNSt7__cxx1112basic_stringIcSt11char_traitsIcESaIcEEESt6vectorIS9_I8pathInfoSaISA_EESaISC_EEEEEE7destroyISF_EEvRSH_PT_ = comdat any

$_ZNSt8_Rb_treeINSt7__cxx1112basic_stringIcSt11char_traitsIcESaIcEEESt4pairIKS5_St6vectorIS8_I8pathInfoSaIS9_EESaISB_EEESt10_Select1stISE_ESt4lessIS5_ESaISE_EE21_M_get_Node_allocatorEv = comdat any

$_ZNSt13_Rb_tree_nodeISt4pairIKNSt7__cxx1112basic_stringIcSt11char_traitsIcESaIcEEESt6vectorIS8_I8pathInfoSaIS9_EESaISB_EEEE9_M_valptrEv = comdat any

$_ZN9__gnu_cxx13new_allocatorISt13_Rb_tree_nodeISt4pairIKNSt7__cxx1112basic_stringIcSt11char_traitsIcESaIcEEESt6vectorISA_I8pathInfoSaISB_EESaISD_EEEEE7destroyISG_EEvPT_ = comdat any

$_ZNSt4pairIKNSt7__cxx1112basic_stringIcSt11char_traitsIcESaIcEEESt6vectorIS7_I8pathInfoSaIS8_EESaISA_EEED2Ev = comdat any

$_ZNSt6vectorIS_I8pathInfoSaIS0_EESaIS2_EED2Ev = comdat any

$_ZSt8_DestroyIPSt6vectorI8pathInfoSaIS1_EES3_EvT_S5_RSaIT0_E = comdat any

$_ZNSt12_Vector_baseISt6vectorI8pathInfoSaIS1_EESaIS3_EE19_M_get_Tp_allocatorEv = comdat any

$_ZNSt12_Vector_baseISt6vectorI8pathInfoSaIS1_EESaIS3_EED2Ev = comdat any

$_ZSt8_DestroyIPSt6vectorI8pathInfoSaIS1_EEEvT_S5_ = comdat any

$_ZNSt12_Destroy_auxILb0EE9__destroyIPSt6vectorI8pathInfoSaIS3_EEEEvT_S7_ = comdat any

$_ZSt8_DestroyISt6vectorI8pathInfoSaIS1_EEEvPT_ = comdat any

$_ZNSt12_Vector_baseISt6vectorI8pathInfoSaIS1_EESaIS3_EE13_M_deallocateEPS3_j = comdat any

$_ZNSt12_Vector_baseISt6vectorI8pathInfoSaIS1_EESaIS3_EE12_Vector_implD2Ev = comdat any

$_ZNSt16allocator_traitsISaISt6vectorI8pathInfoSaIS1_EEEE10deallocateERS4_PS3_j = comdat any

$_ZN9__gnu_cxx13new_allocatorISt6vectorI8pathInfoSaIS2_EEE10deallocateEPS4_j = comdat any

$_ZNSaISt6vectorI8pathInfoSaIS0_EEED2Ev = comdat any

$_ZN9__gnu_cxx13new_allocatorISt6vectorI8pathInfoSaIS2_EEED2Ev = comdat any

$_ZN9__gnu_cxx16__aligned_membufISt4pairIKNSt7__cxx1112basic_stringIcSt11char_traitsIcESaIcEEESt6vectorIS9_I8pathInfoSaISA_EESaISC_EEEE6_M_ptrEv = comdat any

$_ZN9__gnu_cxx16__aligned_membufISt4pairIKNSt7__cxx1112basic_stringIcSt11char_traitsIcESaIcEEESt6vectorIS9_I8pathInfoSaISA_EESaISC_EEEE7_M_addrEv = comdat any

$_ZNSt16allocator_traitsISaISt13_Rb_tree_nodeISt4pairIKNSt7__cxx1112basic_stringIcSt11char_traitsIcESaIcEEESt6vectorIS9_I8pathInfoSaISA_EESaISC_EEEEEE10deallocateERSH_PSG_j = comdat any

$_ZN9__gnu_cxx13new_allocatorISt13_Rb_tree_nodeISt4pairIKNSt7__cxx1112basic_stringIcSt11char_traitsIcESaIcEEESt6vectorISA_I8pathInfoSaISB_EESaISD_EEEEE10deallocateEPSH_j = comdat any

$_ZNSaISt13_Rb_tree_nodeISt4pairIKNSt7__cxx1112basic_stringIcSt11char_traitsIcESaIcEEESt6vectorIS8_I8pathInfoSaIS9_EESaISB_EEEEED2Ev = comdat any

$_ZN9__gnu_cxx13new_allocatorISt13_Rb_tree_nodeISt4pairIKNSt7__cxx1112basic_stringIcSt11char_traitsIcESaIcEEESt6vectorISA_I8pathInfoSaISB_EESaISD_EEEEED2Ev = comdat any

$_ZNSt12_Vector_baseI8pathInfoSaIS0_EEC2Ev = comdat any

$_ZNSt12_Vector_baseI8pathInfoSaIS0_EE12_Vector_implC2Ev = comdat any

$_ZNSaI8pathInfoEC2Ev = comdat any

$_ZNSt12_Vector_baseI8pathInfoSaIS0_EE17_Vector_impl_dataC2Ev = comdat any

$_ZN9__gnu_cxx13new_allocatorI8pathInfoEC2Ev = comdat any

$_ZNSt8_Rb_treeISt6vectorINSt7__cxx1112basic_stringIcSt11char_traitsIcESaIcEEESaIS6_EESt4pairIKS8_iESt10_Select1stISB_ESt4lessIS8_ESaISB_EEC2Ev = comdat any

$_ZNSt8_Rb_treeISt6vectorINSt7__cxx1112basic_stringIcSt11char_traitsIcESaIcEEESaIS6_EESt4pairIKS8_iESt10_Select1stISB_ESt4lessIS8_ESaISB_EE13_Rb_tree_implISF_Lb1EEC2Ev = comdat any

$_ZNSaISt13_Rb_tree_nodeISt4pairIKSt6vectorINSt7__cxx1112basic_stringIcSt11char_traitsIcESaIcEEESaIS7_EEiEEEC2Ev = comdat any

$_ZNSt20_Rb_tree_key_compareISt4lessISt6vectorINSt7__cxx1112basic_stringIcSt11char_traitsIcESaIcEEESaIS7_EEEEC2Ev = comdat any

$_ZN9__gnu_cxx13new_allocatorISt13_Rb_tree_nodeISt4pairIKSt6vectorINSt7__cxx1112basic_stringIcSt11char_traitsIcESaIcEEESaIS9_EEiEEEC2Ev = comdat any

$_ZNSt8_Rb_treeISt6vectorINSt7__cxx1112basic_stringIcSt11char_traitsIcESaIcEEESaIS6_EESt4pairIKS8_iESt10_Select1stISB_ESt4lessIS8_ESaISB_EED2Ev = comdat any

$_ZNSt8_Rb_treeISt6vectorINSt7__cxx1112basic_stringIcSt11char_traitsIcESaIcEEESaIS6_EESt4pairIKS8_iESt10_Select1stISB_ESt4lessIS8_ESaISB_EE8_M_eraseEPSt13_Rb_tree_nodeISB_E = comdat any

$_ZNSt8_Rb_treeISt6vectorINSt7__cxx1112basic_stringIcSt11char_traitsIcESaIcEEESaIS6_EESt4pairIKS8_iESt10_Select1stISB_ESt4lessIS8_ESaISB_EE8_M_beginEv = comdat any

$_ZNSt8_Rb_treeISt6vectorINSt7__cxx1112basic_stringIcSt11char_traitsIcESaIcEEESaIS6_EESt4pairIKS8_iESt10_Select1stISB_ESt4lessIS8_ESaISB_EE13_Rb_tree_implISF_Lb1EED2Ev = comdat any

$_ZNSt8_Rb_treeISt6vectorINSt7__cxx1112basic_stringIcSt11char_traitsIcESaIcEEESaIS6_EESt4pairIKS8_iESt10_Select1stISB_ESt4lessIS8_ESaISB_EE8_S_rightEPSt18_Rb_tree_node_base = comdat any

$_ZNSt8_Rb_treeISt6vectorINSt7__cxx1112basic_stringIcSt11char_traitsIcESaIcEEESaIS6_EESt4pairIKS8_iESt10_Select1stISB_ESt4lessIS8_ESaISB_EE7_S_leftEPSt18_Rb_tree_node_base = comdat any

$_ZNSt8_Rb_treeISt6vectorINSt7__cxx1112basic_stringIcSt11char_traitsIcESaIcEEESaIS6_EESt4pairIKS8_iESt10_Select1stISB_ESt4lessIS8_ESaISB_EE12_M_drop_nodeEPSt13_Rb_tree_nodeISB_E = comdat any

$_ZNSt8_Rb_treeISt6vectorINSt7__cxx1112basic_stringIcSt11char_traitsIcESaIcEEESaIS6_EESt4pairIKS8_iESt10_Select1stISB_ESt4lessIS8_ESaISB_EE15_M_destroy_nodeEPSt13_Rb_tree_nodeISB_E = comdat any

$_ZNSt8_Rb_treeISt6vectorINSt7__cxx1112basic_stringIcSt11char_traitsIcESaIcEEESaIS6_EESt4pairIKS8_iESt10_Select1stISB_ESt4lessIS8_ESaISB_EE11_M_put_nodeEPSt13_Rb_tree_nodeISB_E = comdat any

$_ZNSt16allocator_traitsISaISt13_Rb_tree_nodeISt4pairIKSt6vectorINSt7__cxx1112basic_stringIcSt11char_traitsIcESaIcEEESaIS8_EEiEEEE7destroyISC_EEvRSE_PT_ = comdat any

$_ZNSt8_Rb_treeISt6vectorINSt7__cxx1112basic_stringIcSt11char_traitsIcESaIcEEESaIS6_EESt4pairIKS8_iESt10_Select1stISB_ESt4lessIS8_ESaISB_EE21_M_get_Node_allocatorEv = comdat any

$_ZNSt13_Rb_tree_nodeISt4pairIKSt6vectorINSt7__cxx1112basic_stringIcSt11char_traitsIcESaIcEEESaIS7_EEiEE9_M_valptrEv = comdat any

$_ZN9__gnu_cxx13new_allocatorISt13_Rb_tree_nodeISt4pairIKSt6vectorINSt7__cxx1112basic_stringIcSt11char_traitsIcESaIcEEESaIS9_EEiEEE7destroyISD_EEvPT_ = comdat any

$_ZNSt4pairIKSt6vectorINSt7__cxx1112basic_stringIcSt11char_traitsIcESaIcEEESaIS6_EEiED2Ev = comdat any

$_ZN9__gnu_cxx16__aligned_membufISt4pairIKSt6vectorINSt7__cxx1112basic_stringIcSt11char_traitsIcESaIcEEESaIS8_EEiEE6_M_ptrEv = comdat any

$_ZN9__gnu_cxx16__aligned_membufISt4pairIKSt6vectorINSt7__cxx1112basic_stringIcSt11char_traitsIcESaIcEEESaIS8_EEiEE7_M_addrEv = comdat any

$_ZNSt16allocator_traitsISaISt13_Rb_tree_nodeISt4pairIKSt6vectorINSt7__cxx1112basic_stringIcSt11char_traitsIcESaIcEEESaIS8_EEiEEEE10deallocateERSE_PSD_j = comdat any

$_ZN9__gnu_cxx13new_allocatorISt13_Rb_tree_nodeISt4pairIKSt6vectorINSt7__cxx1112basic_stringIcSt11char_traitsIcESaIcEEESaIS9_EEiEEE10deallocateEPSE_j = comdat any

$_ZNSaISt13_Rb_tree_nodeISt4pairIKSt6vectorINSt7__cxx1112basic_stringIcSt11char_traitsIcESaIcEEESaIS7_EEiEEED2Ev = comdat any

$_ZN9__gnu_cxx13new_allocatorISt13_Rb_tree_nodeISt4pairIKSt6vectorINSt7__cxx1112basic_stringIcSt11char_traitsIcESaIcEEESaIS9_EEiEEED2Ev = comdat any

$_ZNSt8_Rb_treeIjSt4pairIKj13AddrDataTupleESt10_Select1stIS3_ESt4lessIjESaIS3_EEC2Ev = comdat any

$_ZNSt8_Rb_treeIjSt4pairIKj13AddrDataTupleESt10_Select1stIS3_ESt4lessIjESaIS3_EE13_Rb_tree_implIS7_Lb1EEC2Ev = comdat any

$_ZNSaISt13_Rb_tree_nodeISt4pairIKj13AddrDataTupleEEEC2Ev = comdat any

$_ZNSt20_Rb_tree_key_compareISt4lessIjEEC2Ev = comdat any

$_ZN9__gnu_cxx13new_allocatorISt13_Rb_tree_nodeISt4pairIKj13AddrDataTupleEEEC2Ev = comdat any

$_ZNSt8_Rb_treeIjSt4pairIKj13AddrDataTupleESt10_Select1stIS3_ESt4lessIjESaIS3_EED2Ev = comdat any

$_ZNSt8_Rb_treeIjSt4pairIKj13AddrDataTupleESt10_Select1stIS3_ESt4lessIjESaIS3_EE8_M_eraseEPSt13_Rb_tree_nodeIS3_E = comdat any

$_ZNSt8_Rb_treeIjSt4pairIKj13AddrDataTupleESt10_Select1stIS3_ESt4lessIjESaIS3_EE8_M_beginEv = comdat any

$_ZNSt8_Rb_treeIjSt4pairIKj13AddrDataTupleESt10_Select1stIS3_ESt4lessIjESaIS3_EE13_Rb_tree_implIS7_Lb1EED2Ev = comdat any

$_ZNSt8_Rb_treeIjSt4pairIKj13AddrDataTupleESt10_Select1stIS3_ESt4lessIjESaIS3_EE8_S_rightEPSt18_Rb_tree_node_base = comdat any

$_ZNSt8_Rb_treeIjSt4pairIKj13AddrDataTupleESt10_Select1stIS3_ESt4lessIjESaIS3_EE7_S_leftEPSt18_Rb_tree_node_base = comdat any

$_ZNSt8_Rb_treeIjSt4pairIKj13AddrDataTupleESt10_Select1stIS3_ESt4lessIjESaIS3_EE12_M_drop_nodeEPSt13_Rb_tree_nodeIS3_E = comdat any

$_ZNSt8_Rb_treeIjSt4pairIKj13AddrDataTupleESt10_Select1stIS3_ESt4lessIjESaIS3_EE15_M_destroy_nodeEPSt13_Rb_tree_nodeIS3_E = comdat any

$_ZNSt8_Rb_treeIjSt4pairIKj13AddrDataTupleESt10_Select1stIS3_ESt4lessIjESaIS3_EE11_M_put_nodeEPSt13_Rb_tree_nodeIS3_E = comdat any

$_ZNSt16allocator_traitsISaISt13_Rb_tree_nodeISt4pairIKj13AddrDataTupleEEEE7destroyIS4_EEvRS6_PT_ = comdat any

$_ZNSt8_Rb_treeIjSt4pairIKj13AddrDataTupleESt10_Select1stIS3_ESt4lessIjESaIS3_EE21_M_get_Node_allocatorEv = comdat any

$_ZNSt13_Rb_tree_nodeISt4pairIKj13AddrDataTupleEE9_M_valptrEv = comdat any

$_ZN9__gnu_cxx13new_allocatorISt13_Rb_tree_nodeISt4pairIKj13AddrDataTupleEEE7destroyIS5_EEvPT_ = comdat any

$_ZNSt4pairIKj13AddrDataTupleED2Ev = comdat any

$_ZN9__gnu_cxx16__aligned_membufISt4pairIKj13AddrDataTupleEE6_M_ptrEv = comdat any

$_ZN9__gnu_cxx16__aligned_membufISt4pairIKj13AddrDataTupleEE7_M_addrEv = comdat any

$_ZNSt16allocator_traitsISaISt13_Rb_tree_nodeISt4pairIKj13AddrDataTupleEEEE10deallocateERS6_PS5_j = comdat any

$_ZN9__gnu_cxx13new_allocatorISt13_Rb_tree_nodeISt4pairIKj13AddrDataTupleEEE10deallocateEPS6_j = comdat any

$_ZNSaISt13_Rb_tree_nodeISt4pairIKj13AddrDataTupleEEED2Ev = comdat any

$_ZN9__gnu_cxx13new_allocatorISt13_Rb_tree_nodeISt4pairIKj13AddrDataTupleEEED2Ev = comdat any

$_ZNSt8_Rb_treeINSt7__cxx1112basic_stringIcSt11char_traitsIcESaIcEEESt4pairIKS5_20AddrDataTupleMorpherESt10_Select1stIS9_ESt4lessIS5_ESaIS9_EEC2Ev = comdat any

$_ZNSt8_Rb_treeINSt7__cxx1112basic_stringIcSt11char_traitsIcESaIcEEESt4pairIKS5_20AddrDataTupleMorpherESt10_Select1stIS9_ESt4lessIS5_ESaIS9_EE13_Rb_tree_implISD_Lb1EEC2Ev = comdat any

$_ZNSaISt13_Rb_tree_nodeISt4pairIKNSt7__cxx1112basic_stringIcSt11char_traitsIcESaIcEEE20AddrDataTupleMorpherEEEC2Ev = comdat any

$_ZN9__gnu_cxx13new_allocatorISt13_Rb_tree_nodeISt4pairIKNSt7__cxx1112basic_stringIcSt11char_traitsIcESaIcEEE20AddrDataTupleMorpherEEEC2Ev = comdat any

$_ZNSt8_Rb_treeINSt7__cxx1112basic_stringIcSt11char_traitsIcESaIcEEESt4pairIKS5_20AddrDataTupleMorpherESt10_Select1stIS9_ESt4lessIS5_ESaIS9_EED2Ev = comdat any

$_ZNSt8_Rb_treeINSt7__cxx1112basic_stringIcSt11char_traitsIcESaIcEEESt4pairIKS5_20AddrDataTupleMorpherESt10_Select1stIS9_ESt4lessIS5_ESaIS9_EE8_M_eraseEPSt13_Rb_tree_nodeIS9_E = comdat any

$_ZNSt8_Rb_treeINSt7__cxx1112basic_stringIcSt11char_traitsIcESaIcEEESt4pairIKS5_20AddrDataTupleMorpherESt10_Select1stIS9_ESt4lessIS5_ESaIS9_EE8_M_beginEv = comdat any

$_ZNSt8_Rb_treeINSt7__cxx1112basic_stringIcSt11char_traitsIcESaIcEEESt4pairIKS5_20AddrDataTupleMorpherESt10_Select1stIS9_ESt4lessIS5_ESaIS9_EE13_Rb_tree_implISD_Lb1EED2Ev = comdat any

$_ZNSt8_Rb_treeINSt7__cxx1112basic_stringIcSt11char_traitsIcESaIcEEESt4pairIKS5_20AddrDataTupleMorpherESt10_Select1stIS9_ESt4lessIS5_ESaIS9_EE8_S_rightEPSt18_Rb_tree_node_base = comdat any

$_ZNSt8_Rb_treeINSt7__cxx1112basic_stringIcSt11char_traitsIcESaIcEEESt4pairIKS5_20AddrDataTupleMorpherESt10_Select1stIS9_ESt4lessIS5_ESaIS9_EE7_S_leftEPSt18_Rb_tree_node_base = comdat any

$_ZNSt8_Rb_treeINSt7__cxx1112basic_stringIcSt11char_traitsIcESaIcEEESt4pairIKS5_20AddrDataTupleMorpherESt10_Select1stIS9_ESt4lessIS5_ESaIS9_EE12_M_drop_nodeEPSt13_Rb_tree_nodeIS9_E = comdat any

$_ZNSt8_Rb_treeINSt7__cxx1112basic_stringIcSt11char_traitsIcESaIcEEESt4pairIKS5_20AddrDataTupleMorpherESt10_Select1stIS9_ESt4lessIS5_ESaIS9_EE15_M_destroy_nodeEPSt13_Rb_tree_nodeIS9_E = comdat any

$_ZNSt8_Rb_treeINSt7__cxx1112basic_stringIcSt11char_traitsIcESaIcEEESt4pairIKS5_20AddrDataTupleMorpherESt10_Select1stIS9_ESt4lessIS5_ESaIS9_EE11_M_put_nodeEPSt13_Rb_tree_nodeIS9_E = comdat any

$_ZNSt16allocator_traitsISaISt13_Rb_tree_nodeISt4pairIKNSt7__cxx1112basic_stringIcSt11char_traitsIcESaIcEEE20AddrDataTupleMorpherEEEE7destroyISA_EEvRSC_PT_ = comdat any

$_ZNSt8_Rb_treeINSt7__cxx1112basic_stringIcSt11char_traitsIcESaIcEEESt4pairIKS5_20AddrDataTupleMorpherESt10_Select1stIS9_ESt4lessIS5_ESaIS9_EE21_M_get_Node_allocatorEv = comdat any

$_ZNSt13_Rb_tree_nodeISt4pairIKNSt7__cxx1112basic_stringIcSt11char_traitsIcESaIcEEE20AddrDataTupleMorpherEE9_M_valptrEv = comdat any

$_ZN9__gnu_cxx13new_allocatorISt13_Rb_tree_nodeISt4pairIKNSt7__cxx1112basic_stringIcSt11char_traitsIcESaIcEEE20AddrDataTupleMorpherEEE7destroyISB_EEvPT_ = comdat any

$_ZNSt4pairIKNSt7__cxx1112basic_stringIcSt11char_traitsIcESaIcEEE20AddrDataTupleMorpherED2Ev = comdat any

$_ZN9__gnu_cxx16__aligned_membufISt4pairIKNSt7__cxx1112basic_stringIcSt11char_traitsIcESaIcEEE20AddrDataTupleMorpherEE6_M_ptrEv = comdat any

$_ZN9__gnu_cxx16__aligned_membufISt4pairIKNSt7__cxx1112basic_stringIcSt11char_traitsIcESaIcEEE20AddrDataTupleMorpherEE7_M_addrEv = comdat any

$_ZNSt16allocator_traitsISaISt13_Rb_tree_nodeISt4pairIKNSt7__cxx1112basic_stringIcSt11char_traitsIcESaIcEEE20AddrDataTupleMorpherEEEE10deallocateERSC_PSB_j = comdat any

$_ZN9__gnu_cxx13new_allocatorISt13_Rb_tree_nodeISt4pairIKNSt7__cxx1112basic_stringIcSt11char_traitsIcESaIcEEE20AddrDataTupleMorpherEEE10deallocateEPSC_j = comdat any

$_ZNSaISt13_Rb_tree_nodeISt4pairIKNSt7__cxx1112basic_stringIcSt11char_traitsIcESaIcEEE20AddrDataTupleMorpherEEED2Ev = comdat any

$_ZN9__gnu_cxx13new_allocatorISt13_Rb_tree_nodeISt4pairIKNSt7__cxx1112basic_stringIcSt11char_traitsIcESaIcEEE20AddrDataTupleMorpherEEED2Ev = comdat any

$_ZNSt6vectorIhSaIhEEC2ERKS1_ = comdat any

$_ZN9__gnu_cxx14__alloc_traitsISaIhEhE17_S_select_on_copyERKS1_ = comdat any

$_ZNKSt12_Vector_baseIhSaIhEE19_M_get_Tp_allocatorEv = comdat any

$_ZNSt12_Vector_baseIhSaIhEEC2EjRKS0_ = comdat any

$_ZNSaIhED2Ev = comdat any

$_ZSt22__uninitialized_copy_aIN9__gnu_cxx17__normal_iteratorIPKhSt6vectorIhSaIhEEEEPhhET0_T_SA_S9_RSaIT1_E = comdat any

$_ZNKSt6vectorIhSaIhEE5beginEv = comdat any

$_ZNKSt6vectorIhSaIhEE3endEv = comdat any

$_ZNSt16allocator_traitsISaIhEE37select_on_container_copy_constructionERKS0_ = comdat any

$_ZNSaIhEC2ERKS_ = comdat any

$_ZN9__gnu_cxx13new_allocatorIhEC2ERKS1_ = comdat any

$_ZNSt12_Vector_baseIhSaIhEE12_Vector_implC2ERKS0_ = comdat any

$_ZNSt12_Vector_baseIhSaIhEE17_M_create_storageEj = comdat any

$_ZNSt12_Vector_baseIhSaIhEE17_Vector_impl_dataC2Ev = comdat any

$_ZNSt12_Vector_baseIhSaIhEE11_M_allocateEj = comdat any

$_ZNSt16allocator_traitsISaIhEE8allocateERS0_j = comdat any

$_ZN9__gnu_cxx13new_allocatorIhE8allocateEjPKv = comdat any

$_ZNK9__gnu_cxx13new_allocatorIhE8max_sizeEv = comdat any

$_ZSt18uninitialized_copyIN9__gnu_cxx17__normal_iteratorIPKhSt6vectorIhSaIhEEEEPhET0_T_SA_S9_ = comdat any

$_ZNSt20__uninitialized_copyILb1EE13__uninit_copyIN9__gnu_cxx17__normal_iteratorIPKhSt6vectorIhSaIhEEEEPhEET0_T_SC_SB_ = comdat any

$_ZSt4copyIN9__gnu_cxx17__normal_iteratorIPKhSt6vectorIhSaIhEEEEPhET0_T_SA_S9_ = comdat any

$_ZSt14__copy_move_a2ILb0EN9__gnu_cxx17__normal_iteratorIPKhSt6vectorIhSaIhEEEEPhET1_T0_SA_S9_ = comdat any

$_ZSt12__miter_baseIN9__gnu_cxx17__normal_iteratorIPKhSt6vectorIhSaIhEEEEET_S8_ = comdat any

$_ZSt12__niter_wrapIPhET_RKS1_S1_ = comdat any

$_ZSt13__copy_move_aILb0EPKhPhET1_T0_S4_S3_ = comdat any

$_ZSt12__niter_baseIPKhSt6vectorIhSaIhEEET_N9__gnu_cxx17__normal_iteratorIS5_T0_EE = comdat any

$_ZSt12__niter_baseIPhET_S1_ = comdat any

$_ZNSt11__copy_moveILb0ELb1ESt26random_access_iterator_tagE8__copy_mIhEEPT_PKS3_S6_S4_ = comdat any

$_ZNK9__gnu_cxx17__normal_iteratorIPKhSt6vectorIhSaIhEEE4baseEv = comdat any

$_ZN9__gnu_cxx17__normal_iteratorIPKhSt6vectorIhSaIhEEEC2ERKS2_ = comdat any

$_ZNSt3setINSt7__cxx1112basic_stringIcSt11char_traitsIcESaIcEEESt4lessIS5_ESaIS5_EEC2ERKS9_ = comdat any

$_ZNSt8_Rb_treeINSt7__cxx1112basic_stringIcSt11char_traitsIcESaIcEEES5_St9_IdentityIS5_ESt4lessIS5_ESaIS5_EEC2ERKSB_ = comdat any

$_ZNSt8_Rb_treeINSt7__cxx1112basic_stringIcSt11char_traitsIcESaIcEEES5_St9_IdentityIS5_ESt4lessIS5_ESaIS5_EE13_Rb_tree_implIS9_Lb1EEC2ERKSD_ = comdat any

$_ZNKSt8_Rb_treeINSt7__cxx1112basic_stringIcSt11char_traitsIcESaIcEEES5_St9_IdentityIS5_ESt4lessIS5_ESaIS5_EE7_M_rootEv = comdat any

$_ZNSt8_Rb_treeINSt7__cxx1112basic_stringIcSt11char_traitsIcESaIcEEES5_St9_IdentityIS5_ESt4lessIS5_ESaIS5_EE7_M_copyERKSB_ = comdat any

$_ZNSt8_Rb_treeINSt7__cxx1112basic_stringIcSt11char_traitsIcESaIcEEES5_St9_IdentityIS5_ESt4lessIS5_ESaIS5_EE7_M_rootEv = comdat any

$_ZN9__gnu_cxx14__alloc_traitsISaISt13_Rb_tree_nodeINSt7__cxx1112basic_stringIcSt11char_traitsIcESaIcEEEEES8_E17_S_select_on_copyERKS9_ = comdat any

$_ZNSaISt13_Rb_tree_nodeINSt7__cxx1112basic_stringIcSt11char_traitsIcESaIcEEEEED2Ev = comdat any

$_ZNSt20_Rb_tree_key_compareISt4lessINSt7__cxx1112basic_stringIcSt11char_traitsIcESaIcEEEEEC2ERKS7_ = comdat any

$_ZNSt16allocator_traitsISaISt13_Rb_tree_nodeINSt7__cxx1112basic_stringIcSt11char_traitsIcESaIcEEEEEE37select_on_container_copy_constructionERKS8_ = comdat any

$_ZNSaISt13_Rb_tree_nodeINSt7__cxx1112basic_stringIcSt11char_traitsIcESaIcEEEEEC2ERKS7_ = comdat any

$_ZN9__gnu_cxx13new_allocatorISt13_Rb_tree_nodeINSt7__cxx1112basic_stringIcSt11char_traitsIcESaIcEEEEEC2ERKS9_ = comdat any

$_ZNSt8_Rb_treeINSt7__cxx1112basic_stringIcSt11char_traitsIcESaIcEEES5_St9_IdentityIS5_ESt4lessIS5_ESaIS5_EE11_Alloc_nodeC2ERSB_ = comdat any

$_ZNSt8_Rb_treeINSt7__cxx1112basic_stringIcSt11char_traitsIcESaIcEEES5_St9_IdentityIS5_ESt4lessIS5_ESaIS5_EE7_M_copyINSB_11_Alloc_nodeEEEPSt13_Rb_tree_nodeIS5_ERKSB_RT_ = comdat any

$_ZNSt8_Rb_treeINSt7__cxx1112basic_stringIcSt11char_traitsIcESaIcEEES5_St9_IdentityIS5_ESt4lessIS5_ESaIS5_EE7_M_copyINSB_11_Alloc_nodeEEEPSt13_Rb_tree_nodeIS5_EPKSF_PSt18_Rb_tree_node_baseRT_ = comdat any

$_ZNKSt8_Rb_treeINSt7__cxx1112basic_stringIcSt11char_traitsIcESaIcEEES5_St9_IdentityIS5_ESt4lessIS5_ESaIS5_EE8_M_beginEv = comdat any

$_ZNSt8_Rb_treeINSt7__cxx1112basic_stringIcSt11char_traitsIcESaIcEEES5_St9_IdentityIS5_ESt4lessIS5_ESaIS5_EE6_M_endEv = comdat any

$_ZNSt8_Rb_treeINSt7__cxx1112basic_stringIcSt11char_traitsIcESaIcEEES5_St9_IdentityIS5_ESt4lessIS5_ESaIS5_EE10_S_minimumEPSt18_Rb_tree_node_base = comdat any

$_ZNSt8_Rb_treeINSt7__cxx1112basic_stringIcSt11char_traitsIcESaIcEEES5_St9_IdentityIS5_ESt4lessIS5_ESaIS5_EE11_M_leftmostEv = comdat any

$_ZNSt8_Rb_treeINSt7__cxx1112basic_stringIcSt11char_traitsIcESaIcEEES5_St9_IdentityIS5_ESt4lessIS5_ESaIS5_EE10_S_maximumEPSt18_Rb_tree_node_base = comdat any

$_ZNSt8_Rb_treeINSt7__cxx1112basic_stringIcSt11char_traitsIcESaIcEEES5_St9_IdentityIS5_ESt4lessIS5_ESaIS5_EE12_M_rightmostEv = comdat any

$_ZNSt8_Rb_treeINSt7__cxx1112basic_stringIcSt11char_traitsIcESaIcEEES5_St9_IdentityIS5_ESt4lessIS5_ESaIS5_EE13_M_clone_nodeINSB_11_Alloc_nodeEEEPSt13_Rb_tree_nodeIS5_EPKSF_RT_ = comdat any

$_ZNSt8_Rb_treeINSt7__cxx1112basic_stringIcSt11char_traitsIcESaIcEEES5_St9_IdentityIS5_ESt4lessIS5_ESaIS5_EE8_S_rightEPKSt18_Rb_tree_node_base = comdat any

$_ZNSt8_Rb_treeINSt7__cxx1112basic_stringIcSt11char_traitsIcESaIcEEES5_St9_IdentityIS5_ESt4lessIS5_ESaIS5_EE7_S_leftEPKSt18_Rb_tree_node_base = comdat any

$_ZNKSt8_Rb_treeINSt7__cxx1112basic_stringIcSt11char_traitsIcESaIcEEES5_St9_IdentityIS5_ESt4lessIS5_ESaIS5_EE11_Alloc_nodeclIRKS5_EEPSt13_Rb_tree_nodeIS5_EOT_ = comdat any

$_ZNKSt13_Rb_tree_nodeINSt7__cxx1112basic_stringIcSt11char_traitsIcESaIcEEEE9_M_valptrEv = comdat any

$_ZNSt8_Rb_treeINSt7__cxx1112basic_stringIcSt11char_traitsIcESaIcEEES5_St9_IdentityIS5_ESt4lessIS5_ESaIS5_EE14_M_create_nodeIJRKS5_EEEPSt13_Rb_tree_nodeIS5_EDpOT_ = comdat any

$_ZNSt8_Rb_treeINSt7__cxx1112basic_stringIcSt11char_traitsIcESaIcEEES5_St9_IdentityIS5_ESt4lessIS5_ESaIS5_EE11_M_get_nodeEv = comdat any

$_ZNSt8_Rb_treeINSt7__cxx1112basic_stringIcSt11char_traitsIcESaIcEEES5_St9_IdentityIS5_ESt4lessIS5_ESaIS5_EE17_M_construct_nodeIJRKS5_EEEvPSt13_Rb_tree_nodeIS5_EDpOT_ = comdat any

$_ZNSt16allocator_traitsISaISt13_Rb_tree_nodeINSt7__cxx1112basic_stringIcSt11char_traitsIcESaIcEEEEEE8allocateERS8_j = comdat any

$_ZN9__gnu_cxx13new_allocatorISt13_Rb_tree_nodeINSt7__cxx1112basic_stringIcSt11char_traitsIcESaIcEEEEE8allocateEjPKv = comdat any

$_ZNK9__gnu_cxx13new_allocatorISt13_Rb_tree_nodeINSt7__cxx1112basic_stringIcSt11char_traitsIcESaIcEEEEE8max_sizeEv = comdat any

$_ZNSt16allocator_traitsISaISt13_Rb_tree_nodeINSt7__cxx1112basic_stringIcSt11char_traitsIcESaIcEEEEEE9constructIS6_JRKS6_EEEvRS8_PT_DpOT0_ = comdat any

$_ZN9__gnu_cxx13new_allocatorISt13_Rb_tree_nodeINSt7__cxx1112basic_stringIcSt11char_traitsIcESaIcEEEEE9constructIS7_JRKS7_EEEvPT_DpOT0_ = comdat any

$_ZNK9__gnu_cxx16__aligned_membufINSt7__cxx1112basic_stringIcSt11char_traitsIcESaIcEEEE6_M_ptrEv = comdat any

$_ZNK9__gnu_cxx16__aligned_membufINSt7__cxx1112basic_stringIcSt11char_traitsIcESaIcEEEE7_M_addrEv = comdat any

$_ZNSt18_Rb_tree_node_base10_S_minimumEPS_ = comdat any

$_ZNSt18_Rb_tree_node_base10_S_maximumEPS_ = comdat any

$_ZNSt3mapINSt7__cxx1112basic_stringIcSt11char_traitsIcESaIcEEEiSt4lessIS5_ESaISt4pairIKS5_iEEEC2ERKSC_ = comdat any

$_ZNSt8_Rb_treeINSt7__cxx1112basic_stringIcSt11char_traitsIcESaIcEEESt4pairIKS5_iESt10_Select1stIS8_ESt4lessIS5_ESaIS8_EEC2ERKSE_ = comdat any

$_ZNSt8_Rb_treeINSt7__cxx1112basic_stringIcSt11char_traitsIcESaIcEEESt4pairIKS5_iESt10_Select1stIS8_ESt4lessIS5_ESaIS8_EE13_Rb_tree_implISC_Lb1EEC2ERKSG_ = comdat any

$_ZNKSt8_Rb_treeINSt7__cxx1112basic_stringIcSt11char_traitsIcESaIcEEESt4pairIKS5_iESt10_Select1stIS8_ESt4lessIS5_ESaIS8_EE7_M_rootEv = comdat any

$_ZNSt8_Rb_treeINSt7__cxx1112basic_stringIcSt11char_traitsIcESaIcEEESt4pairIKS5_iESt10_Select1stIS8_ESt4lessIS5_ESaIS8_EE7_M_copyERKSE_ = comdat any

$_ZNSt8_Rb_treeINSt7__cxx1112basic_stringIcSt11char_traitsIcESaIcEEESt4pairIKS5_iESt10_Select1stIS8_ESt4lessIS5_ESaIS8_EE7_M_rootEv = comdat any

$_ZN9__gnu_cxx14__alloc_traitsISaISt13_Rb_tree_nodeISt4pairIKNSt7__cxx1112basic_stringIcSt11char_traitsIcESaIcEEEiEEESB_E17_S_select_on_copyERKSC_ = comdat any

$_ZNSaISt13_Rb_tree_nodeISt4pairIKNSt7__cxx1112basic_stringIcSt11char_traitsIcESaIcEEEiEEED2Ev = comdat any

$_ZNSt16allocator_traitsISaISt13_Rb_tree_nodeISt4pairIKNSt7__cxx1112basic_stringIcSt11char_traitsIcESaIcEEEiEEEE37select_on_container_copy_constructionERKSB_ = comdat any

$_ZNSaISt13_Rb_tree_nodeISt4pairIKNSt7__cxx1112basic_stringIcSt11char_traitsIcESaIcEEEiEEEC2ERKSA_ = comdat any

$_ZN9__gnu_cxx13new_allocatorISt13_Rb_tree_nodeISt4pairIKNSt7__cxx1112basic_stringIcSt11char_traitsIcESaIcEEEiEEEC2ERKSC_ = comdat any

$_ZNSt8_Rb_treeINSt7__cxx1112basic_stringIcSt11char_traitsIcESaIcEEESt4pairIKS5_iESt10_Select1stIS8_ESt4lessIS5_ESaIS8_EE11_Alloc_nodeC2ERSE_ = comdat any

$_ZNSt8_Rb_treeINSt7__cxx1112basic_stringIcSt11char_traitsIcESaIcEEESt4pairIKS5_iESt10_Select1stIS8_ESt4lessIS5_ESaIS8_EE7_M_copyINSE_11_Alloc_nodeEEEPSt13_Rb_tree_nodeIS8_ERKSE_RT_ = comdat any

$_ZNSt8_Rb_treeINSt7__cxx1112basic_stringIcSt11char_traitsIcESaIcEEESt4pairIKS5_iESt10_Select1stIS8_ESt4lessIS5_ESaIS8_EE7_M_copyINSE_11_Alloc_nodeEEEPSt13_Rb_tree_nodeIS8_EPKSI_PSt18_Rb_tree_node_baseRT_ = comdat any

$_ZNKSt8_Rb_treeINSt7__cxx1112basic_stringIcSt11char_traitsIcESaIcEEESt4pairIKS5_iESt10_Select1stIS8_ESt4lessIS5_ESaIS8_EE8_M_beginEv = comdat any

$_ZNSt8_Rb_treeINSt7__cxx1112basic_stringIcSt11char_traitsIcESaIcEEESt4pairIKS5_iESt10_Select1stIS8_ESt4lessIS5_ESaIS8_EE6_M_endEv = comdat any

$_ZNSt8_Rb_treeINSt7__cxx1112basic_stringIcSt11char_traitsIcESaIcEEESt4pairIKS5_iESt10_Select1stIS8_ESt4lessIS5_ESaIS8_EE10_S_minimumEPSt18_Rb_tree_node_base = comdat any

$_ZNSt8_Rb_treeINSt7__cxx1112basic_stringIcSt11char_traitsIcESaIcEEESt4pairIKS5_iESt10_Select1stIS8_ESt4lessIS5_ESaIS8_EE11_M_leftmostEv = comdat any

$_ZNSt8_Rb_treeINSt7__cxx1112basic_stringIcSt11char_traitsIcESaIcEEESt4pairIKS5_iESt10_Select1stIS8_ESt4lessIS5_ESaIS8_EE10_S_maximumEPSt18_Rb_tree_node_base = comdat any

$_ZNSt8_Rb_treeINSt7__cxx1112basic_stringIcSt11char_traitsIcESaIcEEESt4pairIKS5_iESt10_Select1stIS8_ESt4lessIS5_ESaIS8_EE12_M_rightmostEv = comdat any

$_ZNSt8_Rb_treeINSt7__cxx1112basic_stringIcSt11char_traitsIcESaIcEEESt4pairIKS5_iESt10_Select1stIS8_ESt4lessIS5_ESaIS8_EE13_M_clone_nodeINSE_11_Alloc_nodeEEEPSt13_Rb_tree_nodeIS8_EPKSI_RT_ = comdat any

$_ZNSt8_Rb_treeINSt7__cxx1112basic_stringIcSt11char_traitsIcESaIcEEESt4pairIKS5_iESt10_Select1stIS8_ESt4lessIS5_ESaIS8_EE8_S_rightEPKSt18_Rb_tree_node_base = comdat any

$_ZNSt8_Rb_treeINSt7__cxx1112basic_stringIcSt11char_traitsIcESaIcEEESt4pairIKS5_iESt10_Select1stIS8_ESt4lessIS5_ESaIS8_EE7_S_leftEPKSt18_Rb_tree_node_base = comdat any

$_ZNKSt8_Rb_treeINSt7__cxx1112basic_stringIcSt11char_traitsIcESaIcEEESt4pairIKS5_iESt10_Select1stIS8_ESt4lessIS5_ESaIS8_EE11_Alloc_nodeclIRKS8_EEPSt13_Rb_tree_nodeIS8_EOT_ = comdat any

$_ZNKSt13_Rb_tree_nodeISt4pairIKNSt7__cxx1112basic_stringIcSt11char_traitsIcESaIcEEEiEE9_M_valptrEv = comdat any

$_ZNSt8_Rb_treeINSt7__cxx1112basic_stringIcSt11char_traitsIcESaIcEEESt4pairIKS5_iESt10_Select1stIS8_ESt4lessIS5_ESaIS8_EE14_M_create_nodeIJRKS8_EEEPSt13_Rb_tree_nodeIS8_EDpOT_ = comdat any

$_ZNSt8_Rb_treeINSt7__cxx1112basic_stringIcSt11char_traitsIcESaIcEEESt4pairIKS5_iESt10_Select1stIS8_ESt4lessIS5_ESaIS8_EE11_M_get_nodeEv = comdat any

$_ZNSt8_Rb_treeINSt7__cxx1112basic_stringIcSt11char_traitsIcESaIcEEESt4pairIKS5_iESt10_Select1stIS8_ESt4lessIS5_ESaIS8_EE17_M_construct_nodeIJRKS8_EEEvPSt13_Rb_tree_nodeIS8_EDpOT_ = comdat any

$_ZNSt16allocator_traitsISaISt13_Rb_tree_nodeISt4pairIKNSt7__cxx1112basic_stringIcSt11char_traitsIcESaIcEEEiEEEE8allocateERSB_j = comdat any

$_ZN9__gnu_cxx13new_allocatorISt13_Rb_tree_nodeISt4pairIKNSt7__cxx1112basic_stringIcSt11char_traitsIcESaIcEEEiEEE8allocateEjPKv = comdat any

$_ZNK9__gnu_cxx13new_allocatorISt13_Rb_tree_nodeISt4pairIKNSt7__cxx1112basic_stringIcSt11char_traitsIcESaIcEEEiEEE8max_sizeEv = comdat any

$_ZNSt16allocator_traitsISaISt13_Rb_tree_nodeISt4pairIKNSt7__cxx1112basic_stringIcSt11char_traitsIcESaIcEEEiEEEE9constructIS9_JRKS9_EEEvRSB_PT_DpOT0_ = comdat any

$_ZN9__gnu_cxx13new_allocatorISt13_Rb_tree_nodeISt4pairIKNSt7__cxx1112basic_stringIcSt11char_traitsIcESaIcEEEiEEE9constructISA_JRKSA_EEEvPT_DpOT0_ = comdat any

$_ZNSt4pairIKNSt7__cxx1112basic_stringIcSt11char_traitsIcESaIcEEEiEC2ERKS7_ = comdat any

$_ZNK9__gnu_cxx16__aligned_membufISt4pairIKNSt7__cxx1112basic_stringIcSt11char_traitsIcESaIcEEEiEE6_M_ptrEv = comdat any

$_ZNK9__gnu_cxx16__aligned_membufISt4pairIKNSt7__cxx1112basic_stringIcSt11char_traitsIcESaIcEEEiEE7_M_addrEv = comdat any

$_ZNSt6vectorINSt7__cxx1112basic_stringIcSt11char_traitsIcESaIcEEESaIS5_EEC2ERKS7_ = comdat any

$_ZNKSt6vectorINSt7__cxx1112basic_stringIcSt11char_traitsIcESaIcEEESaIS5_EE4sizeEv = comdat any

$_ZN9__gnu_cxx14__alloc_traitsISaINSt7__cxx1112basic_stringIcSt11char_traitsIcESaIcEEEES6_E17_S_select_on_copyERKS7_ = comdat any

$_ZNKSt12_Vector_baseINSt7__cxx1112basic_stringIcSt11char_traitsIcESaIcEEESaIS5_EE19_M_get_Tp_allocatorEv = comdat any

$_ZNSt12_Vector_baseINSt7__cxx1112basic_stringIcSt11char_traitsIcESaIcEEESaIS5_EEC2EjRKS6_ = comdat any

$_ZNSaINSt7__cxx1112basic_stringIcSt11char_traitsIcESaIcEEEED2Ev = comdat any

$_ZSt22__uninitialized_copy_aIN9__gnu_cxx17__normal_iteratorIPKNSt7__cxx1112basic_stringIcSt11char_traitsIcESaIcEEESt6vectorIS7_SaIS7_EEEEPS7_S7_ET0_T_SG_SF_RSaIT1_E = comdat any

$_ZNKSt6vectorINSt7__cxx1112basic_stringIcSt11char_traitsIcESaIcEEESaIS5_EE5beginEv = comdat any

$_ZNKSt6vectorINSt7__cxx1112basic_stringIcSt11char_traitsIcESaIcEEESaIS5_EE3endEv = comdat any

$_ZNSt12_Vector_baseINSt7__cxx1112basic_stringIcSt11char_traitsIcESaIcEEESaIS5_EE19_M_get_Tp_allocatorEv = comdat any

$_ZNSt12_Vector_baseINSt7__cxx1112basic_stringIcSt11char_traitsIcESaIcEEESaIS5_EED2Ev = comdat any

$_ZNSt16allocator_traitsISaINSt7__cxx1112basic_stringIcSt11char_traitsIcESaIcEEEEE37select_on_container_copy_constructionERKS6_ = comdat any

$_ZNSaINSt7__cxx1112basic_stringIcSt11char_traitsIcESaIcEEEEC2ERKS5_ = comdat any

$_ZN9__gnu_cxx13new_allocatorINSt7__cxx1112basic_stringIcSt11char_traitsIcESaIcEEEEC2ERKS7_ = comdat any

$_ZNSt12_Vector_baseINSt7__cxx1112basic_stringIcSt11char_traitsIcESaIcEEESaIS5_EE12_Vector_implC2ERKS6_ = comdat any

$_ZNSt12_Vector_baseINSt7__cxx1112basic_stringIcSt11char_traitsIcESaIcEEESaIS5_EE17_M_create_storageEj = comdat any

$_ZNSt12_Vector_baseINSt7__cxx1112basic_stringIcSt11char_traitsIcESaIcEEESaIS5_EE12_Vector_implD2Ev = comdat any

$_ZNSt12_Vector_baseINSt7__cxx1112basic_stringIcSt11char_traitsIcESaIcEEESaIS5_EE11_M_allocateEj = comdat any

$_ZNSt16allocator_traitsISaINSt7__cxx1112basic_stringIcSt11char_traitsIcESaIcEEEEE8allocateERS6_j = comdat any

$_ZN9__gnu_cxx13new_allocatorINSt7__cxx1112basic_stringIcSt11char_traitsIcESaIcEEEE8allocateEjPKv = comdat any

$_ZNK9__gnu_cxx13new_allocatorINSt7__cxx1112basic_stringIcSt11char_traitsIcESaIcEEEE8max_sizeEv = comdat any

$_ZN9__gnu_cxx13new_allocatorINSt7__cxx1112basic_stringIcSt11char_traitsIcESaIcEEEED2Ev = comdat any

$_ZSt18uninitialized_copyIN9__gnu_cxx17__normal_iteratorIPKNSt7__cxx1112basic_stringIcSt11char_traitsIcESaIcEEESt6vectorIS7_SaIS7_EEEEPS7_ET0_T_SG_SF_ = comdat any

$_ZNSt20__uninitialized_copyILb0EE13__uninit_copyIN9__gnu_cxx17__normal_iteratorIPKNSt7__cxx1112basic_stringIcSt11char_traitsIcESaIcEEESt6vectorIS9_SaIS9_EEEEPS9_EET0_T_SI_SH_ = comdat any

$_ZN9__gnu_cxxneIPKNSt7__cxx1112basic_stringIcSt11char_traitsIcESaIcEEESt6vectorIS6_SaIS6_EEEEbRKNS_17__normal_iteratorIT_T0_EESH_ = comdat any

$_ZSt10_ConstructINSt7__cxx1112basic_stringIcSt11char_traitsIcESaIcEEEJRKS5_EEvPT_DpOT0_ = comdat any

$_ZNK9__gnu_cxx17__normal_iteratorIPKNSt7__cxx1112basic_stringIcSt11char_traitsIcESaIcEEESt6vectorIS6_SaIS6_EEEdeEv = comdat any

$_ZN9__gnu_cxx17__normal_iteratorIPKNSt7__cxx1112basic_stringIcSt11char_traitsIcESaIcEEESt6vectorIS6_SaIS6_EEEppEv = comdat any

$_ZSt8_DestroyIPNSt7__cxx1112basic_stringIcSt11char_traitsIcESaIcEEEEvT_S7_ = comdat any

$_ZNK9__gnu_cxx17__normal_iteratorIPKNSt7__cxx1112basic_stringIcSt11char_traitsIcESaIcEEESt6vectorIS6_SaIS6_EEE4baseEv = comdat any

$_ZNSt12_Destroy_auxILb0EE9__destroyIPNSt7__cxx1112basic_stringIcSt11char_traitsIcESaIcEEEEEvT_S9_ = comdat any

$_ZSt8_DestroyINSt7__cxx1112basic_stringIcSt11char_traitsIcESaIcEEEEvPT_ = comdat any

$_ZN9__gnu_cxx17__normal_iteratorIPKNSt7__cxx1112basic_stringIcSt11char_traitsIcESaIcEEESt6vectorIS6_SaIS6_EEEC2ERKS8_ = comdat any

$_ZNSt12_Vector_baseINSt7__cxx1112basic_stringIcSt11char_traitsIcESaIcEEESaIS5_EE13_M_deallocateEPS5_j = comdat any

$_ZNSt16allocator_traitsISaINSt7__cxx1112basic_stringIcSt11char_traitsIcESaIcEEEEE10deallocateERS6_PS5_j = comdat any

$_ZN9__gnu_cxx13new_allocatorINSt7__cxx1112basic_stringIcSt11char_traitsIcESaIcEEEE10deallocateEPS6_j = comdat any

$_ZSt4findIN9__gnu_cxx17__normal_iteratorIPNSt7__cxx1112basic_stringIcSt11char_traitsIcESaIcEEESt6vectorIS7_SaIS7_EEEES7_ET_SD_SD_RKT0_ = comdat any

$_ZNSt6vectorINSt7__cxx1112basic_stringIcSt11char_traitsIcESaIcEEESaIS5_EE9push_backERKS5_ = comdat any

$_ZSt9__find_ifIN9__gnu_cxx17__normal_iteratorIPNSt7__cxx1112basic_stringIcSt11char_traitsIcESaIcEEESt6vectorIS7_SaIS7_EEEENS0_5__ops16_Iter_equals_valIKS7_EEET_SH_SH_T0_ = comdat any

$_ZN9__gnu_cxx5__ops17__iter_equals_valIKNSt7__cxx1112basic_stringIcSt11char_traitsIcESaIcEEEEENS0_16_Iter_equals_valIT_EERSA_ = comdat any

$_ZSt9__find_ifIN9__gnu_cxx17__normal_iteratorIPNSt7__cxx1112basic_stringIcSt11char_traitsIcESaIcEEESt6vectorIS7_SaIS7_EEEENS0_5__ops16_Iter_equals_valIKS7_EEET_SH_SH_T0_St26random_access_iterator_tag = comdat any

$_ZSt19__iterator_categoryIN9__gnu_cxx17__normal_iteratorIPNSt7__cxx1112basic_stringIcSt11char_traitsIcESaIcEEESt6vectorIS7_SaIS7_EEEEENSt15iterator_traitsIT_E17iterator_categoryERKSE_ = comdat any

$_ZN9__gnu_cxxmiIPNSt7__cxx1112basic_stringIcSt11char_traitsIcESaIcEEESt6vectorIS6_SaIS6_EEEENS_17__normal_iteratorIT_T0_E15difference_typeERKSE_SH_ = comdat any

$_ZN9__gnu_cxx5__ops16_Iter_equals_valIKNSt7__cxx1112basic_stringIcSt11char_traitsIcESaIcEEEEclINS_17__normal_iteratorIPS7_St6vectorIS7_SaIS7_EEEEEEbT_ = comdat any

$_ZNK9__gnu_cxx17__normal_iteratorIPNSt7__cxx1112basic_stringIcSt11char_traitsIcESaIcEEESt6vectorIS6_SaIS6_EEE4baseEv = comdat any

$_ZN9__gnu_cxx5__ops16_Iter_equals_valIKNSt7__cxx1112basic_stringIcSt11char_traitsIcESaIcEEEEC2ERS8_ = comdat any

$_ZNSt16allocator_traitsISaINSt7__cxx1112basic_stringIcSt11char_traitsIcESaIcEEEEE9constructIS5_JRKS5_EEEvRS6_PT_DpOT0_ = comdat any

$_ZNSt6vectorINSt7__cxx1112basic_stringIcSt11char_traitsIcESaIcEEESaIS5_EE17_M_realloc_insertIJRKS5_EEEvN9__gnu_cxx17__normal_iteratorIPS5_S7_EEDpOT_ = comdat any

$_ZN9__gnu_cxx13new_allocatorINSt7__cxx1112basic_stringIcSt11char_traitsIcESaIcEEEE9constructIS6_JRKS6_EEEvPT_DpOT0_ = comdat any

$_ZNKSt6vectorINSt7__cxx1112basic_stringIcSt11char_traitsIcESaIcEEESaIS5_EE12_M_check_lenEjPKc = comdat any

$_ZNSt6vectorINSt7__cxx1112basic_stringIcSt11char_traitsIcESaIcEEESaIS5_EE11_S_relocateEPS5_S8_S8_RS6_ = comdat any

$_ZNSt16allocator_traitsISaINSt7__cxx1112basic_stringIcSt11char_traitsIcESaIcEEEEE7destroyIS5_EEvRS6_PT_ = comdat any

$_ZSt8_DestroyIPNSt7__cxx1112basic_stringIcSt11char_traitsIcESaIcEEES5_EvT_S7_RSaIT0_E = comdat any

$_ZNKSt6vectorINSt7__cxx1112basic_stringIcSt11char_traitsIcESaIcEEESaIS5_EE8max_sizeEv = comdat any

$_ZSt3maxIjERKT_S2_S2_ = comdat any

$_ZNSt6vectorINSt7__cxx1112basic_stringIcSt11char_traitsIcESaIcEEESaIS5_EE11_S_max_sizeERKS6_ = comdat any

$_ZNSt16allocator_traitsISaINSt7__cxx1112basic_stringIcSt11char_traitsIcESaIcEEEEE8max_sizeERKS6_ = comdat any

$_ZSt3minIjERKT_S2_S2_ = comdat any

$_ZNSt6vectorINSt7__cxx1112basic_stringIcSt11char_traitsIcESaIcEEESaIS5_EE14_S_do_relocateEPS5_S8_S8_RS6_St17integral_constantIbLb1EE = comdat any

$_ZSt12__relocate_aIPNSt7__cxx1112basic_stringIcSt11char_traitsIcESaIcEEES6_SaIS5_EET0_T_S9_S8_RT1_ = comdat any

$_ZSt14__relocate_a_1IPNSt7__cxx1112basic_stringIcSt11char_traitsIcESaIcEEES6_SaIS5_EET0_T_S9_S8_RT1_ = comdat any

$_ZSt12__niter_baseIPNSt7__cxx1112basic_stringIcSt11char_traitsIcESaIcEEEET_S7_ = comdat any

$_ZSt19__relocate_object_aINSt7__cxx1112basic_stringIcSt11char_traitsIcESaIcEEES5_SaIS5_EEvPT_PT0_RT1_ = comdat any

$_ZNSt16allocator_traitsISaINSt7__cxx1112basic_stringIcSt11char_traitsIcESaIcEEEEE9constructIS5_JS5_EEEvRS6_PT_DpOT0_ = comdat any

$_ZN9__gnu_cxx13new_allocatorINSt7__cxx1112basic_stringIcSt11char_traitsIcESaIcEEEE9constructIS6_JS6_EEEvPT_DpOT0_ = comdat any

$_ZN9__gnu_cxx13new_allocatorINSt7__cxx1112basic_stringIcSt11char_traitsIcESaIcEEEE7destroyIS6_EEvPT_ = comdat any

$_ZNSt6vectorINSt7__cxx1112basic_stringIcSt11char_traitsIcESaIcEEESaIS5_EEC2EOS7_ = comdat any

$_ZNSt12_Vector_baseINSt7__cxx1112basic_stringIcSt11char_traitsIcESaIcEEESaIS5_EEC2EOS7_ = comdat any

$_ZNSt12_Vector_baseINSt7__cxx1112basic_stringIcSt11char_traitsIcESaIcEEESaIS5_EE12_Vector_implC2EOS8_ = comdat any

$_ZNSt12_Vector_baseINSt7__cxx1112basic_stringIcSt11char_traitsIcESaIcEEESaIS5_EE17_Vector_impl_dataC2EOS8_ = comdat any

$_ZNSt6vectorINSt7__cxx1112basic_stringIcSt11char_traitsIcESaIcEEESaIS5_EEaSEOS7_ = comdat any

$_ZNSt6vectorINSt7__cxx1112basic_stringIcSt11char_traitsIcESaIcEEESaIS5_EE14_M_move_assignEOS7_St17integral_constantIbLb1EE = comdat any

$_ZNKSt12_Vector_baseINSt7__cxx1112basic_stringIcSt11char_traitsIcESaIcEEESaIS5_EE13get_allocatorEv = comdat any

$_ZNSt6vectorINSt7__cxx1112basic_stringIcSt11char_traitsIcESaIcEEESaIS5_EEC2ERKS6_ = comdat any

$_ZNSt12_Vector_baseINSt7__cxx1112basic_stringIcSt11char_traitsIcESaIcEEESaIS5_EE17_Vector_impl_data12_M_swap_dataERS8_ = comdat any

$_ZSt15__alloc_on_moveISaINSt7__cxx1112basic_stringIcSt11char_traitsIcESaIcEEEEEvRT_S8_ = comdat any

$_ZNSt12_Vector_baseINSt7__cxx1112basic_stringIcSt11char_traitsIcESaIcEEESaIS5_EEC2ERKS6_ = comdat any

$_ZNSt12_Vector_baseINSt7__cxx1112basic_stringIcSt11char_traitsIcESaIcEEESaIS5_EE17_Vector_impl_dataC2Ev = comdat any

$_ZNSt12_Vector_baseINSt7__cxx1112basic_stringIcSt11char_traitsIcESaIcEEESaIS5_EE17_Vector_impl_data12_M_copy_dataERKS8_ = comdat any

$_ZSt18__do_alloc_on_moveISaINSt7__cxx1112basic_stringIcSt11char_traitsIcESaIcEEEEEvRT_S8_St17integral_constantIbLb1EE = comdat any

$_ZNSt6vectorINSt7__cxx1112basic_stringIcSt11char_traitsIcESaIcEEESaIS5_EE5clearEv = comdat any

$_ZNSt6vectorINSt7__cxx1112basic_stringIcSt11char_traitsIcESaIcEEESaIS5_EE15_M_erase_at_endEPS5_ = comdat any

$_ZN9__gnu_cxx6__stoaImmcJiEEET0_PFT_PKT1_PPS3_DpT2_EPKcS5_PjS9_ = comdat any

$_ZZN9__gnu_cxx6__stoaImmcJiEEET0_PFT_PKT1_PPS3_DpT2_EPKcS5_PjS9_EN11_Save_errnoC2Ev = comdat any

$_ZZN9__gnu_cxx6__stoaImmcJiEEET0_PFT_PKT1_PPS3_DpT2_EPKcS5_PjS9_EN10_Range_chk6_S_chkEmSt17integral_constantIbLb0EE = comdat any

$_ZZN9__gnu_cxx6__stoaImmcJiEEET0_PFT_PKT1_PPS3_DpT2_EPKcS5_PjS9_EN11_Save_errnoD2Ev = comdat any

$_ZN9__gnu_cxx17__normal_iteratorIPNSt7__cxx1112basic_stringIcSt11char_traitsIcESaIcEEESt6vectorIS6_SaIS6_EEEC2ERKS7_ = comdat any

$_ZSt8_DestroyIP8pathInfoS0_EvT_S2_RSaIT0_E = comdat any

$_ZNSt12_Vector_baseI8pathInfoSaIS0_EE19_M_get_Tp_allocatorEv = comdat any

$_ZNSt12_Vector_baseI8pathInfoSaIS0_EED2Ev = comdat any

$_ZSt8_DestroyIP8pathInfoEvT_S2_ = comdat any

$_ZNSt12_Destroy_auxILb0EE9__destroyIP8pathInfoEEvT_S4_ = comdat any

$_ZSt8_DestroyI8pathInfoEvPT_ = comdat any

$_ZNSt12_Vector_baseI8pathInfoSaIS0_EE13_M_deallocateEPS0_j = comdat any

$_ZNSt12_Vector_baseI8pathInfoSaIS0_EE12_Vector_implD2Ev = comdat any

$_ZNSt16allocator_traitsISaI8pathInfoEE10deallocateERS1_PS0_j = comdat any

$_ZN9__gnu_cxx13new_allocatorI8pathInfoE10deallocateEPS1_j = comdat any

$_ZN9__gnu_cxx13new_allocatorI8pathInfoED2Ev = comdat any

$_ZNSt8_Rb_treeINSt7__cxx1112basic_stringIcSt11char_traitsIcESaIcEEES5_St9_IdentityIS5_ESt4lessIS5_ESaIS5_EE4findERKS5_ = comdat any

$_ZNSt23_Rb_tree_const_iteratorINSt7__cxx1112basic_stringIcSt11char_traitsIcESaIcEEEEC2ERKSt17_Rb_tree_iteratorIS5_E = comdat any

$_ZNSt8_Rb_treeINSt7__cxx1112basic_stringIcSt11char_traitsIcESaIcEEES5_St9_IdentityIS5_ESt4lessIS5_ESaIS5_EE14_M_lower_boundEPSt13_Rb_tree_nodeIS5_EPSt18_Rb_tree_node_baseRKS5_ = comdat any

$_ZSteqRKSt17_Rb_tree_iteratorINSt7__cxx1112basic_stringIcSt11char_traitsIcESaIcEEEES8_ = comdat any

$_ZNSt8_Rb_treeINSt7__cxx1112basic_stringIcSt11char_traitsIcESaIcEEES5_St9_IdentityIS5_ESt4lessIS5_ESaIS5_EE3endEv = comdat any

$_ZNKSt4lessINSt7__cxx1112basic_stringIcSt11char_traitsIcESaIcEEEEclERKS5_S8_ = comdat any

$_ZNSt8_Rb_treeINSt7__cxx1112basic_stringIcSt11char_traitsIcESaIcEEES5_St9_IdentityIS5_ESt4lessIS5_ESaIS5_EE6_S_keyEPKSt18_Rb_tree_node_base = comdat any

$_ZNSt8_Rb_treeINSt7__cxx1112basic_stringIcSt11char_traitsIcESaIcEEES5_St9_IdentityIS5_ESt4lessIS5_ESaIS5_EE6_S_keyEPKSt13_Rb_tree_nodeIS5_E = comdat any

$_ZNSt17_Rb_tree_iteratorINSt7__cxx1112basic_stringIcSt11char_traitsIcESaIcEEEEC2EPSt18_Rb_tree_node_base = comdat any

$_ZNKSt9_IdentityINSt7__cxx1112basic_stringIcSt11char_traitsIcESaIcEEEEclERKS5_ = comdat any

$_ZStltIcSt11char_traitsIcESaIcEEbRKNSt7__cxx1112basic_stringIT_T0_T1_EESA_ = comdat any

$_ZNKSt8_Rb_treeINSt7__cxx1112basic_stringIcSt11char_traitsIcESaIcEEES5_St9_IdentityIS5_ESt4lessIS5_ESaIS5_EE3endEv = comdat any

$_ZNSt23_Rb_tree_const_iteratorINSt7__cxx1112basic_stringIcSt11char_traitsIcESaIcEEEEC2EPKSt18_Rb_tree_node_base = comdat any

$_ZNSt3mapIj13AddrDataTupleSt4lessIjESaISt4pairIKjS0_EEE11lower_boundERS4_ = comdat any

$_ZSteqRKSt17_Rb_tree_iteratorISt4pairIKj13AddrDataTupleEES6_ = comdat any

$_ZNKSt3mapIj13AddrDataTupleSt4lessIjESaISt4pairIKjS0_EEE8key_compEv = comdat any

$_ZNKSt4lessIjEclERKjS2_ = comdat any

$_ZNKSt17_Rb_tree_iteratorISt4pairIKj13AddrDataTupleEEdeEv = comdat any

$_ZNSt8_Rb_treeIjSt4pairIKj13AddrDataTupleESt10_Select1stIS3_ESt4lessIjESaIS3_EE22_M_emplace_hint_uniqueIJRKSt21piecewise_construct_tSt5tupleIJOjEESE_IJEEEEESt17_Rb_tree_iteratorIS3_ESt23_Rb_tree_const_iteratorIS3_EDpOT_ = comdat any

$_ZNSt23_Rb_tree_const_iteratorISt4pairIKj13AddrDataTupleEEC2ERKSt17_Rb_tree_iteratorIS3_E = comdat any

$_ZSt16forward_as_tupleIJjEESt5tupleIJDpOT_EES3_ = comdat any

$_ZNSt8_Rb_treeIjSt4pairIKj13AddrDataTupleESt10_Select1stIS3_ESt4lessIjESaIS3_EE11lower_boundERS1_ = comdat any

$_ZNSt8_Rb_treeIjSt4pairIKj13AddrDataTupleESt10_Select1stIS3_ESt4lessIjESaIS3_EE14_M_lower_boundEPSt13_Rb_tree_nodeIS3_EPSt18_Rb_tree_node_baseRS1_ = comdat any

$_ZNSt8_Rb_treeIjSt4pairIKj13AddrDataTupleESt10_Select1stIS3_ESt4lessIjESaIS3_EE6_M_endEv = comdat any

$_ZNSt8_Rb_treeIjSt4pairIKj13AddrDataTupleESt10_Select1stIS3_ESt4lessIjESaIS3_EE6_S_keyEPKSt13_Rb_tree_nodeIS3_E = comdat any

$_ZNSt17_Rb_tree_iteratorISt4pairIKj13AddrDataTupleEEC2EPSt18_Rb_tree_node_base = comdat any

$_ZNKSt10_Select1stISt4pairIKj13AddrDataTupleEEclERKS3_ = comdat any

$_ZNKSt13_Rb_tree_nodeISt4pairIKj13AddrDataTupleEE9_M_valptrEv = comdat any

$_ZNK9__gnu_cxx16__aligned_membufISt4pairIKj13AddrDataTupleEE6_M_ptrEv = comdat any

$_ZNK9__gnu_cxx16__aligned_membufISt4pairIKj13AddrDataTupleEE7_M_addrEv = comdat any

$_ZNKSt8_Rb_treeIjSt4pairIKj13AddrDataTupleESt10_Select1stIS3_ESt4lessIjESaIS3_EE8key_compEv = comdat any

$_ZNSt8_Rb_treeIjSt4pairIKj13AddrDataTupleESt10_Select1stIS3_ESt4lessIjESaIS3_EE14_M_create_nodeIJRKSt21piecewise_construct_tSt5tupleIJOjEESE_IJEEEEEPSt13_Rb_tree_nodeIS3_EDpOT_ = comdat any

$_ZNSt8_Rb_treeIjSt4pairIKj13AddrDataTupleESt10_Select1stIS3_ESt4lessIjESaIS3_EE29_M_get_insert_hint_unique_posESt23_Rb_tree_const_iteratorIS3_ERS1_ = comdat any

$_ZNSt8_Rb_treeIjSt4pairIKj13AddrDataTupleESt10_Select1stIS3_ESt4lessIjESaIS3_EE14_M_insert_nodeEPSt18_Rb_tree_node_baseSB_PSt13_Rb_tree_nodeIS3_E = comdat any

$_ZNSt8_Rb_treeIjSt4pairIKj13AddrDataTupleESt10_Select1stIS3_ESt4lessIjESaIS3_EE11_M_get_nodeEv = comdat any

$_ZNSt8_Rb_treeIjSt4pairIKj13AddrDataTupleESt10_Select1stIS3_ESt4lessIjESaIS3_EE17_M_construct_nodeIJRKSt21piecewise_construct_tSt5tupleIJOjEESE_IJEEEEEvPSt13_Rb_tree_nodeIS3_EDpOT_ = comdat any

$_ZNSt16allocator_traitsISaISt13_Rb_tree_nodeISt4pairIKj13AddrDataTupleEEEE8allocateERS6_j = comdat any

$_ZN9__gnu_cxx13new_allocatorISt13_Rb_tree_nodeISt4pairIKj13AddrDataTupleEEE8allocateEjPKv = comdat any

$_ZNK9__gnu_cxx13new_allocatorISt13_Rb_tree_nodeISt4pairIKj13AddrDataTupleEEE8max_sizeEv = comdat any

$_ZNSt16allocator_traitsISaISt13_Rb_tree_nodeISt4pairIKj13AddrDataTupleEEEE9constructIS4_JRKSt21piecewise_construct_tSt5tupleIJOjEESC_IJEEEEEvRS6_PT_DpOT0_ = comdat any

$_ZN9__gnu_cxx13new_allocatorISt13_Rb_tree_nodeISt4pairIKj13AddrDataTupleEEE9constructIS5_JRKSt21piecewise_construct_tSt5tupleIJOjEESC_IJEEEEEvPT_DpOT0_ = comdat any

$_ZNSt5tupleIJOjEEC2EOS1_ = comdat any

$_ZNSt4pairIKj13AddrDataTupleEC2IJOjEJEEESt21piecewise_construct_tSt5tupleIJDpT_EES6_IJDpT0_EE = comdat any

$_ZNSt11_Tuple_implILj0EJOjEEC2EOS1_ = comdat any

$_ZNSt11_Tuple_implILj0EJOjEE7_M_headERS1_ = comdat any

$_ZNSt10_Head_baseILj0EOjLb0EEC2IjEEOT_ = comdat any

$_ZNSt10_Head_baseILj0EOjLb0EE7_M_headERS1_ = comdat any

$_ZNSt4pairIKj13AddrDataTupleEC2IJOjEJLj0EEJEJEEERSt5tupleIJDpT_EERS5_IJDpT1_EESt12_Index_tupleIJXspT0_EEESE_IJXspT2_EEE = comdat any

$_ZSt3getILj0EJOjEERNSt13tuple_elementIXT_ESt5tupleIJDpT0_EEE4typeERS5_ = comdat any

$_ZSt12__get_helperILj0EOjJEERT0_RSt11_Tuple_implIXT_EJS1_DpT1_EE = comdat any

$_ZNKSt23_Rb_tree_const_iteratorISt4pairIKj13AddrDataTupleEE13_M_const_castEv = comdat any

$_ZNKSt8_Rb_treeIjSt4pairIKj13AddrDataTupleESt10_Select1stIS3_ESt4lessIjESaIS3_EE4sizeEv = comdat any

$_ZNSt8_Rb_treeIjSt4pairIKj13AddrDataTupleESt10_Select1stIS3_ESt4lessIjESaIS3_EE6_S_keyEPKSt18_Rb_tree_node_base = comdat any

$_ZNSt8_Rb_treeIjSt4pairIKj13AddrDataTupleESt10_Select1stIS3_ESt4lessIjESaIS3_EE12_M_rightmostEv = comdat any

$_ZNSt4pairIPSt18_Rb_tree_node_baseS1_EC2IRS1_Lb1EEERKS1_OT_ = comdat any

$_ZNSt8_Rb_treeIjSt4pairIKj13AddrDataTupleESt10_Select1stIS3_ESt4lessIjESaIS3_EE24_M_get_insert_unique_posERS1_ = comdat any

$_ZNSt8_Rb_treeIjSt4pairIKj13AddrDataTupleESt10_Select1stIS3_ESt4lessIjESaIS3_EE11_M_leftmostEv = comdat any

$_ZNSt4pairIPSt18_Rb_tree_node_baseS1_EC2IRS1_S4_Lb1EEEOT_OT0_ = comdat any

$_ZNSt17_Rb_tree_iteratorISt4pairIKj13AddrDataTupleEEmmEv = comdat any

$_ZNSt4pairIPSt18_Rb_tree_node_baseS1_EC2IRS1_Lb1EEEOT_RKS1_ = comdat any

$_ZNSt8_Rb_treeIjSt4pairIKj13AddrDataTupleESt10_Select1stIS3_ESt4lessIjESaIS3_EE5beginEv = comdat any

$_ZNSt4pairIPSt18_Rb_tree_node_baseS1_EC2IRPSt13_Rb_tree_nodeIS_IKj13AddrDataTupleEERS1_Lb1EEEOT_OT0_ = comdat any

$_ZNSt5tupleIJOjEEC2IJjELb1EEEDpOT_ = comdat any

$_ZNSt11_Tuple_implILj0EJOjEEC2IjEEOT_ = comdat any

$_ZNSt8_Rb_treeINSt7__cxx1112basic_stringIcSt11char_traitsIcESaIcEEES5_St9_IdentityIS5_ESt4lessIS5_ESaIS5_EE16_M_insert_uniqueIRKS5_EESt4pairISt17_Rb_tree_iteratorIS5_EbEOT_ = comdat any

$_ZNSt4pairISt23_Rb_tree_const_iteratorINSt7__cxx1112basic_stringIcSt11char_traitsIcESaIcEEEEbEC2IRSt17_Rb_tree_iteratorIS6_ERbLb1EEEOT_OT0_ = comdat any

$_ZNSt8_Rb_treeINSt7__cxx1112basic_stringIcSt11char_traitsIcESaIcEEES5_St9_IdentityIS5_ESt4lessIS5_ESaIS5_EE24_M_get_insert_unique_posERKS5_ = comdat any

$_ZNSt8_Rb_treeINSt7__cxx1112basic_stringIcSt11char_traitsIcESaIcEEES5_St9_IdentityIS5_ESt4lessIS5_ESaIS5_EE10_M_insert_IRKS5_NSB_11_Alloc_nodeEEESt17_Rb_tree_iteratorIS5_EPSt18_Rb_tree_node_baseSJ_OT_RT0_ = comdat any

$_ZNSt4pairISt17_Rb_tree_iteratorINSt7__cxx1112basic_stringIcSt11char_traitsIcESaIcEEEEbEC2IS7_bLb1EEEOT_OT0_ = comdat any

$_ZNSt8_Rb_treeINSt7__cxx1112basic_stringIcSt11char_traitsIcESaIcEEES5_St9_IdentityIS5_ESt4lessIS5_ESaIS5_EE5beginEv = comdat any

$_ZNSt4pairIPSt18_Rb_tree_node_baseS1_EC2IRPSt13_Rb_tree_nodeINSt7__cxx1112basic_stringIcSt11char_traitsIcESaIcEEEERS1_Lb1EEEOT_OT0_ = comdat any

$_ZNSt17_Rb_tree_iteratorINSt7__cxx1112basic_stringIcSt11char_traitsIcESaIcEEEEmmEv = comdat any

$_ZNSt3mapINSt7__cxx1112basic_stringIcSt11char_traitsIcESaIcEEEPhSt4lessIS5_ESaISt4pairIKS5_S6_EEE11lower_boundERSA_ = comdat any

$_ZSteqRKSt17_Rb_tree_iteratorISt4pairIKNSt7__cxx1112basic_stringIcSt11char_traitsIcESaIcEEEPhEESC_ = comdat any

$_ZNSt3mapINSt7__cxx1112basic_stringIcSt11char_traitsIcESaIcEEEPhSt4lessIS5_ESaISt4pairIKS5_S6_EEE3endEv = comdat any

$_ZNKSt3mapINSt7__cxx1112basic_stringIcSt11char_traitsIcESaIcEEEPhSt4lessIS5_ESaISt4pairIKS5_S6_EEE8key_compEv = comdat any

$_ZNKSt17_Rb_tree_iteratorISt4pairIKNSt7__cxx1112basic_stringIcSt11char_traitsIcESaIcEEEPhEEdeEv = comdat any

$_ZNSt8_Rb_treeINSt7__cxx1112basic_stringIcSt11char_traitsIcESaIcEEESt4pairIKS5_PhESt10_Select1stIS9_ESt4lessIS5_ESaIS9_EE22_M_emplace_hint_uniqueIJRKSt21piecewise_construct_tSt5tupleIJRS7_EESK_IJEEEEESt17_Rb_tree_iteratorIS9_ESt23_Rb_tree_const_iteratorIS9_EDpOT_ = comdat any

$_ZNSt23_Rb_tree_const_iteratorISt4pairIKNSt7__cxx1112basic_stringIcSt11char_traitsIcESaIcEEEPhEEC2ERKSt17_Rb_tree_iteratorIS9_E = comdat any

$_ZNSt5tupleIJRKNSt7__cxx1112basic_stringIcSt11char_traitsIcESaIcEEEEEC2IvLb1EEES7_ = comdat any

$_ZNSt8_Rb_treeINSt7__cxx1112basic_stringIcSt11char_traitsIcESaIcEEESt4pairIKS5_PhESt10_Select1stIS9_ESt4lessIS5_ESaIS9_EE11lower_boundERS7_ = comdat any

$_ZNSt8_Rb_treeINSt7__cxx1112basic_stringIcSt11char_traitsIcESaIcEEESt4pairIKS5_PhESt10_Select1stIS9_ESt4lessIS5_ESaIS9_EE14_M_lower_boundEPSt13_Rb_tree_nodeIS9_EPSt18_Rb_tree_node_baseRS7_ = comdat any

$_ZNSt8_Rb_treeINSt7__cxx1112basic_stringIcSt11char_traitsIcESaIcEEESt4pairIKS5_PhESt10_Select1stIS9_ESt4lessIS5_ESaIS9_EE6_M_endEv = comdat any

$_ZNSt8_Rb_treeINSt7__cxx1112basic_stringIcSt11char_traitsIcESaIcEEESt4pairIKS5_PhESt10_Select1stIS9_ESt4lessIS5_ESaIS9_EE6_S_keyEPKSt13_Rb_tree_nodeIS9_E = comdat any

$_ZNSt17_Rb_tree_iteratorISt4pairIKNSt7__cxx1112basic_stringIcSt11char_traitsIcESaIcEEEPhEEC2EPSt18_Rb_tree_node_base = comdat any

$_ZNKSt10_Select1stISt4pairIKNSt7__cxx1112basic_stringIcSt11char_traitsIcESaIcEEEPhEEclERKS9_ = comdat any

$_ZNKSt13_Rb_tree_nodeISt4pairIKNSt7__cxx1112basic_stringIcSt11char_traitsIcESaIcEEEPhEE9_M_valptrEv = comdat any

$_ZNK9__gnu_cxx16__aligned_membufISt4pairIKNSt7__cxx1112basic_stringIcSt11char_traitsIcESaIcEEEPhEE6_M_ptrEv = comdat any

$_ZNK9__gnu_cxx16__aligned_membufISt4pairIKNSt7__cxx1112basic_stringIcSt11char_traitsIcESaIcEEEPhEE7_M_addrEv = comdat any

$_ZNSt8_Rb_treeINSt7__cxx1112basic_stringIcSt11char_traitsIcESaIcEEESt4pairIKS5_PhESt10_Select1stIS9_ESt4lessIS5_ESaIS9_EE3endEv = comdat any

$_ZNKSt8_Rb_treeINSt7__cxx1112basic_stringIcSt11char_traitsIcESaIcEEESt4pairIKS5_PhESt10_Select1stIS9_ESt4lessIS5_ESaIS9_EE8key_compEv = comdat any

$_ZNSt8_Rb_treeINSt7__cxx1112basic_stringIcSt11char_traitsIcESaIcEEESt4pairIKS5_PhESt10_Select1stIS9_ESt4lessIS5_ESaIS9_EE14_M_create_nodeIJRKSt21piecewise_construct_tSt5tupleIJRS7_EESK_IJEEEEEPSt13_Rb_tree_nodeIS9_EDpOT_ = comdat any

$_ZNSt8_Rb_treeINSt7__cxx1112basic_stringIcSt11char_traitsIcESaIcEEESt4pairIKS5_PhESt10_Select1stIS9_ESt4lessIS5_ESaIS9_EE29_M_get_insert_hint_unique_posESt23_Rb_tree_const_iteratorIS9_ERS7_ = comdat any

$_ZNSt8_Rb_treeINSt7__cxx1112basic_stringIcSt11char_traitsIcESaIcEEESt4pairIKS5_PhESt10_Select1stIS9_ESt4lessIS5_ESaIS9_EE14_M_insert_nodeEPSt18_Rb_tree_node_baseSH_PSt13_Rb_tree_nodeIS9_E = comdat any

$_ZNSt8_Rb_treeINSt7__cxx1112basic_stringIcSt11char_traitsIcESaIcEEESt4pairIKS5_PhESt10_Select1stIS9_ESt4lessIS5_ESaIS9_EE11_M_get_nodeEv = comdat any

$_ZNSt8_Rb_treeINSt7__cxx1112basic_stringIcSt11char_traitsIcESaIcEEESt4pairIKS5_PhESt10_Select1stIS9_ESt4lessIS5_ESaIS9_EE17_M_construct_nodeIJRKSt21piecewise_construct_tSt5tupleIJRS7_EESK_IJEEEEEvPSt13_Rb_tree_nodeIS9_EDpOT_ = comdat any

$_ZNSt16allocator_traitsISaISt13_Rb_tree_nodeISt4pairIKNSt7__cxx1112basic_stringIcSt11char_traitsIcESaIcEEEPhEEEE8allocateERSC_j = comdat any

$_ZN9__gnu_cxx13new_allocatorISt13_Rb_tree_nodeISt4pairIKNSt7__cxx1112basic_stringIcSt11char_traitsIcESaIcEEEPhEEE8allocateEjPKv = comdat any

$_ZNK9__gnu_cxx13new_allocatorISt13_Rb_tree_nodeISt4pairIKNSt7__cxx1112basic_stringIcSt11char_traitsIcESaIcEEEPhEEE8max_sizeEv = comdat any

$_ZNSt16allocator_traitsISaISt13_Rb_tree_nodeISt4pairIKNSt7__cxx1112basic_stringIcSt11char_traitsIcESaIcEEEPhEEEE9constructISA_JRKSt21piecewise_construct_tSt5tupleIJRS8_EESI_IJEEEEEvRSC_PT_DpOT0_ = comdat any

$_ZN9__gnu_cxx13new_allocatorISt13_Rb_tree_nodeISt4pairIKNSt7__cxx1112basic_stringIcSt11char_traitsIcESaIcEEEPhEEE9constructISB_JRKSt21piecewise_construct_tSt5tupleIJRS9_EESI_IJEEEEEvPT_DpOT0_ = comdat any

$_ZNSt5tupleIJRKNSt7__cxx1112basic_stringIcSt11char_traitsIcESaIcEEEEEC2EOS8_ = comdat any

$_ZNSt4pairIKNSt7__cxx1112basic_stringIcSt11char_traitsIcESaIcEEEPhEC2IJRS6_EJEEESt21piecewise_construct_tSt5tupleIJDpT_EESC_IJDpT0_EE = comdat any

$_ZNSt11_Tuple_implILj0EJRKNSt7__cxx1112basic_stringIcSt11char_traitsIcESaIcEEEEEC2EOS8_ = comdat any

$_ZNSt11_Tuple_implILj0EJRKNSt7__cxx1112basic_stringIcSt11char_traitsIcESaIcEEEEE7_M_headERS8_ = comdat any

$_ZNSt10_Head_baseILj0ERKNSt7__cxx1112basic_stringIcSt11char_traitsIcESaIcEEELb0EEC2ES7_ = comdat any

$_ZNSt10_Head_baseILj0ERKNSt7__cxx1112basic_stringIcSt11char_traitsIcESaIcEEELb0EE7_M_headERS8_ = comdat any

$_ZNSt4pairIKNSt7__cxx1112basic_stringIcSt11char_traitsIcESaIcEEEPhEC2IJRS6_EJLj0EEJEJEEERSt5tupleIJDpT_EERSB_IJDpT1_EESt12_Index_tupleIJXspT0_EEESK_IJXspT2_EEE = comdat any

$_ZSt3getILj0EJRKNSt7__cxx1112basic_stringIcSt11char_traitsIcESaIcEEEEERNSt13tuple_elementIXT_ESt5tupleIJDpT0_EEE4typeERSC_ = comdat any

$_ZSt12__get_helperILj0ERKNSt7__cxx1112basic_stringIcSt11char_traitsIcESaIcEEEJEERT0_RSt11_Tuple_implIXT_EJS8_DpT1_EE = comdat any

$_ZNKSt23_Rb_tree_const_iteratorISt4pairIKNSt7__cxx1112basic_stringIcSt11char_traitsIcESaIcEEEPhEE13_M_const_castEv = comdat any

$_ZNKSt8_Rb_treeINSt7__cxx1112basic_stringIcSt11char_traitsIcESaIcEEESt4pairIKS5_PhESt10_Select1stIS9_ESt4lessIS5_ESaIS9_EE4sizeEv = comdat any

$_ZNSt8_Rb_treeINSt7__cxx1112basic_stringIcSt11char_traitsIcESaIcEEESt4pairIKS5_PhESt10_Select1stIS9_ESt4lessIS5_ESaIS9_EE6_S_keyEPKSt18_Rb_tree_node_base = comdat any

$_ZNSt8_Rb_treeINSt7__cxx1112basic_stringIcSt11char_traitsIcESaIcEEESt4pairIKS5_PhESt10_Select1stIS9_ESt4lessIS5_ESaIS9_EE12_M_rightmostEv = comdat any

$_ZNSt8_Rb_treeINSt7__cxx1112basic_stringIcSt11char_traitsIcESaIcEEESt4pairIKS5_PhESt10_Select1stIS9_ESt4lessIS5_ESaIS9_EE24_M_get_insert_unique_posERS7_ = comdat any

$_ZNSt8_Rb_treeINSt7__cxx1112basic_stringIcSt11char_traitsIcESaIcEEESt4pairIKS5_PhESt10_Select1stIS9_ESt4lessIS5_ESaIS9_EE11_M_leftmostEv = comdat any

$_ZNSt17_Rb_tree_iteratorISt4pairIKNSt7__cxx1112basic_stringIcSt11char_traitsIcESaIcEEEPhEEmmEv = comdat any

$_ZNSt17_Rb_tree_iteratorISt4pairIKNSt7__cxx1112basic_stringIcSt11char_traitsIcESaIcEEEPhEEppEv = comdat any

$_ZNSt8_Rb_treeINSt7__cxx1112basic_stringIcSt11char_traitsIcESaIcEEESt4pairIKS5_PhESt10_Select1stIS9_ESt4lessIS5_ESaIS9_EE5beginEv = comdat any

$_ZNSt4pairIPSt18_Rb_tree_node_baseS1_EC2IRPSt13_Rb_tree_nodeIS_IKNSt7__cxx1112basic_stringIcSt11char_traitsIcESaIcEEEPhEERS1_Lb1EEEOT_OT0_ = comdat any

$_ZNSt11_Tuple_implILj0EJRKNSt7__cxx1112basic_stringIcSt11char_traitsIcESaIcEEEEEC2ES7_ = comdat any

$_ZNSt8_Rb_treeINSt7__cxx1112basic_stringIcSt11char_traitsIcESaIcEEESt4pairIKS5_iESt10_Select1stIS8_ESt4lessIS5_ESaIS8_EE4findERS7_ = comdat any

$_ZNSt8_Rb_treeINSt7__cxx1112basic_stringIcSt11char_traitsIcESaIcEEESt4pairIKS5_iESt10_Select1stIS8_ESt4lessIS5_ESaIS8_EE14_M_lower_boundEPSt13_Rb_tree_nodeIS8_EPSt18_Rb_tree_node_baseRS7_ = comdat any

$_ZNSt8_Rb_treeINSt7__cxx1112basic_stringIcSt11char_traitsIcESaIcEEESt4pairIKS5_iESt10_Select1stIS8_ESt4lessIS5_ESaIS8_EE3endEv = comdat any

$_ZNSt8_Rb_treeINSt7__cxx1112basic_stringIcSt11char_traitsIcESaIcEEESt4pairIKS5_iESt10_Select1stIS8_ESt4lessIS5_ESaIS8_EE6_S_keyEPKSt18_Rb_tree_node_base = comdat any

$_ZNSt8_Rb_treeINSt7__cxx1112basic_stringIcSt11char_traitsIcESaIcEEESt4pairIKS5_iESt10_Select1stIS8_ESt4lessIS5_ESaIS8_EE6_S_keyEPKSt13_Rb_tree_nodeIS8_E = comdat any

$_ZNSt17_Rb_tree_iteratorISt4pairIKNSt7__cxx1112basic_stringIcSt11char_traitsIcESaIcEEEiEEC2EPSt18_Rb_tree_node_base = comdat any

$_ZNKSt10_Select1stISt4pairIKNSt7__cxx1112basic_stringIcSt11char_traitsIcESaIcEEEiEEclERKS8_ = comdat any

$_ZNSt3mapINSt7__cxx1112basic_stringIcSt11char_traitsIcESaIcEEEiSt4lessIS5_ESaISt4pairIKS5_iEEE11lower_boundERS9_ = comdat any

$_ZNKSt3mapINSt7__cxx1112basic_stringIcSt11char_traitsIcESaIcEEEiSt4lessIS5_ESaISt4pairIKS5_iEEE8key_compEv = comdat any

$_ZNSt8_Rb_treeINSt7__cxx1112basic_stringIcSt11char_traitsIcESaIcEEESt4pairIKS5_iESt10_Select1stIS8_ESt4lessIS5_ESaIS8_EE22_M_emplace_hint_uniqueIJRKSt21piecewise_construct_tSt5tupleIJRS7_EESJ_IJEEEEESt17_Rb_tree_iteratorIS8_ESt23_Rb_tree_const_iteratorIS8_EDpOT_ = comdat any

$_ZNSt23_Rb_tree_const_iteratorISt4pairIKNSt7__cxx1112basic_stringIcSt11char_traitsIcESaIcEEEiEEC2ERKSt17_Rb_tree_iteratorIS8_E = comdat any

$_ZNSt8_Rb_treeINSt7__cxx1112basic_stringIcSt11char_traitsIcESaIcEEESt4pairIKS5_iESt10_Select1stIS8_ESt4lessIS5_ESaIS8_EE11lower_boundERS7_ = comdat any

$_ZNKSt8_Rb_treeINSt7__cxx1112basic_stringIcSt11char_traitsIcESaIcEEESt4pairIKS5_iESt10_Select1stIS8_ESt4lessIS5_ESaIS8_EE8key_compEv = comdat any

$_ZNSt8_Rb_treeINSt7__cxx1112basic_stringIcSt11char_traitsIcESaIcEEESt4pairIKS5_iESt10_Select1stIS8_ESt4lessIS5_ESaIS8_EE14_M_create_nodeIJRKSt21piecewise_construct_tSt5tupleIJRS7_EESJ_IJEEEEEPSt13_Rb_tree_nodeIS8_EDpOT_ = comdat any

$_ZNSt8_Rb_treeINSt7__cxx1112basic_stringIcSt11char_traitsIcESaIcEEESt4pairIKS5_iESt10_Select1stIS8_ESt4lessIS5_ESaIS8_EE29_M_get_insert_hint_unique_posESt23_Rb_tree_const_iteratorIS8_ERS7_ = comdat any

$_ZNSt8_Rb_treeINSt7__cxx1112basic_stringIcSt11char_traitsIcESaIcEEESt4pairIKS5_iESt10_Select1stIS8_ESt4lessIS5_ESaIS8_EE14_M_insert_nodeEPSt18_Rb_tree_node_baseSG_PSt13_Rb_tree_nodeIS8_E = comdat any

$_ZNSt8_Rb_treeINSt7__cxx1112basic_stringIcSt11char_traitsIcESaIcEEESt4pairIKS5_iESt10_Select1stIS8_ESt4lessIS5_ESaIS8_EE17_M_construct_nodeIJRKSt21piecewise_construct_tSt5tupleIJRS7_EESJ_IJEEEEEvPSt13_Rb_tree_nodeIS8_EDpOT_ = comdat any

$_ZNSt16allocator_traitsISaISt13_Rb_tree_nodeISt4pairIKNSt7__cxx1112basic_stringIcSt11char_traitsIcESaIcEEEiEEEE9constructIS9_JRKSt21piecewise_construct_tSt5tupleIJRS8_EESH_IJEEEEEvRSB_PT_DpOT0_ = comdat any

$_ZN9__gnu_cxx13new_allocatorISt13_Rb_tree_nodeISt4pairIKNSt7__cxx1112basic_stringIcSt11char_traitsIcESaIcEEEiEEE9constructISA_JRKSt21piecewise_construct_tSt5tupleIJRS9_EESH_IJEEEEEvPT_DpOT0_ = comdat any

$_ZNSt4pairIKNSt7__cxx1112basic_stringIcSt11char_traitsIcESaIcEEEiEC2IJRS6_EJEEESt21piecewise_construct_tSt5tupleIJDpT_EESB_IJDpT0_EE = comdat any

$_ZNSt4pairIKNSt7__cxx1112basic_stringIcSt11char_traitsIcESaIcEEEiEC2IJRS6_EJLj0EEJEJEEERSt5tupleIJDpT_EERSA_IJDpT1_EESt12_Index_tupleIJXspT0_EEESJ_IJXspT2_EEE = comdat any

$_ZNKSt23_Rb_tree_const_iteratorISt4pairIKNSt7__cxx1112basic_stringIcSt11char_traitsIcESaIcEEEiEE13_M_const_castEv = comdat any

$_ZNKSt8_Rb_treeINSt7__cxx1112basic_stringIcSt11char_traitsIcESaIcEEESt4pairIKS5_iESt10_Select1stIS8_ESt4lessIS5_ESaIS8_EE4sizeEv = comdat any

$_ZNSt8_Rb_treeINSt7__cxx1112basic_stringIcSt11char_traitsIcESaIcEEESt4pairIKS5_iESt10_Select1stIS8_ESt4lessIS5_ESaIS8_EE24_M_get_insert_unique_posERS7_ = comdat any

$_ZNSt17_Rb_tree_iteratorISt4pairIKNSt7__cxx1112basic_stringIcSt11char_traitsIcESaIcEEEiEEmmEv = comdat any

$_ZNSt8_Rb_treeINSt7__cxx1112basic_stringIcSt11char_traitsIcESaIcEEESt4pairIKS5_iESt10_Select1stIS8_ESt4lessIS5_ESaIS8_EE5beginEv = comdat any

$_ZNSt4pairIPSt18_Rb_tree_node_baseS1_EC2IRPSt13_Rb_tree_nodeIS_IKNSt7__cxx1112basic_stringIcSt11char_traitsIcESaIcEEEiEERS1_Lb1EEEOT_OT0_ = comdat any

$_ZNSt3mapINSt7__cxx1112basic_stringIcSt11char_traitsIcESaIcEEESt6vectorIhSaIhEESt4lessIS5_ESaISt4pairIKS5_S8_EEE11lower_boundERSC_ = comdat any

$_ZSteqRKSt17_Rb_tree_iteratorISt4pairIKNSt7__cxx1112basic_stringIcSt11char_traitsIcESaIcEEESt6vectorIhSaIhEEEESE_ = comdat any

$_ZNSt3mapINSt7__cxx1112basic_stringIcSt11char_traitsIcESaIcEEESt6vectorIhSaIhEESt4lessIS5_ESaISt4pairIKS5_S8_EEE3endEv = comdat any

$_ZNKSt3mapINSt7__cxx1112basic_stringIcSt11char_traitsIcESaIcEEESt6vectorIhSaIhEESt4lessIS5_ESaISt4pairIKS5_S8_EEE8key_compEv = comdat any

$_ZNKSt17_Rb_tree_iteratorISt4pairIKNSt7__cxx1112basic_stringIcSt11char_traitsIcESaIcEEESt6vectorIhSaIhEEEEdeEv = comdat any

$_ZNSt8_Rb_treeINSt7__cxx1112basic_stringIcSt11char_traitsIcESaIcEEESt4pairIKS5_St6vectorIhSaIhEEESt10_Select1stISB_ESt4lessIS5_ESaISB_EE22_M_emplace_hint_uniqueIJRKSt21piecewise_construct_tSt5tupleIJRS7_EESM_IJEEEEESt17_Rb_tree_iteratorISB_ESt23_Rb_tree_const_iteratorISB_EDpOT_ = comdat any

$_ZNSt23_Rb_tree_const_iteratorISt4pairIKNSt7__cxx1112basic_stringIcSt11char_traitsIcESaIcEEESt6vectorIhSaIhEEEEC2ERKSt17_Rb_tree_iteratorISB_E = comdat any

$_ZNSt8_Rb_treeINSt7__cxx1112basic_stringIcSt11char_traitsIcESaIcEEESt4pairIKS5_St6vectorIhSaIhEEESt10_Select1stISB_ESt4lessIS5_ESaISB_EE11lower_boundERS7_ = comdat any

$_ZNSt8_Rb_treeINSt7__cxx1112basic_stringIcSt11char_traitsIcESaIcEEESt4pairIKS5_St6vectorIhSaIhEEESt10_Select1stISB_ESt4lessIS5_ESaISB_EE14_M_lower_boundEPSt13_Rb_tree_nodeISB_EPSt18_Rb_tree_node_baseRS7_ = comdat any

$_ZNSt8_Rb_treeINSt7__cxx1112basic_stringIcSt11char_traitsIcESaIcEEESt4pairIKS5_St6vectorIhSaIhEEESt10_Select1stISB_ESt4lessIS5_ESaISB_EE6_M_endEv = comdat any

$_ZNSt8_Rb_treeINSt7__cxx1112basic_stringIcSt11char_traitsIcESaIcEEESt4pairIKS5_St6vectorIhSaIhEEESt10_Select1stISB_ESt4lessIS5_ESaISB_EE6_S_keyEPKSt13_Rb_tree_nodeISB_E = comdat any

$_ZNSt17_Rb_tree_iteratorISt4pairIKNSt7__cxx1112basic_stringIcSt11char_traitsIcESaIcEEESt6vectorIhSaIhEEEEC2EPSt18_Rb_tree_node_base = comdat any

$_ZNKSt10_Select1stISt4pairIKNSt7__cxx1112basic_stringIcSt11char_traitsIcESaIcEEESt6vectorIhSaIhEEEEclERKSB_ = comdat any

$_ZNKSt13_Rb_tree_nodeISt4pairIKNSt7__cxx1112basic_stringIcSt11char_traitsIcESaIcEEESt6vectorIhSaIhEEEE9_M_valptrEv = comdat any

$_ZNK9__gnu_cxx16__aligned_membufISt4pairIKNSt7__cxx1112basic_stringIcSt11char_traitsIcESaIcEEESt6vectorIhSaIhEEEE6_M_ptrEv = comdat any

$_ZNK9__gnu_cxx16__aligned_membufISt4pairIKNSt7__cxx1112basic_stringIcSt11char_traitsIcESaIcEEESt6vectorIhSaIhEEEE7_M_addrEv = comdat any

$_ZNSt8_Rb_treeINSt7__cxx1112basic_stringIcSt11char_traitsIcESaIcEEESt4pairIKS5_St6vectorIhSaIhEEESt10_Select1stISB_ESt4lessIS5_ESaISB_EE3endEv = comdat any

$_ZNKSt8_Rb_treeINSt7__cxx1112basic_stringIcSt11char_traitsIcESaIcEEESt4pairIKS5_St6vectorIhSaIhEEESt10_Select1stISB_ESt4lessIS5_ESaISB_EE8key_compEv = comdat any

$_ZNSt8_Rb_treeINSt7__cxx1112basic_stringIcSt11char_traitsIcESaIcEEESt4pairIKS5_St6vectorIhSaIhEEESt10_Select1stISB_ESt4lessIS5_ESaISB_EE14_M_create_nodeIJRKSt21piecewise_construct_tSt5tupleIJRS7_EESM_IJEEEEEPSt13_Rb_tree_nodeISB_EDpOT_ = comdat any

$_ZNSt8_Rb_treeINSt7__cxx1112basic_stringIcSt11char_traitsIcESaIcEEESt4pairIKS5_St6vectorIhSaIhEEESt10_Select1stISB_ESt4lessIS5_ESaISB_EE29_M_get_insert_hint_unique_posESt23_Rb_tree_const_iteratorISB_ERS7_ = comdat any

$_ZNSt8_Rb_treeINSt7__cxx1112basic_stringIcSt11char_traitsIcESaIcEEESt4pairIKS5_St6vectorIhSaIhEEESt10_Select1stISB_ESt4lessIS5_ESaISB_EE14_M_insert_nodeEPSt18_Rb_tree_node_baseSJ_PSt13_Rb_tree_nodeISB_E = comdat any

$_ZNSt8_Rb_treeINSt7__cxx1112basic_stringIcSt11char_traitsIcESaIcEEESt4pairIKS5_St6vectorIhSaIhEEESt10_Select1stISB_ESt4lessIS5_ESaISB_EE11_M_get_nodeEv = comdat any

$_ZNSt8_Rb_treeINSt7__cxx1112basic_stringIcSt11char_traitsIcESaIcEEESt4pairIKS5_St6vectorIhSaIhEEESt10_Select1stISB_ESt4lessIS5_ESaISB_EE17_M_construct_nodeIJRKSt21piecewise_construct_tSt5tupleIJRS7_EESM_IJEEEEEvPSt13_Rb_tree_nodeISB_EDpOT_ = comdat any

$_ZNSt16allocator_traitsISaISt13_Rb_tree_nodeISt4pairIKNSt7__cxx1112basic_stringIcSt11char_traitsIcESaIcEEESt6vectorIhSaIhEEEEEE8allocateERSE_j = comdat any

$_ZN9__gnu_cxx13new_allocatorISt13_Rb_tree_nodeISt4pairIKNSt7__cxx1112basic_stringIcSt11char_traitsIcESaIcEEESt6vectorIhSaIhEEEEE8allocateEjPKv = comdat any

$_ZNK9__gnu_cxx13new_allocatorISt13_Rb_tree_nodeISt4pairIKNSt7__cxx1112basic_stringIcSt11char_traitsIcESaIcEEESt6vectorIhSaIhEEEEE8max_sizeEv = comdat any

$_ZNSt16allocator_traitsISaISt13_Rb_tree_nodeISt4pairIKNSt7__cxx1112basic_stringIcSt11char_traitsIcESaIcEEESt6vectorIhSaIhEEEEEE9constructISC_JRKSt21piecewise_construct_tSt5tupleIJRS8_EESK_IJEEEEEvRSE_PT_DpOT0_ = comdat any

$_ZN9__gnu_cxx13new_allocatorISt13_Rb_tree_nodeISt4pairIKNSt7__cxx1112basic_stringIcSt11char_traitsIcESaIcEEESt6vectorIhSaIhEEEEE9constructISD_JRKSt21piecewise_construct_tSt5tupleIJRS9_EESK_IJEEEEEvPT_DpOT0_ = comdat any

$_ZNSt4pairIKNSt7__cxx1112basic_stringIcSt11char_traitsIcESaIcEEESt6vectorIhSaIhEEEC2IJRS6_EJEEESt21piecewise_construct_tSt5tupleIJDpT_EESE_IJDpT0_EE = comdat any

$_ZNSt4pairIKNSt7__cxx1112basic_stringIcSt11char_traitsIcESaIcEEESt6vectorIhSaIhEEEC2IJRS6_EJLj0EEJEJEEERSt5tupleIJDpT_EERSD_IJDpT1_EESt12_Index_tupleIJXspT0_EEESM_IJXspT2_EEE = comdat any

$_ZNSt6vectorIhSaIhEEC2Ev = comdat any

$_ZNSt12_Vector_baseIhSaIhEEC2Ev = comdat any

$_ZNSt12_Vector_baseIhSaIhEE12_Vector_implC2Ev = comdat any

$_ZNSaIhEC2Ev = comdat any

$_ZN9__gnu_cxx13new_allocatorIhEC2Ev = comdat any

$_ZNKSt23_Rb_tree_const_iteratorISt4pairIKNSt7__cxx1112basic_stringIcSt11char_traitsIcESaIcEEESt6vectorIhSaIhEEEE13_M_const_castEv = comdat any

$_ZNKSt8_Rb_treeINSt7__cxx1112basic_stringIcSt11char_traitsIcESaIcEEESt4pairIKS5_St6vectorIhSaIhEEESt10_Select1stISB_ESt4lessIS5_ESaISB_EE4sizeEv = comdat any

$_ZNSt8_Rb_treeINSt7__cxx1112basic_stringIcSt11char_traitsIcESaIcEEESt4pairIKS5_St6vectorIhSaIhEEESt10_Select1stISB_ESt4lessIS5_ESaISB_EE6_S_keyEPKSt18_Rb_tree_node_base = comdat any

$_ZNSt8_Rb_treeINSt7__cxx1112basic_stringIcSt11char_traitsIcESaIcEEESt4pairIKS5_St6vectorIhSaIhEEESt10_Select1stISB_ESt4lessIS5_ESaISB_EE12_M_rightmostEv = comdat any

$_ZNSt8_Rb_treeINSt7__cxx1112basic_stringIcSt11char_traitsIcESaIcEEESt4pairIKS5_St6vectorIhSaIhEEESt10_Select1stISB_ESt4lessIS5_ESaISB_EE24_M_get_insert_unique_posERS7_ = comdat any

$_ZNSt8_Rb_treeINSt7__cxx1112basic_stringIcSt11char_traitsIcESaIcEEESt4pairIKS5_St6vectorIhSaIhEEESt10_Select1stISB_ESt4lessIS5_ESaISB_EE11_M_leftmostEv = comdat any

$_ZNSt17_Rb_tree_iteratorISt4pairIKNSt7__cxx1112basic_stringIcSt11char_traitsIcESaIcEEESt6vectorIhSaIhEEEEmmEv = comdat any

$_ZNSt17_Rb_tree_iteratorISt4pairIKNSt7__cxx1112basic_stringIcSt11char_traitsIcESaIcEEESt6vectorIhSaIhEEEEppEv = comdat any

$_ZNSt8_Rb_treeINSt7__cxx1112basic_stringIcSt11char_traitsIcESaIcEEESt4pairIKS5_St6vectorIhSaIhEEESt10_Select1stISB_ESt4lessIS5_ESaISB_EE5beginEv = comdat any

$_ZNSt4pairIPSt18_Rb_tree_node_baseS1_EC2IRPSt13_Rb_tree_nodeIS_IKNSt7__cxx1112basic_stringIcSt11char_traitsIcESaIcEEESt6vectorIhSaIhEEEERS1_Lb1EEEOT_OT0_ = comdat any

$_ZNSt16allocator_traitsISaIhEE9constructIhJRKhEEEvRS0_PT_DpOT0_ = comdat any

$_ZNSt6vectorIhSaIhEE17_M_realloc_insertIJRKhEEEvN9__gnu_cxx17__normal_iteratorIPhS1_EEDpOT_ = comdat any

$_ZNSt6vectorIhSaIhEE3endEv = comdat any

$_ZN9__gnu_cxx13new_allocatorIhE9constructIhJRKhEEEvPT_DpOT0_ = comdat any

$_ZNKSt6vectorIhSaIhEE12_M_check_lenEjPKc = comdat any

$_ZN9__gnu_cxxmiIPhSt6vectorIhSaIhEEEENS_17__normal_iteratorIT_T0_E15difference_typeERKS8_SB_ = comdat any

$_ZNSt6vectorIhSaIhEE5beginEv = comdat any

$_ZNSt6vectorIhSaIhEE11_S_relocateEPhS2_S2_RS0_ = comdat any

$_ZNK9__gnu_cxx17__normal_iteratorIPhSt6vectorIhSaIhEEE4baseEv = comdat any

$_ZNKSt6vectorIhSaIhEE8max_sizeEv = comdat any

$_ZNSt6vectorIhSaIhEE11_S_max_sizeERKS0_ = comdat any

$_ZNSt16allocator_traitsISaIhEE8max_sizeERKS0_ = comdat any

$_ZN9__gnu_cxx17__normal_iteratorIPhSt6vectorIhSaIhEEEC2ERKS1_ = comdat any

$_ZNSt6vectorIhSaIhEE14_S_do_relocateEPhS2_S2_RS0_St17integral_constantIbLb1EE = comdat any

$_ZSt12__relocate_aIPhS0_SaIhEET0_T_S3_S2_RT1_ = comdat any

$_ZSt14__relocate_a_1IhhENSt9enable_ifIXsr3std24__is_bitwise_relocatableIT_EE5valueEPS1_E4typeES2_S2_S2_RSaIT0_E = comdat any

$_ZNSt8_Rb_treeINSt7__cxx1112basic_stringIcSt11char_traitsIcESaIcEEESt4pairIKS5_iESt10_Select1stIS8_ESt4lessIS5_ESaIS8_EE5clearEv = comdat any

$_ZNSt8_Rb_treeINSt7__cxx1112basic_stringIcSt11char_traitsIcESaIcEEESt4pairIKS5_St6vectorIhSaIhEEESt10_Select1stISB_ESt4lessIS5_ESaISB_EE5clearEv = comdat any

$_ZNSt8_Rb_treeINSt7__cxx1112basic_stringIcSt11char_traitsIcESaIcEEES5_St9_IdentityIS5_ESt4lessIS5_ESaIS5_EE5clearEv = comdat any

$_ZNSt3mapINSt7__cxx1112basic_stringIcSt11char_traitsIcESaIcEEEP8_IO_FILESt4lessIS5_ESaISt4pairIKS5_S7_EEE11lower_boundERSB_ = comdat any

$_ZSteqRKSt17_Rb_tree_iteratorISt4pairIKNSt7__cxx1112basic_stringIcSt11char_traitsIcESaIcEEEP8_IO_FILEEESD_ = comdat any

$_ZNSt3mapINSt7__cxx1112basic_stringIcSt11char_traitsIcESaIcEEEP8_IO_FILESt4lessIS5_ESaISt4pairIKS5_S7_EEE3endEv = comdat any

$_ZNKSt3mapINSt7__cxx1112basic_stringIcSt11char_traitsIcESaIcEEEP8_IO_FILESt4lessIS5_ESaISt4pairIKS5_S7_EEE8key_compEv = comdat any

$_ZNKSt17_Rb_tree_iteratorISt4pairIKNSt7__cxx1112basic_stringIcSt11char_traitsIcESaIcEEEP8_IO_FILEEEdeEv = comdat any

$_ZNSt8_Rb_treeINSt7__cxx1112basic_stringIcSt11char_traitsIcESaIcEEESt4pairIKS5_P8_IO_FILEESt10_Select1stISA_ESt4lessIS5_ESaISA_EE22_M_emplace_hint_uniqueIJRKSt21piecewise_construct_tSt5tupleIJRS7_EESL_IJEEEEESt17_Rb_tree_iteratorISA_ESt23_Rb_tree_const_iteratorISA_EDpOT_ = comdat any

$_ZNSt23_Rb_tree_const_iteratorISt4pairIKNSt7__cxx1112basic_stringIcSt11char_traitsIcESaIcEEEP8_IO_FILEEEC2ERKSt17_Rb_tree_iteratorISA_E = comdat any

$_ZNSt8_Rb_treeINSt7__cxx1112basic_stringIcSt11char_traitsIcESaIcEEESt4pairIKS5_P8_IO_FILEESt10_Select1stISA_ESt4lessIS5_ESaISA_EE11lower_boundERS7_ = comdat any

$_ZNSt8_Rb_treeINSt7__cxx1112basic_stringIcSt11char_traitsIcESaIcEEESt4pairIKS5_P8_IO_FILEESt10_Select1stISA_ESt4lessIS5_ESaISA_EE14_M_lower_boundEPSt13_Rb_tree_nodeISA_EPSt18_Rb_tree_node_baseRS7_ = comdat any

$_ZNSt8_Rb_treeINSt7__cxx1112basic_stringIcSt11char_traitsIcESaIcEEESt4pairIKS5_P8_IO_FILEESt10_Select1stISA_ESt4lessIS5_ESaISA_EE6_M_endEv = comdat any

$_ZNSt8_Rb_treeINSt7__cxx1112basic_stringIcSt11char_traitsIcESaIcEEESt4pairIKS5_P8_IO_FILEESt10_Select1stISA_ESt4lessIS5_ESaISA_EE6_S_keyEPKSt13_Rb_tree_nodeISA_E = comdat any

$_ZNSt17_Rb_tree_iteratorISt4pairIKNSt7__cxx1112basic_stringIcSt11char_traitsIcESaIcEEEP8_IO_FILEEEC2EPSt18_Rb_tree_node_base = comdat any

$_ZNKSt10_Select1stISt4pairIKNSt7__cxx1112basic_stringIcSt11char_traitsIcESaIcEEEP8_IO_FILEEEclERKSA_ = comdat any

$_ZNKSt13_Rb_tree_nodeISt4pairIKNSt7__cxx1112basic_stringIcSt11char_traitsIcESaIcEEEP8_IO_FILEEE9_M_valptrEv = comdat any

$_ZNK9__gnu_cxx16__aligned_membufISt4pairIKNSt7__cxx1112basic_stringIcSt11char_traitsIcESaIcEEEP8_IO_FILEEE6_M_ptrEv = comdat any

$_ZNK9__gnu_cxx16__aligned_membufISt4pairIKNSt7__cxx1112basic_stringIcSt11char_traitsIcESaIcEEEP8_IO_FILEEE7_M_addrEv = comdat any

$_ZNSt8_Rb_treeINSt7__cxx1112basic_stringIcSt11char_traitsIcESaIcEEESt4pairIKS5_P8_IO_FILEESt10_Select1stISA_ESt4lessIS5_ESaISA_EE3endEv = comdat any

$_ZNKSt8_Rb_treeINSt7__cxx1112basic_stringIcSt11char_traitsIcESaIcEEESt4pairIKS5_P8_IO_FILEESt10_Select1stISA_ESt4lessIS5_ESaISA_EE8key_compEv = comdat any

$_ZNSt8_Rb_treeINSt7__cxx1112basic_stringIcSt11char_traitsIcESaIcEEESt4pairIKS5_P8_IO_FILEESt10_Select1stISA_ESt4lessIS5_ESaISA_EE14_M_create_nodeIJRKSt21piecewise_construct_tSt5tupleIJRS7_EESL_IJEEEEEPSt13_Rb_tree_nodeISA_EDpOT_ = comdat any

$_ZNSt8_Rb_treeINSt7__cxx1112basic_stringIcSt11char_traitsIcESaIcEEESt4pairIKS5_P8_IO_FILEESt10_Select1stISA_ESt4lessIS5_ESaISA_EE29_M_get_insert_hint_unique_posESt23_Rb_tree_const_iteratorISA_ERS7_ = comdat any

$_ZNSt8_Rb_treeINSt7__cxx1112basic_stringIcSt11char_traitsIcESaIcEEESt4pairIKS5_P8_IO_FILEESt10_Select1stISA_ESt4lessIS5_ESaISA_EE14_M_insert_nodeEPSt18_Rb_tree_node_baseSI_PSt13_Rb_tree_nodeISA_E = comdat any

$_ZNSt8_Rb_treeINSt7__cxx1112basic_stringIcSt11char_traitsIcESaIcEEESt4pairIKS5_P8_IO_FILEESt10_Select1stISA_ESt4lessIS5_ESaISA_EE11_M_get_nodeEv = comdat any

$_ZNSt8_Rb_treeINSt7__cxx1112basic_stringIcSt11char_traitsIcESaIcEEESt4pairIKS5_P8_IO_FILEESt10_Select1stISA_ESt4lessIS5_ESaISA_EE17_M_construct_nodeIJRKSt21piecewise_construct_tSt5tupleIJRS7_EESL_IJEEEEEvPSt13_Rb_tree_nodeISA_EDpOT_ = comdat any

$_ZNSt16allocator_traitsISaISt13_Rb_tree_nodeISt4pairIKNSt7__cxx1112basic_stringIcSt11char_traitsIcESaIcEEEP8_IO_FILEEEEE8allocateERSD_j = comdat any

$_ZN9__gnu_cxx13new_allocatorISt13_Rb_tree_nodeISt4pairIKNSt7__cxx1112basic_stringIcSt11char_traitsIcESaIcEEEP8_IO_FILEEEE8allocateEjPKv = comdat any

$_ZNK9__gnu_cxx13new_allocatorISt13_Rb_tree_nodeISt4pairIKNSt7__cxx1112basic_stringIcSt11char_traitsIcESaIcEEEP8_IO_FILEEEE8max_sizeEv = comdat any

$_ZNSt16allocator_traitsISaISt13_Rb_tree_nodeISt4pairIKNSt7__cxx1112basic_stringIcSt11char_traitsIcESaIcEEEP8_IO_FILEEEEE9constructISB_JRKSt21piecewise_construct_tSt5tupleIJRS8_EESJ_IJEEEEEvRSD_PT_DpOT0_ = comdat any

$_ZN9__gnu_cxx13new_allocatorISt13_Rb_tree_nodeISt4pairIKNSt7__cxx1112basic_stringIcSt11char_traitsIcESaIcEEEP8_IO_FILEEEE9constructISC_JRKSt21piecewise_construct_tSt5tupleIJRS9_EESJ_IJEEEEEvPT_DpOT0_ = comdat any

$_ZNSt4pairIKNSt7__cxx1112basic_stringIcSt11char_traitsIcESaIcEEEP8_IO_FILEEC2IJRS6_EJEEESt21piecewise_construct_tSt5tupleIJDpT_EESD_IJDpT0_EE = comdat any

$_ZNSt4pairIKNSt7__cxx1112basic_stringIcSt11char_traitsIcESaIcEEEP8_IO_FILEEC2IJRS6_EJLj0EEJEJEEERSt5tupleIJDpT_EERSC_IJDpT1_EESt12_Index_tupleIJXspT0_EEESL_IJXspT2_EEE = comdat any

$_ZNKSt23_Rb_tree_const_iteratorISt4pairIKNSt7__cxx1112basic_stringIcSt11char_traitsIcESaIcEEEP8_IO_FILEEE13_M_const_castEv = comdat any

$_ZNKSt8_Rb_treeINSt7__cxx1112basic_stringIcSt11char_traitsIcESaIcEEESt4pairIKS5_P8_IO_FILEESt10_Select1stISA_ESt4lessIS5_ESaISA_EE4sizeEv = comdat any

$_ZNSt8_Rb_treeINSt7__cxx1112basic_stringIcSt11char_traitsIcESaIcEEESt4pairIKS5_P8_IO_FILEESt10_Select1stISA_ESt4lessIS5_ESaISA_EE6_S_keyEPKSt18_Rb_tree_node_base = comdat any

$_ZNSt8_Rb_treeINSt7__cxx1112basic_stringIcSt11char_traitsIcESaIcEEESt4pairIKS5_P8_IO_FILEESt10_Select1stISA_ESt4lessIS5_ESaISA_EE12_M_rightmostEv = comdat any

$_ZNSt8_Rb_treeINSt7__cxx1112basic_stringIcSt11char_traitsIcESaIcEEESt4pairIKS5_P8_IO_FILEESt10_Select1stISA_ESt4lessIS5_ESaISA_EE24_M_get_insert_unique_posERS7_ = comdat any

$_ZNSt8_Rb_treeINSt7__cxx1112basic_stringIcSt11char_traitsIcESaIcEEESt4pairIKS5_P8_IO_FILEESt10_Select1stISA_ESt4lessIS5_ESaISA_EE11_M_leftmostEv = comdat any

$_ZNSt17_Rb_tree_iteratorISt4pairIKNSt7__cxx1112basic_stringIcSt11char_traitsIcESaIcEEEP8_IO_FILEEEmmEv = comdat any

$_ZNSt17_Rb_tree_iteratorISt4pairIKNSt7__cxx1112basic_stringIcSt11char_traitsIcESaIcEEEP8_IO_FILEEEppEv = comdat any

$_ZNSt8_Rb_treeINSt7__cxx1112basic_stringIcSt11char_traitsIcESaIcEEESt4pairIKS5_P8_IO_FILEESt10_Select1stISA_ESt4lessIS5_ESaISA_EE5beginEv = comdat any

$_ZNSt4pairIPSt18_Rb_tree_node_baseS1_EC2IRPSt13_Rb_tree_nodeIS_IKNSt7__cxx1112basic_stringIcSt11char_traitsIcESaIcEEEP8_IO_FILEEERS1_Lb1EEEOT_OT0_ = comdat any

$_ZNSt8_Rb_treeIjSt4pairIKj13AddrDataTupleESt10_Select1stIS3_ESt4lessIjESaIS3_EE3endEv = comdat any

$_ZNSt8_Rb_treeINSt7__cxx1112basic_stringIcSt11char_traitsIcESaIcEEESt4pairIKS5_20AddrDataTupleMorpherESt10_Select1stIS9_ESt4lessIS5_ESaIS9_EE5beginEv = comdat any

$_ZNSt17_Rb_tree_iteratorISt4pairIKNSt7__cxx1112basic_stringIcSt11char_traitsIcESaIcEEE20AddrDataTupleMorpherEEC2EPSt18_Rb_tree_node_base = comdat any

$_ZNSt8_Rb_treeINSt7__cxx1112basic_stringIcSt11char_traitsIcESaIcEEESt4pairIKS5_20AddrDataTupleMorpherESt10_Select1stIS9_ESt4lessIS5_ESaIS9_EE3endEv = comdat any

$_ZNSt8_Rb_treeINSt7__cxx1112basic_stringIcSt11char_traitsIcESaIcEEESt4pairIKS5_20AddrDataTupleMorpherESt10_Select1stIS9_ESt4lessIS5_ESaIS9_EE5clearEv = comdat any

$_ZNSt8_Rb_treeINSt7__cxx1112basic_stringIcSt11char_traitsIcESaIcEEESt4pairIKS5_St3setIS5_St4lessIS5_ESaIS5_EEESt10_Select1stISD_ESA_SaISD_EE5beginEv = comdat any

$_ZNSt17_Rb_tree_iteratorISt4pairIKNSt7__cxx1112basic_stringIcSt11char_traitsIcESaIcEEESt3setIS6_St4lessIS6_ESaIS6_EEEEC2EPSt18_Rb_tree_node_base = comdat any

$_ZNSt8_Rb_treeINSt7__cxx1112basic_stringIcSt11char_traitsIcESaIcEEESt4pairIKS5_St3setIS5_St4lessIS5_ESaIS5_EEESt10_Select1stISD_ESA_SaISD_EE3endEv = comdat any

$_ZNKSt8_Rb_treeINSt7__cxx1112basic_stringIcSt11char_traitsIcESaIcEEES5_St9_IdentityIS5_ESt4lessIS5_ESaIS5_EE5beginEv = comdat any

$_ZNSt3mapINSt7__cxx1112basic_stringIcSt11char_traitsIcESaIcEEES5_St4lessIS5_ESaISt4pairIKS5_S5_EEE11lower_boundERS9_ = comdat any

$_ZSteqRKSt17_Rb_tree_iteratorISt4pairIKNSt7__cxx1112basic_stringIcSt11char_traitsIcESaIcEEES6_EESB_ = comdat any

$_ZNKSt3mapINSt7__cxx1112basic_stringIcSt11char_traitsIcESaIcEEES5_St4lessIS5_ESaISt4pairIKS5_S5_EEE8key_compEv = comdat any

$_ZNKSt17_Rb_tree_iteratorISt4pairIKNSt7__cxx1112basic_stringIcSt11char_traitsIcESaIcEEES6_EEdeEv = comdat any

$_ZNSt8_Rb_treeINSt7__cxx1112basic_stringIcSt11char_traitsIcESaIcEEESt4pairIKS5_S5_ESt10_Select1stIS8_ESt4lessIS5_ESaIS8_EE22_M_emplace_hint_uniqueIJRKSt21piecewise_construct_tSt5tupleIJRS7_EESJ_IJEEEEESt17_Rb_tree_iteratorIS8_ESt23_Rb_tree_const_iteratorIS8_EDpOT_ = comdat any

$_ZNSt23_Rb_tree_const_iteratorISt4pairIKNSt7__cxx1112basic_stringIcSt11char_traitsIcESaIcEEES6_EEC2ERKSt17_Rb_tree_iteratorIS8_E = comdat any

$_ZNSt8_Rb_treeINSt7__cxx1112basic_stringIcSt11char_traitsIcESaIcEEESt4pairIKS5_S5_ESt10_Select1stIS8_ESt4lessIS5_ESaIS8_EE11lower_boundERS7_ = comdat any

$_ZNSt8_Rb_treeINSt7__cxx1112basic_stringIcSt11char_traitsIcESaIcEEESt4pairIKS5_S5_ESt10_Select1stIS8_ESt4lessIS5_ESaIS8_EE14_M_lower_boundEPSt13_Rb_tree_nodeIS8_EPSt18_Rb_tree_node_baseRS7_ = comdat any

$_ZNSt8_Rb_treeINSt7__cxx1112basic_stringIcSt11char_traitsIcESaIcEEESt4pairIKS5_S5_ESt10_Select1stIS8_ESt4lessIS5_ESaIS8_EE6_M_endEv = comdat any

$_ZNSt8_Rb_treeINSt7__cxx1112basic_stringIcSt11char_traitsIcESaIcEEESt4pairIKS5_S5_ESt10_Select1stIS8_ESt4lessIS5_ESaIS8_EE6_S_keyEPKSt13_Rb_tree_nodeIS8_E = comdat any

$_ZNSt17_Rb_tree_iteratorISt4pairIKNSt7__cxx1112basic_stringIcSt11char_traitsIcESaIcEEES6_EEC2EPSt18_Rb_tree_node_base = comdat any

$_ZNKSt10_Select1stISt4pairIKNSt7__cxx1112basic_stringIcSt11char_traitsIcESaIcEEES6_EEclERKS8_ = comdat any

$_ZNKSt13_Rb_tree_nodeISt4pairIKNSt7__cxx1112basic_stringIcSt11char_traitsIcESaIcEEES6_EE9_M_valptrEv = comdat any

$_ZNK9__gnu_cxx16__aligned_membufISt4pairIKNSt7__cxx1112basic_stringIcSt11char_traitsIcESaIcEEES7_EE6_M_ptrEv = comdat any

$_ZNK9__gnu_cxx16__aligned_membufISt4pairIKNSt7__cxx1112basic_stringIcSt11char_traitsIcESaIcEEES7_EE7_M_addrEv = comdat any

$_ZNKSt8_Rb_treeINSt7__cxx1112basic_stringIcSt11char_traitsIcESaIcEEESt4pairIKS5_S5_ESt10_Select1stIS8_ESt4lessIS5_ESaIS8_EE8key_compEv = comdat any

$_ZNSt8_Rb_treeINSt7__cxx1112basic_stringIcSt11char_traitsIcESaIcEEESt4pairIKS5_S5_ESt10_Select1stIS8_ESt4lessIS5_ESaIS8_EE14_M_create_nodeIJRKSt21piecewise_construct_tSt5tupleIJRS7_EESJ_IJEEEEEPSt13_Rb_tree_nodeIS8_EDpOT_ = comdat any

$_ZNSt8_Rb_treeINSt7__cxx1112basic_stringIcSt11char_traitsIcESaIcEEESt4pairIKS5_S5_ESt10_Select1stIS8_ESt4lessIS5_ESaIS8_EE29_M_get_insert_hint_unique_posESt23_Rb_tree_const_iteratorIS8_ERS7_ = comdat any

$_ZNSt8_Rb_treeINSt7__cxx1112basic_stringIcSt11char_traitsIcESaIcEEESt4pairIKS5_S5_ESt10_Select1stIS8_ESt4lessIS5_ESaIS8_EE14_M_insert_nodeEPSt18_Rb_tree_node_baseSG_PSt13_Rb_tree_nodeIS8_E = comdat any

$_ZNSt8_Rb_treeINSt7__cxx1112basic_stringIcSt11char_traitsIcESaIcEEESt4pairIKS5_S5_ESt10_Select1stIS8_ESt4lessIS5_ESaIS8_EE11_M_get_nodeEv = comdat any

$_ZNSt8_Rb_treeINSt7__cxx1112basic_stringIcSt11char_traitsIcESaIcEEESt4pairIKS5_S5_ESt10_Select1stIS8_ESt4lessIS5_ESaIS8_EE17_M_construct_nodeIJRKSt21piecewise_construct_tSt5tupleIJRS7_EESJ_IJEEEEEvPSt13_Rb_tree_nodeIS8_EDpOT_ = comdat any

$_ZNSt16allocator_traitsISaISt13_Rb_tree_nodeISt4pairIKNSt7__cxx1112basic_stringIcSt11char_traitsIcESaIcEEES7_EEEE8allocateERSB_j = comdat any

$_ZN9__gnu_cxx13new_allocatorISt13_Rb_tree_nodeISt4pairIKNSt7__cxx1112basic_stringIcSt11char_traitsIcESaIcEEES8_EEE8allocateEjPKv = comdat any

$_ZNK9__gnu_cxx13new_allocatorISt13_Rb_tree_nodeISt4pairIKNSt7__cxx1112basic_stringIcSt11char_traitsIcESaIcEEES8_EEE8max_sizeEv = comdat any

$_ZNSt16allocator_traitsISaISt13_Rb_tree_nodeISt4pairIKNSt7__cxx1112basic_stringIcSt11char_traitsIcESaIcEEES7_EEEE9constructIS9_JRKSt21piecewise_construct_tSt5tupleIJRS8_EESH_IJEEEEEvRSB_PT_DpOT0_ = comdat any

$_ZN9__gnu_cxx13new_allocatorISt13_Rb_tree_nodeISt4pairIKNSt7__cxx1112basic_stringIcSt11char_traitsIcESaIcEEES8_EEE9constructISA_JRKSt21piecewise_construct_tSt5tupleIJRS9_EESH_IJEEEEEvPT_DpOT0_ = comdat any

$_ZNSt4pairIKNSt7__cxx1112basic_stringIcSt11char_traitsIcESaIcEEES5_EC2IJRS6_EJEEESt21piecewise_construct_tSt5tupleIJDpT_EESB_IJDpT0_EE = comdat any

$_ZNSt4pairIKNSt7__cxx1112basic_stringIcSt11char_traitsIcESaIcEEES5_EC2IJRS6_EJLj0EEJEJEEERSt5tupleIJDpT_EERSA_IJDpT1_EESt12_Index_tupleIJXspT0_EEESJ_IJXspT2_EEE = comdat any

$_ZNKSt23_Rb_tree_const_iteratorISt4pairIKNSt7__cxx1112basic_stringIcSt11char_traitsIcESaIcEEES6_EE13_M_const_castEv = comdat any

$_ZNKSt8_Rb_treeINSt7__cxx1112basic_stringIcSt11char_traitsIcESaIcEEESt4pairIKS5_S5_ESt10_Select1stIS8_ESt4lessIS5_ESaIS8_EE4sizeEv = comdat any

$_ZNSt8_Rb_treeINSt7__cxx1112basic_stringIcSt11char_traitsIcESaIcEEESt4pairIKS5_S5_ESt10_Select1stIS8_ESt4lessIS5_ESaIS8_EE6_S_keyEPKSt18_Rb_tree_node_base = comdat any

$_ZNSt8_Rb_treeINSt7__cxx1112basic_stringIcSt11char_traitsIcESaIcEEESt4pairIKS5_S5_ESt10_Select1stIS8_ESt4lessIS5_ESaIS8_EE12_M_rightmostEv = comdat any

$_ZNSt8_Rb_treeINSt7__cxx1112basic_stringIcSt11char_traitsIcESaIcEEESt4pairIKS5_S5_ESt10_Select1stIS8_ESt4lessIS5_ESaIS8_EE24_M_get_insert_unique_posERS7_ = comdat any

$_ZNSt8_Rb_treeINSt7__cxx1112basic_stringIcSt11char_traitsIcESaIcEEESt4pairIKS5_S5_ESt10_Select1stIS8_ESt4lessIS5_ESaIS8_EE11_M_leftmostEv = comdat any

$_ZNSt17_Rb_tree_iteratorISt4pairIKNSt7__cxx1112basic_stringIcSt11char_traitsIcESaIcEEES6_EEmmEv = comdat any

$_ZNSt17_Rb_tree_iteratorISt4pairIKNSt7__cxx1112basic_stringIcSt11char_traitsIcESaIcEEES6_EEppEv = comdat any

$_ZNSt8_Rb_treeINSt7__cxx1112basic_stringIcSt11char_traitsIcESaIcEEESt4pairIKS5_S5_ESt10_Select1stIS8_ESt4lessIS5_ESaIS8_EE5beginEv = comdat any

$_ZNSt4pairIPSt18_Rb_tree_node_baseS1_EC2IRPSt13_Rb_tree_nodeIS_IKNSt7__cxx1112basic_stringIcSt11char_traitsIcESaIcEEESA_EERS1_Lb1EEEOT_OT0_ = comdat any

$_ZNSt8_Rb_treeINSt7__cxx1112basic_stringIcSt11char_traitsIcESaIcEEESt4pairIKS5_St3mapIS5_iSt4lessIS5_ESaIS6_IS7_iEEEESt10_Select1stISE_ESA_SaISE_EE5beginEv = comdat any

$_ZNSt17_Rb_tree_iteratorISt4pairIKNSt7__cxx1112basic_stringIcSt11char_traitsIcESaIcEEESt3mapIS6_iSt4lessIS6_ESaIS0_IS7_iEEEEEC2EPSt18_Rb_tree_node_base = comdat any

$_ZNSt8_Rb_treeINSt7__cxx1112basic_stringIcSt11char_traitsIcESaIcEEESt4pairIKS5_St3mapIS5_iSt4lessIS5_ESaIS6_IS7_iEEEESt10_Select1stISE_ESA_SaISE_EE3endEv = comdat any

$_ZN9__gnu_cxx17__normal_iteratorIP8pathInfoSt6vectorIS1_SaIS1_EEEC2ERKS2_ = comdat any

$_ZNK9__gnu_cxx17__normal_iteratorIP8pathInfoSt6vectorIS1_SaIS1_EEE4baseEv = comdat any

$_ZNSt3mapINSt7__cxx1112basic_stringIcSt11char_traitsIcESaIcEEESt3setIS5_St4lessIS5_ESaIS5_EES8_SaISt4pairIKS5_SA_EEE11lower_boundERSC_ = comdat any

$_ZSteqRKSt17_Rb_tree_iteratorISt4pairIKNSt7__cxx1112basic_stringIcSt11char_traitsIcESaIcEEESt3setIS6_St4lessIS6_ESaIS6_EEEESG_ = comdat any

$_ZNKSt3mapINSt7__cxx1112basic_stringIcSt11char_traitsIcESaIcEEESt3setIS5_St4lessIS5_ESaIS5_EES8_SaISt4pairIKS5_SA_EEE8key_compEv = comdat any

$_ZNSt8_Rb_treeINSt7__cxx1112basic_stringIcSt11char_traitsIcESaIcEEESt4pairIKS5_St3setIS5_St4lessIS5_ESaIS5_EEESt10_Select1stISD_ESA_SaISD_EE22_M_emplace_hint_uniqueIJRKSt21piecewise_construct_tSt5tupleIJRS7_EESM_IJEEEEESt17_Rb_tree_iteratorISD_ESt23_Rb_tree_const_iteratorISD_EDpOT_ = comdat any

$_ZNSt23_Rb_tree_const_iteratorISt4pairIKNSt7__cxx1112basic_stringIcSt11char_traitsIcESaIcEEESt3setIS6_St4lessIS6_ESaIS6_EEEEC2ERKSt17_Rb_tree_iteratorISD_E = comdat any

$_ZNSt8_Rb_treeINSt7__cxx1112basic_stringIcSt11char_traitsIcESaIcEEESt4pairIKS5_St3setIS5_St4lessIS5_ESaIS5_EEESt10_Select1stISD_ESA_SaISD_EE11lower_boundERS7_ = comdat any

$_ZNSt8_Rb_treeINSt7__cxx1112basic_stringIcSt11char_traitsIcESaIcEEESt4pairIKS5_St3setIS5_St4lessIS5_ESaIS5_EEESt10_Select1stISD_ESA_SaISD_EE14_M_lower_boundEPSt13_Rb_tree_nodeISD_EPSt18_Rb_tree_node_baseRS7_ = comdat any

$_ZNSt8_Rb_treeINSt7__cxx1112basic_stringIcSt11char_traitsIcESaIcEEESt4pairIKS5_St3setIS5_St4lessIS5_ESaIS5_EEESt10_Select1stISD_ESA_SaISD_EE6_M_endEv = comdat any

$_ZNSt8_Rb_treeINSt7__cxx1112basic_stringIcSt11char_traitsIcESaIcEEESt4pairIKS5_St3setIS5_St4lessIS5_ESaIS5_EEESt10_Select1stISD_ESA_SaISD_EE6_S_keyEPKSt13_Rb_tree_nodeISD_E = comdat any

$_ZNKSt10_Select1stISt4pairIKNSt7__cxx1112basic_stringIcSt11char_traitsIcESaIcEEESt3setIS6_St4lessIS6_ESaIS6_EEEEclERKSD_ = comdat any

$_ZNKSt13_Rb_tree_nodeISt4pairIKNSt7__cxx1112basic_stringIcSt11char_traitsIcESaIcEEESt3setIS6_St4lessIS6_ESaIS6_EEEE9_M_valptrEv = comdat any

$_ZNK9__gnu_cxx16__aligned_membufISt4pairIKNSt7__cxx1112basic_stringIcSt11char_traitsIcESaIcEEESt3setIS7_St4lessIS7_ESaIS7_EEEE6_M_ptrEv = comdat any

$_ZNK9__gnu_cxx16__aligned_membufISt4pairIKNSt7__cxx1112basic_stringIcSt11char_traitsIcESaIcEEESt3setIS7_St4lessIS7_ESaIS7_EEEE7_M_addrEv = comdat any

$_ZNKSt8_Rb_treeINSt7__cxx1112basic_stringIcSt11char_traitsIcESaIcEEESt4pairIKS5_St3setIS5_St4lessIS5_ESaIS5_EEESt10_Select1stISD_ESA_SaISD_EE8key_compEv = comdat any

$_ZNSt8_Rb_treeINSt7__cxx1112basic_stringIcSt11char_traitsIcESaIcEEESt4pairIKS5_St3setIS5_St4lessIS5_ESaIS5_EEESt10_Select1stISD_ESA_SaISD_EE14_M_create_nodeIJRKSt21piecewise_construct_tSt5tupleIJRS7_EESM_IJEEEEEPSt13_Rb_tree_nodeISD_EDpOT_ = comdat any

$_ZNSt8_Rb_treeINSt7__cxx1112basic_stringIcSt11char_traitsIcESaIcEEESt4pairIKS5_St3setIS5_St4lessIS5_ESaIS5_EEESt10_Select1stISD_ESA_SaISD_EE29_M_get_insert_hint_unique_posESt23_Rb_tree_const_iteratorISD_ERS7_ = comdat any

$_ZNSt8_Rb_treeINSt7__cxx1112basic_stringIcSt11char_traitsIcESaIcEEESt4pairIKS5_St3setIS5_St4lessIS5_ESaIS5_EEESt10_Select1stISD_ESA_SaISD_EE14_M_insert_nodeEPSt18_Rb_tree_node_baseSJ_PSt13_Rb_tree_nodeISD_E = comdat any

$_ZNSt8_Rb_treeINSt7__cxx1112basic_stringIcSt11char_traitsIcESaIcEEESt4pairIKS5_St3setIS5_St4lessIS5_ESaIS5_EEESt10_Select1stISD_ESA_SaISD_EE11_M_get_nodeEv = comdat any

$_ZNSt8_Rb_treeINSt7__cxx1112basic_stringIcSt11char_traitsIcESaIcEEESt4pairIKS5_St3setIS5_St4lessIS5_ESaIS5_EEESt10_Select1stISD_ESA_SaISD_EE17_M_construct_nodeIJRKSt21piecewise_construct_tSt5tupleIJRS7_EESM_IJEEEEEvPSt13_Rb_tree_nodeISD_EDpOT_ = comdat any

$_ZNSt16allocator_traitsISaISt13_Rb_tree_nodeISt4pairIKNSt7__cxx1112basic_stringIcSt11char_traitsIcESaIcEEESt3setIS7_St4lessIS7_ESaIS7_EEEEEE8allocateERSG_j = comdat any

$_ZN9__gnu_cxx13new_allocatorISt13_Rb_tree_nodeISt4pairIKNSt7__cxx1112basic_stringIcSt11char_traitsIcESaIcEEESt3setIS8_St4lessIS8_ESaIS8_EEEEE8allocateEjPKv = comdat any

$_ZNK9__gnu_cxx13new_allocatorISt13_Rb_tree_nodeISt4pairIKNSt7__cxx1112basic_stringIcSt11char_traitsIcESaIcEEESt3setIS8_St4lessIS8_ESaIS8_EEEEE8max_sizeEv = comdat any

$_ZNSt16allocator_traitsISaISt13_Rb_tree_nodeISt4pairIKNSt7__cxx1112basic_stringIcSt11char_traitsIcESaIcEEESt3setIS7_St4lessIS7_ESaIS7_EEEEEE9constructISE_JRKSt21piecewise_construct_tSt5tupleIJRS8_EESM_IJEEEEEvRSG_PT_DpOT0_ = comdat any

$_ZN9__gnu_cxx13new_allocatorISt13_Rb_tree_nodeISt4pairIKNSt7__cxx1112basic_stringIcSt11char_traitsIcESaIcEEESt3setIS8_St4lessIS8_ESaIS8_EEEEE9constructISF_JRKSt21piecewise_construct_tSt5tupleIJRS9_EESM_IJEEEEEvPT_DpOT0_ = comdat any

$_ZNSt4pairIKNSt7__cxx1112basic_stringIcSt11char_traitsIcESaIcEEESt3setIS5_St4lessIS5_ESaIS5_EEEC2IJRS6_EJEEESt21piecewise_construct_tSt5tupleIJDpT_EESG_IJDpT0_EE = comdat any

$_ZNSt4pairIKNSt7__cxx1112basic_stringIcSt11char_traitsIcESaIcEEESt3setIS5_St4lessIS5_ESaIS5_EEEC2IJRS6_EJLj0EEJEJEEERSt5tupleIJDpT_EERSF_IJDpT1_EESt12_Index_tupleIJXspT0_EEESO_IJXspT2_EEE = comdat any

$_ZNKSt23_Rb_tree_const_iteratorISt4pairIKNSt7__cxx1112basic_stringIcSt11char_traitsIcESaIcEEESt3setIS6_St4lessIS6_ESaIS6_EEEE13_M_const_castEv = comdat any

$_ZNKSt8_Rb_treeINSt7__cxx1112basic_stringIcSt11char_traitsIcESaIcEEESt4pairIKS5_St3setIS5_St4lessIS5_ESaIS5_EEESt10_Select1stISD_ESA_SaISD_EE4sizeEv = comdat any

$_ZNSt8_Rb_treeINSt7__cxx1112basic_stringIcSt11char_traitsIcESaIcEEESt4pairIKS5_St3setIS5_St4lessIS5_ESaIS5_EEESt10_Select1stISD_ESA_SaISD_EE6_S_keyEPKSt18_Rb_tree_node_base = comdat any

$_ZNSt8_Rb_treeINSt7__cxx1112basic_stringIcSt11char_traitsIcESaIcEEESt4pairIKS5_St3setIS5_St4lessIS5_ESaIS5_EEESt10_Select1stISD_ESA_SaISD_EE12_M_rightmostEv = comdat any

$_ZNSt8_Rb_treeINSt7__cxx1112basic_stringIcSt11char_traitsIcESaIcEEESt4pairIKS5_St3setIS5_St4lessIS5_ESaIS5_EEESt10_Select1stISD_ESA_SaISD_EE24_M_get_insert_unique_posERS7_ = comdat any

$_ZNSt8_Rb_treeINSt7__cxx1112basic_stringIcSt11char_traitsIcESaIcEEESt4pairIKS5_St3setIS5_St4lessIS5_ESaIS5_EEESt10_Select1stISD_ESA_SaISD_EE11_M_leftmostEv = comdat any

$_ZNSt17_Rb_tree_iteratorISt4pairIKNSt7__cxx1112basic_stringIcSt11char_traitsIcESaIcEEESt3setIS6_St4lessIS6_ESaIS6_EEEEmmEv = comdat any

$_ZNSt4pairIPSt18_Rb_tree_node_baseS1_EC2IRPSt13_Rb_tree_nodeIS_IKNSt7__cxx1112basic_stringIcSt11char_traitsIcESaIcEEESt3setISA_St4lessISA_ESaISA_EEEERS1_Lb1EEEOT_OT0_ = comdat any

$_ZNSt8_Rb_treeINSt7__cxx1112basic_stringIcSt11char_traitsIcESaIcEEESt4pairIKS5_S5_ESt10_Select1stIS8_ESt4lessIS5_ESaIS8_EE4findERS7_ = comdat any

$_ZNSt8_Rb_treeINSt7__cxx1112basic_stringIcSt11char_traitsIcESaIcEEESt4pairIKS5_S5_ESt10_Select1stIS8_ESt4lessIS5_ESaIS8_EE3endEv = comdat any

$_ZNSt8_Rb_treeINSt7__cxx1112basic_stringIcSt11char_traitsIcESaIcEEESt4pairIKS5_St3mapIS5_iSt4lessIS5_ESaIS6_IS7_iEEEESt10_Select1stISE_ESA_SaISE_EE4findERS7_ = comdat any

$_ZNSt8_Rb_treeINSt7__cxx1112basic_stringIcSt11char_traitsIcESaIcEEESt4pairIKS5_St3mapIS5_iSt4lessIS5_ESaIS6_IS7_iEEEESt10_Select1stISE_ESA_SaISE_EE14_M_lower_boundEPSt13_Rb_tree_nodeISE_EPSt18_Rb_tree_node_baseRS7_ = comdat any

$_ZNSt8_Rb_treeINSt7__cxx1112basic_stringIcSt11char_traitsIcESaIcEEESt4pairIKS5_St3mapIS5_iSt4lessIS5_ESaIS6_IS7_iEEEESt10_Select1stISE_ESA_SaISE_EE6_M_endEv = comdat any

$_ZNSt8_Rb_treeINSt7__cxx1112basic_stringIcSt11char_traitsIcESaIcEEESt4pairIKS5_St3mapIS5_iSt4lessIS5_ESaIS6_IS7_iEEEESt10_Select1stISE_ESA_SaISE_EE6_S_keyEPKSt18_Rb_tree_node_base = comdat any

$_ZNSt8_Rb_treeINSt7__cxx1112basic_stringIcSt11char_traitsIcESaIcEEESt4pairIKS5_St3mapIS5_iSt4lessIS5_ESaIS6_IS7_iEEEESt10_Select1stISE_ESA_SaISE_EE6_S_keyEPKSt13_Rb_tree_nodeISE_E = comdat any

$_ZNKSt10_Select1stISt4pairIKNSt7__cxx1112basic_stringIcSt11char_traitsIcESaIcEEESt3mapIS6_iSt4lessIS6_ESaIS0_IS7_iEEEEEclERKSE_ = comdat any

$_ZNKSt13_Rb_tree_nodeISt4pairIKNSt7__cxx1112basic_stringIcSt11char_traitsIcESaIcEEESt3mapIS6_iSt4lessIS6_ESaIS0_IS7_iEEEEE9_M_valptrEv = comdat any

$_ZNK9__gnu_cxx16__aligned_membufISt4pairIKNSt7__cxx1112basic_stringIcSt11char_traitsIcESaIcEEESt3mapIS7_iSt4lessIS7_ESaIS1_IS8_iEEEEE6_M_ptrEv = comdat any

$_ZNK9__gnu_cxx16__aligned_membufISt4pairIKNSt7__cxx1112basic_stringIcSt11char_traitsIcESaIcEEESt3mapIS7_iSt4lessIS7_ESaIS1_IS8_iEEEEE7_M_addrEv = comdat any

$_ZNSt3mapINSt7__cxx1112basic_stringIcSt11char_traitsIcESaIcEEES_IS5_iSt4lessIS5_ESaISt4pairIKS5_iEEES7_SaIS8_IS9_SC_EEE11lower_boundERS9_ = comdat any

$_ZNKSt3mapINSt7__cxx1112basic_stringIcSt11char_traitsIcESaIcEEES_IS5_iSt4lessIS5_ESaISt4pairIKS5_iEEES7_SaIS8_IS9_SC_EEE8key_compEv = comdat any

$_ZNSt8_Rb_treeINSt7__cxx1112basic_stringIcSt11char_traitsIcESaIcEEESt4pairIKS5_St3mapIS5_iSt4lessIS5_ESaIS6_IS7_iEEEESt10_Select1stISE_ESA_SaISE_EE22_M_emplace_hint_uniqueIJRKSt21piecewise_construct_tSt5tupleIJRS7_EESN_IJEEEEESt17_Rb_tree_iteratorISE_ESt23_Rb_tree_const_iteratorISE_EDpOT_ = comdat any

$_ZNSt23_Rb_tree_const_iteratorISt4pairIKNSt7__cxx1112basic_stringIcSt11char_traitsIcESaIcEEESt3mapIS6_iSt4lessIS6_ESaIS0_IS7_iEEEEEC2ERKSt17_Rb_tree_iteratorISE_E = comdat any

$_ZNSt8_Rb_treeINSt7__cxx1112basic_stringIcSt11char_traitsIcESaIcEEESt4pairIKS5_St3mapIS5_iSt4lessIS5_ESaIS6_IS7_iEEEESt10_Select1stISE_ESA_SaISE_EE11lower_boundERS7_ = comdat any

$_ZNKSt8_Rb_treeINSt7__cxx1112basic_stringIcSt11char_traitsIcESaIcEEESt4pairIKS5_St3mapIS5_iSt4lessIS5_ESaIS6_IS7_iEEEESt10_Select1stISE_ESA_SaISE_EE8key_compEv = comdat any

$_ZNSt8_Rb_treeINSt7__cxx1112basic_stringIcSt11char_traitsIcESaIcEEESt4pairIKS5_St3mapIS5_iSt4lessIS5_ESaIS6_IS7_iEEEESt10_Select1stISE_ESA_SaISE_EE14_M_create_nodeIJRKSt21piecewise_construct_tSt5tupleIJRS7_EESN_IJEEEEEPSt13_Rb_tree_nodeISE_EDpOT_ = comdat any

$_ZNSt8_Rb_treeINSt7__cxx1112basic_stringIcSt11char_traitsIcESaIcEEESt4pairIKS5_St3mapIS5_iSt4lessIS5_ESaIS6_IS7_iEEEESt10_Select1stISE_ESA_SaISE_EE29_M_get_insert_hint_unique_posESt23_Rb_tree_const_iteratorISE_ERS7_ = comdat any

$_ZNSt8_Rb_treeINSt7__cxx1112basic_stringIcSt11char_traitsIcESaIcEEESt4pairIKS5_St3mapIS5_iSt4lessIS5_ESaIS6_IS7_iEEEESt10_Select1stISE_ESA_SaISE_EE14_M_insert_nodeEPSt18_Rb_tree_node_baseSK_PSt13_Rb_tree_nodeISE_E = comdat any

$_ZNSt8_Rb_treeINSt7__cxx1112basic_stringIcSt11char_traitsIcESaIcEEESt4pairIKS5_St3mapIS5_iSt4lessIS5_ESaIS6_IS7_iEEEESt10_Select1stISE_ESA_SaISE_EE11_M_get_nodeEv = comdat any

$_ZNSt8_Rb_treeINSt7__cxx1112basic_stringIcSt11char_traitsIcESaIcEEESt4pairIKS5_St3mapIS5_iSt4lessIS5_ESaIS6_IS7_iEEEESt10_Select1stISE_ESA_SaISE_EE17_M_construct_nodeIJRKSt21piecewise_construct_tSt5tupleIJRS7_EESN_IJEEEEEvPSt13_Rb_tree_nodeISE_EDpOT_ = comdat any

$_ZNSt16allocator_traitsISaISt13_Rb_tree_nodeISt4pairIKNSt7__cxx1112basic_stringIcSt11char_traitsIcESaIcEEESt3mapIS7_iSt4lessIS7_ESaIS1_IS8_iEEEEEEE8allocateERSH_j = comdat any

$_ZN9__gnu_cxx13new_allocatorISt13_Rb_tree_nodeISt4pairIKNSt7__cxx1112basic_stringIcSt11char_traitsIcESaIcEEESt3mapIS8_iSt4lessIS8_ESaIS2_IS9_iEEEEEE8allocateEjPKv = comdat any

$_ZNK9__gnu_cxx13new_allocatorISt13_Rb_tree_nodeISt4pairIKNSt7__cxx1112basic_stringIcSt11char_traitsIcESaIcEEESt3mapIS8_iSt4lessIS8_ESaIS2_IS9_iEEEEEE8max_sizeEv = comdat any

$_ZNSt16allocator_traitsISaISt13_Rb_tree_nodeISt4pairIKNSt7__cxx1112basic_stringIcSt11char_traitsIcESaIcEEESt3mapIS7_iSt4lessIS7_ESaIS1_IS8_iEEEEEEE9constructISF_JRKSt21piecewise_construct_tSt5tupleIJRS8_EESN_IJEEEEEvRSH_PT_DpOT0_ = comdat any

$_ZN9__gnu_cxx13new_allocatorISt13_Rb_tree_nodeISt4pairIKNSt7__cxx1112basic_stringIcSt11char_traitsIcESaIcEEESt3mapIS8_iSt4lessIS8_ESaIS2_IS9_iEEEEEE9constructISG_JRKSt21piecewise_construct_tSt5tupleIJRS9_EESN_IJEEEEEvPT_DpOT0_ = comdat any

$_ZNSt4pairIKNSt7__cxx1112basic_stringIcSt11char_traitsIcESaIcEEESt3mapIS5_iSt4lessIS5_ESaIS_IS6_iEEEEC2IJRS6_EJEEESt21piecewise_construct_tSt5tupleIJDpT_EESH_IJDpT0_EE = comdat any

$_ZNSt4pairIKNSt7__cxx1112basic_stringIcSt11char_traitsIcESaIcEEESt3mapIS5_iSt4lessIS5_ESaIS_IS6_iEEEEC2IJRS6_EJLj0EEJEJEEERSt5tupleIJDpT_EERSG_IJDpT1_EESt12_Index_tupleIJXspT0_EEESP_IJXspT2_EEE = comdat any

$_ZNKSt23_Rb_tree_const_iteratorISt4pairIKNSt7__cxx1112basic_stringIcSt11char_traitsIcESaIcEEESt3mapIS6_iSt4lessIS6_ESaIS0_IS7_iEEEEE13_M_const_castEv = comdat any

$_ZNKSt8_Rb_treeINSt7__cxx1112basic_stringIcSt11char_traitsIcESaIcEEESt4pairIKS5_St3mapIS5_iSt4lessIS5_ESaIS6_IS7_iEEEESt10_Select1stISE_ESA_SaISE_EE4sizeEv = comdat any

$_ZNSt8_Rb_treeINSt7__cxx1112basic_stringIcSt11char_traitsIcESaIcEEESt4pairIKS5_St3mapIS5_iSt4lessIS5_ESaIS6_IS7_iEEEESt10_Select1stISE_ESA_SaISE_EE12_M_rightmostEv = comdat any

$_ZNSt8_Rb_treeINSt7__cxx1112basic_stringIcSt11char_traitsIcESaIcEEESt4pairIKS5_St3mapIS5_iSt4lessIS5_ESaIS6_IS7_iEEEESt10_Select1stISE_ESA_SaISE_EE24_M_get_insert_unique_posERS7_ = comdat any

$_ZNSt8_Rb_treeINSt7__cxx1112basic_stringIcSt11char_traitsIcESaIcEEESt4pairIKS5_St3mapIS5_iSt4lessIS5_ESaIS6_IS7_iEEEESt10_Select1stISE_ESA_SaISE_EE11_M_leftmostEv = comdat any

$_ZNSt17_Rb_tree_iteratorISt4pairIKNSt7__cxx1112basic_stringIcSt11char_traitsIcESaIcEEESt3mapIS6_iSt4lessIS6_ESaIS0_IS7_iEEEEEmmEv = comdat any

$_ZNSt4pairIPSt18_Rb_tree_node_baseS1_EC2IRPSt13_Rb_tree_nodeIS_IKNSt7__cxx1112basic_stringIcSt11char_traitsIcESaIcEEESt3mapISA_iSt4lessISA_ESaIS_ISB_iEEEEERS1_Lb1EEEOT_OT0_ = comdat any

$_ZNSt11char_traitsIcE7compareEPKcS2_j = comdat any

$_ZN9__gnu_cxxeqIPKNSt7__cxx1112basic_stringIcSt11char_traitsIcESaIcEEESt6vectorIS6_SaIS6_EEEEbRKNS_17__normal_iteratorIT_T0_EESH_ = comdat any

$_ZNSt8_Rb_treeISt6vectorINSt7__cxx1112basic_stringIcSt11char_traitsIcESaIcEEESaIS6_EESt4pairIKS8_iESt10_Select1stISB_ESt4lessIS8_ESaISB_EE4findERSA_ = comdat any

$_ZNSt8_Rb_treeISt6vectorINSt7__cxx1112basic_stringIcSt11char_traitsIcESaIcEEESaIS6_EESt4pairIKS8_iESt10_Select1stISB_ESt4lessIS8_ESaISB_EE14_M_lower_boundEPSt13_Rb_tree_nodeISB_EPSt18_Rb_tree_node_baseRSA_ = comdat any

$_ZNSt8_Rb_treeISt6vectorINSt7__cxx1112basic_stringIcSt11char_traitsIcESaIcEEESaIS6_EESt4pairIKS8_iESt10_Select1stISB_ESt4lessIS8_ESaISB_EE6_M_endEv = comdat any

$_ZNSt8_Rb_treeISt6vectorINSt7__cxx1112basic_stringIcSt11char_traitsIcESaIcEEESaIS6_EESt4pairIKS8_iESt10_Select1stISB_ESt4lessIS8_ESaISB_EE3endEv = comdat any

$_ZNKSt4lessISt6vectorINSt7__cxx1112basic_stringIcSt11char_traitsIcESaIcEEESaIS6_EEEclERKS8_SB_ = comdat any

$_ZNSt8_Rb_treeISt6vectorINSt7__cxx1112basic_stringIcSt11char_traitsIcESaIcEEESaIS6_EESt4pairIKS8_iESt10_Select1stISB_ESt4lessIS8_ESaISB_EE6_S_keyEPKSt18_Rb_tree_node_base = comdat any

$_ZNSt8_Rb_treeISt6vectorINSt7__cxx1112basic_stringIcSt11char_traitsIcESaIcEEESaIS6_EESt4pairIKS8_iESt10_Select1stISB_ESt4lessIS8_ESaISB_EE6_S_keyEPKSt13_Rb_tree_nodeISB_E = comdat any

$_ZNSt17_Rb_tree_iteratorISt4pairIKSt6vectorINSt7__cxx1112basic_stringIcSt11char_traitsIcESaIcEEESaIS7_EEiEEC2EPSt18_Rb_tree_node_base = comdat any

$_ZNKSt10_Select1stISt4pairIKSt6vectorINSt7__cxx1112basic_stringIcSt11char_traitsIcESaIcEEESaIS7_EEiEEclERKSB_ = comdat any

$_ZNKSt13_Rb_tree_nodeISt4pairIKSt6vectorINSt7__cxx1112basic_stringIcSt11char_traitsIcESaIcEEESaIS7_EEiEE9_M_valptrEv = comdat any

$_ZNK9__gnu_cxx16__aligned_membufISt4pairIKSt6vectorINSt7__cxx1112basic_stringIcSt11char_traitsIcESaIcEEESaIS8_EEiEE6_M_ptrEv = comdat any

$_ZNK9__gnu_cxx16__aligned_membufISt4pairIKSt6vectorINSt7__cxx1112basic_stringIcSt11char_traitsIcESaIcEEESaIS8_EEiEE7_M_addrEv = comdat any

$_ZStltINSt7__cxx1112basic_stringIcSt11char_traitsIcESaIcEEESaIS5_EEbRKSt6vectorIT_T0_ESC_ = comdat any

$_ZSt23lexicographical_compareIN9__gnu_cxx17__normal_iteratorIPKNSt7__cxx1112basic_stringIcSt11char_traitsIcESaIcEEESt6vectorIS7_SaIS7_EEEESD_EbT_SE_T0_SF_ = comdat any

$_ZSt29__lexicographical_compare_auxIPKNSt7__cxx1112basic_stringIcSt11char_traitsIcESaIcEEES7_EbT_S8_T0_S9_ = comdat any

$_ZSt12__niter_baseIPKNSt7__cxx1112basic_stringIcSt11char_traitsIcESaIcEEESt6vectorIS5_SaIS5_EEET_N9__gnu_cxx17__normal_iteratorISB_T0_EE = comdat any

$_ZNSt25__lexicographical_compareILb0EE4__lcIPKNSt7__cxx1112basic_stringIcSt11char_traitsIcESaIcEEES9_EEbT_SA_T0_SB_ = comdat any

$_ZSt30__lexicographical_compare_implIPKNSt7__cxx1112basic_stringIcSt11char_traitsIcESaIcEEES7_N9__gnu_cxx5__ops15_Iter_less_iterEEbT_SB_T0_SC_T1_ = comdat any

$_ZN9__gnu_cxx5__ops16__iter_less_iterEv = comdat any

$_ZNSt8__lc_raiISt26random_access_iterator_tagS0_E10__newlast1IPKNSt7__cxx1112basic_stringIcSt11char_traitsIcESaIcEEESA_EET_SB_SB_T0_SC_ = comdat any

$_ZNSt8__lc_raiISt26random_access_iterator_tagS0_E6__cnd2IPKNSt7__cxx1112basic_stringIcSt11char_traitsIcESaIcEEEEEbT_SB_ = comdat any

$_ZNK9__gnu_cxx5__ops15_Iter_less_iterclIPKNSt7__cxx1112basic_stringIcSt11char_traitsIcESaIcEEESA_EEbT_T0_ = comdat any

$_ZNSt3mapISt6vectorINSt7__cxx1112basic_stringIcSt11char_traitsIcESaIcEEESaIS6_EEiSt4lessIS8_ESaISt4pairIKS8_iEEE11lower_boundERSC_ = comdat any

$_ZNKSt3mapISt6vectorINSt7__cxx1112basic_stringIcSt11char_traitsIcESaIcEEESaIS6_EEiSt4lessIS8_ESaISt4pairIKS8_iEEE8key_compEv = comdat any

$_ZNKSt17_Rb_tree_iteratorISt4pairIKSt6vectorINSt7__cxx1112basic_stringIcSt11char_traitsIcESaIcEEESaIS7_EEiEEdeEv = comdat any

$_ZNSt8_Rb_treeISt6vectorINSt7__cxx1112basic_stringIcSt11char_traitsIcESaIcEEESaIS6_EESt4pairIKS8_iESt10_Select1stISB_ESt4lessIS8_ESaISB_EE22_M_emplace_hint_uniqueIJRKSt21piecewise_construct_tSt5tupleIJOS8_EESM_IJEEEEESt17_Rb_tree_iteratorISB_ESt23_Rb_tree_const_iteratorISB_EDpOT_ = comdat any

$_ZNSt23_Rb_tree_const_iteratorISt4pairIKSt6vectorINSt7__cxx1112basic_stringIcSt11char_traitsIcESaIcEEESaIS7_EEiEEC2ERKSt17_Rb_tree_iteratorISB_E = comdat any

$_ZSt16forward_as_tupleIJSt6vectorINSt7__cxx1112basic_stringIcSt11char_traitsIcESaIcEEESaIS6_EEEESt5tupleIJDpOT_EESC_ = comdat any

$_ZNSt8_Rb_treeISt6vectorINSt7__cxx1112basic_stringIcSt11char_traitsIcESaIcEEESaIS6_EESt4pairIKS8_iESt10_Select1stISB_ESt4lessIS8_ESaISB_EE11lower_boundERSA_ = comdat any

$_ZNKSt8_Rb_treeISt6vectorINSt7__cxx1112basic_stringIcSt11char_traitsIcESaIcEEESaIS6_EESt4pairIKS8_iESt10_Select1stISB_ESt4lessIS8_ESaISB_EE8key_compEv = comdat any

$_ZNSt8_Rb_treeISt6vectorINSt7__cxx1112basic_stringIcSt11char_traitsIcESaIcEEESaIS6_EESt4pairIKS8_iESt10_Select1stISB_ESt4lessIS8_ESaISB_EE14_M_create_nodeIJRKSt21piecewise_construct_tSt5tupleIJOS8_EESM_IJEEEEEPSt13_Rb_tree_nodeISB_EDpOT_ = comdat any

$_ZNSt8_Rb_treeISt6vectorINSt7__cxx1112basic_stringIcSt11char_traitsIcESaIcEEESaIS6_EESt4pairIKS8_iESt10_Select1stISB_ESt4lessIS8_ESaISB_EE29_M_get_insert_hint_unique_posESt23_Rb_tree_const_iteratorISB_ERSA_ = comdat any

$_ZNSt8_Rb_treeISt6vectorINSt7__cxx1112basic_stringIcSt11char_traitsIcESaIcEEESaIS6_EESt4pairIKS8_iESt10_Select1stISB_ESt4lessIS8_ESaISB_EE14_M_insert_nodeEPSt18_Rb_tree_node_baseSJ_PSt13_Rb_tree_nodeISB_E = comdat any

$_ZNSt8_Rb_treeISt6vectorINSt7__cxx1112basic_stringIcSt11char_traitsIcESaIcEEESaIS6_EESt4pairIKS8_iESt10_Select1stISB_ESt4lessIS8_ESaISB_EE11_M_get_nodeEv = comdat any

$_ZNSt8_Rb_treeISt6vectorINSt7__cxx1112basic_stringIcSt11char_traitsIcESaIcEEESaIS6_EESt4pairIKS8_iESt10_Select1stISB_ESt4lessIS8_ESaISB_EE17_M_construct_nodeIJRKSt21piecewise_construct_tSt5tupleIJOS8_EESM_IJEEEEEvPSt13_Rb_tree_nodeISB_EDpOT_ = comdat any

$_ZNSt16allocator_traitsISaISt13_Rb_tree_nodeISt4pairIKSt6vectorINSt7__cxx1112basic_stringIcSt11char_traitsIcESaIcEEESaIS8_EEiEEEE8allocateERSE_j = comdat any

$_ZN9__gnu_cxx13new_allocatorISt13_Rb_tree_nodeISt4pairIKSt6vectorINSt7__cxx1112basic_stringIcSt11char_traitsIcESaIcEEESaIS9_EEiEEE8allocateEjPKv = comdat any

$_ZNK9__gnu_cxx13new_allocatorISt13_Rb_tree_nodeISt4pairIKSt6vectorINSt7__cxx1112basic_stringIcSt11char_traitsIcESaIcEEESaIS9_EEiEEE8max_sizeEv = comdat any

$_ZNSt16allocator_traitsISaISt13_Rb_tree_nodeISt4pairIKSt6vectorINSt7__cxx1112basic_stringIcSt11char_traitsIcESaIcEEESaIS8_EEiEEEE9constructISC_JRKSt21piecewise_construct_tSt5tupleIJOSA_EESK_IJEEEEEvRSE_PT_DpOT0_ = comdat any

$_ZN9__gnu_cxx13new_allocatorISt13_Rb_tree_nodeISt4pairIKSt6vectorINSt7__cxx1112basic_stringIcSt11char_traitsIcESaIcEEESaIS9_EEiEEE9constructISD_JRKSt21piecewise_construct_tSt5tupleIJOSB_EESK_IJEEEEEvPT_DpOT0_ = comdat any

$_ZNSt5tupleIJOSt6vectorINSt7__cxx1112basic_stringIcSt11char_traitsIcESaIcEEESaIS6_EEEEC2EOSA_ = comdat any

$_ZNSt4pairIKSt6vectorINSt7__cxx1112basic_stringIcSt11char_traitsIcESaIcEEESaIS6_EEiEC2IJOS8_EJEEESt21piecewise_construct_tSt5tupleIJDpT_EESE_IJDpT0_EE = comdat any

$_ZNSt11_Tuple_implILj0EJOSt6vectorINSt7__cxx1112basic_stringIcSt11char_traitsIcESaIcEEESaIS6_EEEEC2EOSA_ = comdat any

$_ZNSt11_Tuple_implILj0EJOSt6vectorINSt7__cxx1112basic_stringIcSt11char_traitsIcESaIcEEESaIS6_EEEE7_M_headERSA_ = comdat any

$_ZNSt10_Head_baseILj0EOSt6vectorINSt7__cxx1112basic_stringIcSt11char_traitsIcESaIcEEESaIS6_EELb0EEC2IS8_EEOT_ = comdat any

$_ZNSt10_Head_baseILj0EOSt6vectorINSt7__cxx1112basic_stringIcSt11char_traitsIcESaIcEEESaIS6_EELb0EE7_M_headERSA_ = comdat any

$_ZNSt4pairIKSt6vectorINSt7__cxx1112basic_stringIcSt11char_traitsIcESaIcEEESaIS6_EEiEC2IJOS8_EJLj0EEJEJEEERSt5tupleIJDpT_EERSD_IJDpT1_EESt12_Index_tupleIJXspT0_EEESM_IJXspT2_EEE = comdat any

$_ZSt3getILj0EJOSt6vectorINSt7__cxx1112basic_stringIcSt11char_traitsIcESaIcEEESaIS6_EEEERNSt13tuple_elementIXT_ESt5tupleIJDpT0_EEE4typeERSE_ = comdat any

$_ZSt12__get_helperILj0EOSt6vectorINSt7__cxx1112basic_stringIcSt11char_traitsIcESaIcEEESaIS6_EEJEERT0_RSt11_Tuple_implIXT_EJSA_DpT1_EE = comdat any

$_ZNKSt23_Rb_tree_const_iteratorISt4pairIKSt6vectorINSt7__cxx1112basic_stringIcSt11char_traitsIcESaIcEEESaIS7_EEiEE13_M_const_castEv = comdat any

$_ZNKSt8_Rb_treeISt6vectorINSt7__cxx1112basic_stringIcSt11char_traitsIcESaIcEEESaIS6_EESt4pairIKS8_iESt10_Select1stISB_ESt4lessIS8_ESaISB_EE4sizeEv = comdat any

$_ZNSt8_Rb_treeISt6vectorINSt7__cxx1112basic_stringIcSt11char_traitsIcESaIcEEESaIS6_EESt4pairIKS8_iESt10_Select1stISB_ESt4lessIS8_ESaISB_EE12_M_rightmostEv = comdat any

$_ZNSt8_Rb_treeISt6vectorINSt7__cxx1112basic_stringIcSt11char_traitsIcESaIcEEESaIS6_EESt4pairIKS8_iESt10_Select1stISB_ESt4lessIS8_ESaISB_EE24_M_get_insert_unique_posERSA_ = comdat any

$_ZNSt8_Rb_treeISt6vectorINSt7__cxx1112basic_stringIcSt11char_traitsIcESaIcEEESaIS6_EESt4pairIKS8_iESt10_Select1stISB_ESt4lessIS8_ESaISB_EE11_M_leftmostEv = comdat any

$_ZNSt17_Rb_tree_iteratorISt4pairIKSt6vectorINSt7__cxx1112basic_stringIcSt11char_traitsIcESaIcEEESaIS7_EEiEEmmEv = comdat any

$_ZNSt17_Rb_tree_iteratorISt4pairIKSt6vectorINSt7__cxx1112basic_stringIcSt11char_traitsIcESaIcEEESaIS7_EEiEEppEv = comdat any

$_ZNSt8_Rb_treeISt6vectorINSt7__cxx1112basic_stringIcSt11char_traitsIcESaIcEEESaIS6_EESt4pairIKS8_iESt10_Select1stISB_ESt4lessIS8_ESaISB_EE5beginEv = comdat any

$_ZNSt4pairIPSt18_Rb_tree_node_baseS1_EC2IRPSt13_Rb_tree_nodeIS_IKSt6vectorINSt7__cxx1112basic_stringIcSt11char_traitsIcESaIcEEESaISB_EEiEERS1_Lb1EEEOT_OT0_ = comdat any

$_ZNSt5tupleIJOSt6vectorINSt7__cxx1112basic_stringIcSt11char_traitsIcESaIcEEESaIS6_EEEEC2IJS8_ELb1EEEDpOT_ = comdat any

$_ZNSt11_Tuple_implILj0EJOSt6vectorINSt7__cxx1112basic_stringIcSt11char_traitsIcESaIcEEESaIS6_EEEEC2IS8_EEOT_ = comdat any

$_ZN9__gnu_cxxeqIPK8pathInfoSt6vectorIS1_SaIS1_EEEEbRKNS_17__normal_iteratorIT_T0_EESC_ = comdat any

$_ZNKSt6vectorI8pathInfoSaIS0_EE5beginEv = comdat any

$_ZNKSt6vectorI8pathInfoSaIS0_EE3endEv = comdat any

$_ZNK9__gnu_cxx17__normal_iteratorIPK8pathInfoSt6vectorIS1_SaIS1_EEE4baseEv = comdat any

$_ZN9__gnu_cxx17__normal_iteratorIPK8pathInfoSt6vectorIS1_SaIS1_EEEC2ERKS3_ = comdat any

$_ZNSt16allocator_traitsISaI8pathInfoEE9constructIS0_JRKS0_EEEvRS1_PT_DpOT0_ = comdat any

$_ZNSt6vectorI8pathInfoSaIS0_EE17_M_realloc_insertIJRKS0_EEEvN9__gnu_cxx17__normal_iteratorIPS0_S2_EEDpOT_ = comdat any

$_ZN9__gnu_cxx13new_allocatorI8pathInfoE9constructIS1_JRKS1_EEEvPT_DpOT0_ = comdat any

$_ZNKSt6vectorI8pathInfoSaIS0_EE12_M_check_lenEjPKc = comdat any

$_ZN9__gnu_cxxmiIP8pathInfoSt6vectorIS1_SaIS1_EEEENS_17__normal_iteratorIT_T0_E15difference_typeERKS9_SC_ = comdat any

$_ZNSt12_Vector_baseI8pathInfoSaIS0_EE11_M_allocateEj = comdat any

$_ZNSt6vectorI8pathInfoSaIS0_EE11_S_relocateEPS0_S3_S3_RS1_ = comdat any

$_ZNSt16allocator_traitsISaI8pathInfoEE7destroyIS0_EEvRS1_PT_ = comdat any

$_ZNKSt6vectorI8pathInfoSaIS0_EE8max_sizeEv = comdat any

$_ZNSt6vectorI8pathInfoSaIS0_EE11_S_max_sizeERKS1_ = comdat any

$_ZNKSt12_Vector_baseI8pathInfoSaIS0_EE19_M_get_Tp_allocatorEv = comdat any

$_ZNSt16allocator_traitsISaI8pathInfoEE8max_sizeERKS1_ = comdat any

$_ZNK9__gnu_cxx13new_allocatorI8pathInfoE8max_sizeEv = comdat any

$_ZNSt16allocator_traitsISaI8pathInfoEE8allocateERS1_j = comdat any

$_ZN9__gnu_cxx13new_allocatorI8pathInfoE8allocateEjPKv = comdat any

$_ZNSt6vectorI8pathInfoSaIS0_EE14_S_do_relocateEPS0_S3_S3_RS1_St17integral_constantIbLb1EE = comdat any

$_ZSt12__relocate_aIP8pathInfoS1_SaIS0_EET0_T_S4_S3_RT1_ = comdat any

$_ZSt14__relocate_a_1IP8pathInfoS1_SaIS0_EET0_T_S4_S3_RT1_ = comdat any

$_ZSt12__niter_baseIP8pathInfoET_S2_ = comdat any

$_ZSt19__relocate_object_aI8pathInfoS0_SaIS0_EEvPT_PT0_RT1_ = comdat any

$_ZNSt16allocator_traitsISaI8pathInfoEE9constructIS0_JS0_EEEvRS1_PT_DpOT0_ = comdat any

$_ZN9__gnu_cxx13new_allocatorI8pathInfoE9constructIS1_JS1_EEEvPT_DpOT0_ = comdat any

$_ZN9__gnu_cxx13new_allocatorI8pathInfoE7destroyIS1_EEvPT_ = comdat any

$_ZNSt3mapINSt7__cxx1112basic_stringIcSt11char_traitsIcESaIcEEESt6vectorIS6_I8pathInfoSaIS7_EESaIS9_EESt4lessIS5_ESaISt4pairIKS5_SB_EEE11lower_boundERSF_ = comdat any

$_ZSteqRKSt17_Rb_tree_iteratorISt4pairIKNSt7__cxx1112basic_stringIcSt11char_traitsIcESaIcEEESt6vectorIS8_I8pathInfoSaIS9_EESaISB_EEEESH_ = comdat any

$_ZNSt3mapINSt7__cxx1112basic_stringIcSt11char_traitsIcESaIcEEESt6vectorIS6_I8pathInfoSaIS7_EESaIS9_EESt4lessIS5_ESaISt4pairIKS5_SB_EEE3endEv = comdat any

$_ZNKSt3mapINSt7__cxx1112basic_stringIcSt11char_traitsIcESaIcEEESt6vectorIS6_I8pathInfoSaIS7_EESaIS9_EESt4lessIS5_ESaISt4pairIKS5_SB_EEE8key_compEv = comdat any

$_ZNKSt17_Rb_tree_iteratorISt4pairIKNSt7__cxx1112basic_stringIcSt11char_traitsIcESaIcEEESt6vectorIS8_I8pathInfoSaIS9_EESaISB_EEEEdeEv = comdat any

$_ZNSt8_Rb_treeINSt7__cxx1112basic_stringIcSt11char_traitsIcESaIcEEESt4pairIKS5_St6vectorIS8_I8pathInfoSaIS9_EESaISB_EEESt10_Select1stISE_ESt4lessIS5_ESaISE_EE22_M_emplace_hint_uniqueIJRKSt21piecewise_construct_tSt5tupleIJRS7_EESP_IJEEEEESt17_Rb_tree_iteratorISE_ESt23_Rb_tree_const_iteratorISE_EDpOT_ = comdat any

$_ZNSt23_Rb_tree_const_iteratorISt4pairIKNSt7__cxx1112basic_stringIcSt11char_traitsIcESaIcEEESt6vectorIS8_I8pathInfoSaIS9_EESaISB_EEEEC2ERKSt17_Rb_tree_iteratorISE_E = comdat any

$_ZNSt8_Rb_treeINSt7__cxx1112basic_stringIcSt11char_traitsIcESaIcEEESt4pairIKS5_St6vectorIS8_I8pathInfoSaIS9_EESaISB_EEESt10_Select1stISE_ESt4lessIS5_ESaISE_EE11lower_boundERS7_ = comdat any

$_ZNSt8_Rb_treeINSt7__cxx1112basic_stringIcSt11char_traitsIcESaIcEEESt4pairIKS5_St6vectorIS8_I8pathInfoSaIS9_EESaISB_EEESt10_Select1stISE_ESt4lessIS5_ESaISE_EE14_M_lower_boundEPSt13_Rb_tree_nodeISE_EPSt18_Rb_tree_node_baseRS7_ = comdat any

$_ZNSt8_Rb_treeINSt7__cxx1112basic_stringIcSt11char_traitsIcESaIcEEESt4pairIKS5_St6vectorIS8_I8pathInfoSaIS9_EESaISB_EEESt10_Select1stISE_ESt4lessIS5_ESaISE_EE6_M_endEv = comdat any

$_ZNSt8_Rb_treeINSt7__cxx1112basic_stringIcSt11char_traitsIcESaIcEEESt4pairIKS5_St6vectorIS8_I8pathInfoSaIS9_EESaISB_EEESt10_Select1stISE_ESt4lessIS5_ESaISE_EE6_S_keyEPKSt13_Rb_tree_nodeISE_E = comdat any

$_ZNSt17_Rb_tree_iteratorISt4pairIKNSt7__cxx1112basic_stringIcSt11char_traitsIcESaIcEEESt6vectorIS8_I8pathInfoSaIS9_EESaISB_EEEEC2EPSt18_Rb_tree_node_base = comdat any

$_ZNKSt10_Select1stISt4pairIKNSt7__cxx1112basic_stringIcSt11char_traitsIcESaIcEEESt6vectorIS8_I8pathInfoSaIS9_EESaISB_EEEEclERKSE_ = comdat any

$_ZNKSt13_Rb_tree_nodeISt4pairIKNSt7__cxx1112basic_stringIcSt11char_traitsIcESaIcEEESt6vectorIS8_I8pathInfoSaIS9_EESaISB_EEEE9_M_valptrEv = comdat any

$_ZNK9__gnu_cxx16__aligned_membufISt4pairIKNSt7__cxx1112basic_stringIcSt11char_traitsIcESaIcEEESt6vectorIS9_I8pathInfoSaISA_EESaISC_EEEE6_M_ptrEv = comdat any

$_ZNK9__gnu_cxx16__aligned_membufISt4pairIKNSt7__cxx1112basic_stringIcSt11char_traitsIcESaIcEEESt6vectorIS9_I8pathInfoSaISA_EESaISC_EEEE7_M_addrEv = comdat any

$_ZNSt8_Rb_treeINSt7__cxx1112basic_stringIcSt11char_traitsIcESaIcEEESt4pairIKS5_St6vectorIS8_I8pathInfoSaIS9_EESaISB_EEESt10_Select1stISE_ESt4lessIS5_ESaISE_EE3endEv = comdat any

$_ZNKSt8_Rb_treeINSt7__cxx1112basic_stringIcSt11char_traitsIcESaIcEEESt4pairIKS5_St6vectorIS8_I8pathInfoSaIS9_EESaISB_EEESt10_Select1stISE_ESt4lessIS5_ESaISE_EE8key_compEv = comdat any

$_ZNSt8_Rb_treeINSt7__cxx1112basic_stringIcSt11char_traitsIcESaIcEEESt4pairIKS5_St6vectorIS8_I8pathInfoSaIS9_EESaISB_EEESt10_Select1stISE_ESt4lessIS5_ESaISE_EE14_M_create_nodeIJRKSt21piecewise_construct_tSt5tupleIJRS7_EESP_IJEEEEEPSt13_Rb_tree_nodeISE_EDpOT_ = comdat any

$_ZNSt8_Rb_treeINSt7__cxx1112basic_stringIcSt11char_traitsIcESaIcEEESt4pairIKS5_St6vectorIS8_I8pathInfoSaIS9_EESaISB_EEESt10_Select1stISE_ESt4lessIS5_ESaISE_EE29_M_get_insert_hint_unique_posESt23_Rb_tree_const_iteratorISE_ERS7_ = comdat any

$_ZNSt8_Rb_treeINSt7__cxx1112basic_stringIcSt11char_traitsIcESaIcEEESt4pairIKS5_St6vectorIS8_I8pathInfoSaIS9_EESaISB_EEESt10_Select1stISE_ESt4lessIS5_ESaISE_EE14_M_insert_nodeEPSt18_Rb_tree_node_baseSM_PSt13_Rb_tree_nodeISE_E = comdat any

$_ZNSt8_Rb_treeINSt7__cxx1112basic_stringIcSt11char_traitsIcESaIcEEESt4pairIKS5_St6vectorIS8_I8pathInfoSaIS9_EESaISB_EEESt10_Select1stISE_ESt4lessIS5_ESaISE_EE11_M_get_nodeEv = comdat any

$_ZNSt8_Rb_treeINSt7__cxx1112basic_stringIcSt11char_traitsIcESaIcEEESt4pairIKS5_St6vectorIS8_I8pathInfoSaIS9_EESaISB_EEESt10_Select1stISE_ESt4lessIS5_ESaISE_EE17_M_construct_nodeIJRKSt21piecewise_construct_tSt5tupleIJRS7_EESP_IJEEEEEvPSt13_Rb_tree_nodeISE_EDpOT_ = comdat any

$_ZNSt16allocator_traitsISaISt13_Rb_tree_nodeISt4pairIKNSt7__cxx1112basic_stringIcSt11char_traitsIcESaIcEEESt6vectorIS9_I8pathInfoSaISA_EESaISC_EEEEEE8allocateERSH_j = comdat any

$_ZN9__gnu_cxx13new_allocatorISt13_Rb_tree_nodeISt4pairIKNSt7__cxx1112basic_stringIcSt11char_traitsIcESaIcEEESt6vectorISA_I8pathInfoSaISB_EESaISD_EEEEE8allocateEjPKv = comdat any

$_ZNK9__gnu_cxx13new_allocatorISt13_Rb_tree_nodeISt4pairIKNSt7__cxx1112basic_stringIcSt11char_traitsIcESaIcEEESt6vectorISA_I8pathInfoSaISB_EESaISD_EEEEE8max_sizeEv = comdat any

$_ZNSt16allocator_traitsISaISt13_Rb_tree_nodeISt4pairIKNSt7__cxx1112basic_stringIcSt11char_traitsIcESaIcEEESt6vectorIS9_I8pathInfoSaISA_EESaISC_EEEEEE9constructISF_JRKSt21piecewise_construct_tSt5tupleIJRS8_EESN_IJEEEEEvRSH_PT_DpOT0_ = comdat any

$_ZN9__gnu_cxx13new_allocatorISt13_Rb_tree_nodeISt4pairIKNSt7__cxx1112basic_stringIcSt11char_traitsIcESaIcEEESt6vectorISA_I8pathInfoSaISB_EESaISD_EEEEE9constructISG_JRKSt21piecewise_construct_tSt5tupleIJRS9_EESN_IJEEEEEvPT_DpOT0_ = comdat any

$_ZNSt4pairIKNSt7__cxx1112basic_stringIcSt11char_traitsIcESaIcEEESt6vectorIS7_I8pathInfoSaIS8_EESaISA_EEEC2IJRS6_EJEEESt21piecewise_construct_tSt5tupleIJDpT_EESH_IJDpT0_EE = comdat any

$_ZNSt4pairIKNSt7__cxx1112basic_stringIcSt11char_traitsIcESaIcEEESt6vectorIS7_I8pathInfoSaIS8_EESaISA_EEEC2IJRS6_EJLj0EEJEJEEERSt5tupleIJDpT_EERSG_IJDpT1_EESt12_Index_tupleIJXspT0_EEESP_IJXspT2_EEE = comdat any

$_ZNSt6vectorIS_I8pathInfoSaIS0_EESaIS2_EEC2Ev = comdat any

$_ZNSt12_Vector_baseISt6vectorI8pathInfoSaIS1_EESaIS3_EEC2Ev = comdat any

$_ZNSt12_Vector_baseISt6vectorI8pathInfoSaIS1_EESaIS3_EE12_Vector_implC2Ev = comdat any

$_ZNSaISt6vectorI8pathInfoSaIS0_EEEC2Ev = comdat any

$_ZNSt12_Vector_baseISt6vectorI8pathInfoSaIS1_EESaIS3_EE17_Vector_impl_dataC2Ev = comdat any

$_ZN9__gnu_cxx13new_allocatorISt6vectorI8pathInfoSaIS2_EEEC2Ev = comdat any

$_ZNKSt23_Rb_tree_const_iteratorISt4pairIKNSt7__cxx1112basic_stringIcSt11char_traitsIcESaIcEEESt6vectorIS8_I8pathInfoSaIS9_EESaISB_EEEE13_M_const_castEv = comdat any

$_ZNKSt8_Rb_treeINSt7__cxx1112basic_stringIcSt11char_traitsIcESaIcEEESt4pairIKS5_St6vectorIS8_I8pathInfoSaIS9_EESaISB_EEESt10_Select1stISE_ESt4lessIS5_ESaISE_EE4sizeEv = comdat any

$_ZNSt8_Rb_treeINSt7__cxx1112basic_stringIcSt11char_traitsIcESaIcEEESt4pairIKS5_St6vectorIS8_I8pathInfoSaIS9_EESaISB_EEESt10_Select1stISE_ESt4lessIS5_ESaISE_EE6_S_keyEPKSt18_Rb_tree_node_base = comdat any

$_ZNSt8_Rb_treeINSt7__cxx1112basic_stringIcSt11char_traitsIcESaIcEEESt4pairIKS5_St6vectorIS8_I8pathInfoSaIS9_EESaISB_EEESt10_Select1stISE_ESt4lessIS5_ESaISE_EE12_M_rightmostEv = comdat any

$_ZNSt8_Rb_treeINSt7__cxx1112basic_stringIcSt11char_traitsIcESaIcEEESt4pairIKS5_St6vectorIS8_I8pathInfoSaIS9_EESaISB_EEESt10_Select1stISE_ESt4lessIS5_ESaISE_EE24_M_get_insert_unique_posERS7_ = comdat any

$_ZNSt8_Rb_treeINSt7__cxx1112basic_stringIcSt11char_traitsIcESaIcEEESt4pairIKS5_St6vectorIS8_I8pathInfoSaIS9_EESaISB_EEESt10_Select1stISE_ESt4lessIS5_ESaISE_EE11_M_leftmostEv = comdat any

$_ZNSt17_Rb_tree_iteratorISt4pairIKNSt7__cxx1112basic_stringIcSt11char_traitsIcESaIcEEESt6vectorIS8_I8pathInfoSaIS9_EESaISB_EEEEmmEv = comdat any

$_ZNSt17_Rb_tree_iteratorISt4pairIKNSt7__cxx1112basic_stringIcSt11char_traitsIcESaIcEEESt6vectorIS8_I8pathInfoSaIS9_EESaISB_EEEEppEv = comdat any

$_ZNSt8_Rb_treeINSt7__cxx1112basic_stringIcSt11char_traitsIcESaIcEEESt4pairIKS5_St6vectorIS8_I8pathInfoSaIS9_EESaISB_EEESt10_Select1stISE_ESt4lessIS5_ESaISE_EE5beginEv = comdat any

$_ZNSt4pairIPSt18_Rb_tree_node_baseS1_EC2IRPSt13_Rb_tree_nodeIS_IKNSt7__cxx1112basic_stringIcSt11char_traitsIcESaIcEEESt6vectorISC_I8pathInfoSaISD_EESaISF_EEEERS1_Lb1EEEOT_OT0_ = comdat any

$_ZNSt16allocator_traitsISaISt6vectorI8pathInfoSaIS1_EEEE9constructIS3_JRKS3_EEEvRS4_PT_DpOT0_ = comdat any

$_ZNSt6vectorIS_I8pathInfoSaIS0_EESaIS2_EE17_M_realloc_insertIJRKS2_EEEvN9__gnu_cxx17__normal_iteratorIPS2_S4_EEDpOT_ = comdat any

$_ZNSt6vectorIS_I8pathInfoSaIS0_EESaIS2_EE3endEv = comdat any

$_ZN9__gnu_cxx13new_allocatorISt6vectorI8pathInfoSaIS2_EEE9constructIS4_JRKS4_EEEvPT_DpOT0_ = comdat any

$_ZNSt6vectorI8pathInfoSaIS0_EEC2ERKS2_ = comdat any

$_ZN9__gnu_cxx14__alloc_traitsISaI8pathInfoES1_E17_S_select_on_copyERKS2_ = comdat any

$_ZNSt12_Vector_baseI8pathInfoSaIS0_EEC2EjRKS1_ = comdat any

$_ZNSaI8pathInfoED2Ev = comdat any

$_ZSt22__uninitialized_copy_aIN9__gnu_cxx17__normal_iteratorIPK8pathInfoSt6vectorIS2_SaIS2_EEEEPS2_S2_ET0_T_SB_SA_RSaIT1_E = comdat any

$_ZNSt16allocator_traitsISaI8pathInfoEE37select_on_container_copy_constructionERKS1_ = comdat any

$_ZNSaI8pathInfoEC2ERKS0_ = comdat any

$_ZN9__gnu_cxx13new_allocatorI8pathInfoEC2ERKS2_ = comdat any

$_ZNSt12_Vector_baseI8pathInfoSaIS0_EE12_Vector_implC2ERKS1_ = comdat any

$_ZNSt12_Vector_baseI8pathInfoSaIS0_EE17_M_create_storageEj = comdat any

$_ZSt18uninitialized_copyIN9__gnu_cxx17__normal_iteratorIPK8pathInfoSt6vectorIS2_SaIS2_EEEEPS2_ET0_T_SB_SA_ = comdat any

$_ZNSt20__uninitialized_copyILb0EE13__uninit_copyIN9__gnu_cxx17__normal_iteratorIPK8pathInfoSt6vectorIS4_SaIS4_EEEEPS4_EET0_T_SD_SC_ = comdat any

$_ZN9__gnu_cxxneIPK8pathInfoSt6vectorIS1_SaIS1_EEEEbRKNS_17__normal_iteratorIT_T0_EESC_ = comdat any

$_ZSt10_ConstructI8pathInfoJRKS0_EEvPT_DpOT0_ = comdat any

$_ZNK9__gnu_cxx17__normal_iteratorIPK8pathInfoSt6vectorIS1_SaIS1_EEEdeEv = comdat any

$_ZN9__gnu_cxx17__normal_iteratorIPK8pathInfoSt6vectorIS1_SaIS1_EEEppEv = comdat any

$_ZNKSt6vectorIS_I8pathInfoSaIS0_EESaIS2_EE12_M_check_lenEjPKc = comdat any

$_ZN9__gnu_cxxmiIPSt6vectorI8pathInfoSaIS2_EES1_IS4_SaIS4_EEEENS_17__normal_iteratorIT_T0_E15difference_typeERKSB_SE_ = comdat any

$_ZNSt6vectorIS_I8pathInfoSaIS0_EESaIS2_EE5beginEv = comdat any

$_ZNSt12_Vector_baseISt6vectorI8pathInfoSaIS1_EESaIS3_EE11_M_allocateEj = comdat any

$_ZNSt6vectorIS_I8pathInfoSaIS0_EESaIS2_EE11_S_relocateEPS2_S5_S5_RS3_ = comdat any

$_ZNK9__gnu_cxx17__normal_iteratorIPSt6vectorI8pathInfoSaIS2_EES1_IS4_SaIS4_EEE4baseEv = comdat any

$_ZNSt16allocator_traitsISaISt6vectorI8pathInfoSaIS1_EEEE7destroyIS3_EEvRS4_PT_ = comdat any

$_ZNKSt6vectorIS_I8pathInfoSaIS0_EESaIS2_EE8max_sizeEv = comdat any

$_ZNKSt6vectorIS_I8pathInfoSaIS0_EESaIS2_EE4sizeEv = comdat any

$_ZNSt6vectorIS_I8pathInfoSaIS0_EESaIS2_EE11_S_max_sizeERKS3_ = comdat any

$_ZNKSt12_Vector_baseISt6vectorI8pathInfoSaIS1_EESaIS3_EE19_M_get_Tp_allocatorEv = comdat any

$_ZNSt16allocator_traitsISaISt6vectorI8pathInfoSaIS1_EEEE8max_sizeERKS4_ = comdat any

$_ZNK9__gnu_cxx13new_allocatorISt6vectorI8pathInfoSaIS2_EEE8max_sizeEv = comdat any

$_ZN9__gnu_cxx17__normal_iteratorIPSt6vectorI8pathInfoSaIS2_EES1_IS4_SaIS4_EEEC2ERKS5_ = comdat any

$_ZNSt16allocator_traitsISaISt6vectorI8pathInfoSaIS1_EEEE8allocateERS4_j = comdat any

$_ZN9__gnu_cxx13new_allocatorISt6vectorI8pathInfoSaIS2_EEE8allocateEjPKv = comdat any

$_ZNSt6vectorIS_I8pathInfoSaIS0_EESaIS2_EE14_S_do_relocateEPS2_S5_S5_RS3_St17integral_constantIbLb1EE = comdat any

$_ZSt12__relocate_aIPSt6vectorI8pathInfoSaIS1_EES4_SaIS3_EET0_T_S7_S6_RT1_ = comdat any

$_ZSt14__relocate_a_1IPSt6vectorI8pathInfoSaIS1_EES4_SaIS3_EET0_T_S7_S6_RT1_ = comdat any

$_ZSt12__niter_baseIPSt6vectorI8pathInfoSaIS1_EEET_S5_ = comdat any

$_ZSt19__relocate_object_aISt6vectorI8pathInfoSaIS1_EES3_SaIS3_EEvPT_PT0_RT1_ = comdat any

$_ZNSt16allocator_traitsISaISt6vectorI8pathInfoSaIS1_EEEE9constructIS3_JS3_EEEvRS4_PT_DpOT0_ = comdat any

$_ZN9__gnu_cxx13new_allocatorISt6vectorI8pathInfoSaIS2_EEE9constructIS4_JS4_EEEvPT_DpOT0_ = comdat any

$_ZNSt6vectorI8pathInfoSaIS0_EEC2EOS2_ = comdat any

$_ZNSt12_Vector_baseI8pathInfoSaIS0_EEC2EOS2_ = comdat any

$_ZNSt12_Vector_baseI8pathInfoSaIS0_EE12_Vector_implC2EOS3_ = comdat any

$_ZNSt12_Vector_baseI8pathInfoSaIS0_EE17_Vector_impl_dataC2EOS3_ = comdat any

$_ZN9__gnu_cxx13new_allocatorISt6vectorI8pathInfoSaIS2_EEE7destroyIS4_EEvPT_ = comdat any

$_ZNSt3mapINSt7__cxx1112basic_stringIcSt11char_traitsIcESaIcEEE20AddrDataTupleMorpherSt4lessIS5_ESaISt4pairIKS5_S6_EEE11lower_boundERSA_ = comdat any

$_ZSteqRKSt17_Rb_tree_iteratorISt4pairIKNSt7__cxx1112basic_stringIcSt11char_traitsIcESaIcEEE20AddrDataTupleMorpherEESC_ = comdat any

$_ZNKSt3mapINSt7__cxx1112basic_stringIcSt11char_traitsIcESaIcEEE20AddrDataTupleMorpherSt4lessIS5_ESaISt4pairIKS5_S6_EEE8key_compEv = comdat any

$_ZNKSt17_Rb_tree_iteratorISt4pairIKNSt7__cxx1112basic_stringIcSt11char_traitsIcESaIcEEE20AddrDataTupleMorpherEEdeEv = comdat any

$_ZNSt8_Rb_treeINSt7__cxx1112basic_stringIcSt11char_traitsIcESaIcEEESt4pairIKS5_20AddrDataTupleMorpherESt10_Select1stIS9_ESt4lessIS5_ESaIS9_EE22_M_emplace_hint_uniqueIJRKSt21piecewise_construct_tSt5tupleIJRS7_EESK_IJEEEEESt17_Rb_tree_iteratorIS9_ESt23_Rb_tree_const_iteratorIS9_EDpOT_ = comdat any

$_ZNSt23_Rb_tree_const_iteratorISt4pairIKNSt7__cxx1112basic_stringIcSt11char_traitsIcESaIcEEE20AddrDataTupleMorpherEEC2ERKSt17_Rb_tree_iteratorIS9_E = comdat any

$_ZNSt8_Rb_treeINSt7__cxx1112basic_stringIcSt11char_traitsIcESaIcEEESt4pairIKS5_20AddrDataTupleMorpherESt10_Select1stIS9_ESt4lessIS5_ESaIS9_EE11lower_boundERS7_ = comdat any

$_ZNSt8_Rb_treeINSt7__cxx1112basic_stringIcSt11char_traitsIcESaIcEEESt4pairIKS5_20AddrDataTupleMorpherESt10_Select1stIS9_ESt4lessIS5_ESaIS9_EE14_M_lower_boundEPSt13_Rb_tree_nodeIS9_EPSt18_Rb_tree_node_baseRS7_ = comdat any

$_ZNSt8_Rb_treeINSt7__cxx1112basic_stringIcSt11char_traitsIcESaIcEEESt4pairIKS5_20AddrDataTupleMorpherESt10_Select1stIS9_ESt4lessIS5_ESaIS9_EE6_M_endEv = comdat any

$_ZNSt8_Rb_treeINSt7__cxx1112basic_stringIcSt11char_traitsIcESaIcEEESt4pairIKS5_20AddrDataTupleMorpherESt10_Select1stIS9_ESt4lessIS5_ESaIS9_EE6_S_keyEPKSt13_Rb_tree_nodeIS9_E = comdat any

$_ZNKSt10_Select1stISt4pairIKNSt7__cxx1112basic_stringIcSt11char_traitsIcESaIcEEE20AddrDataTupleMorpherEEclERKS9_ = comdat any

$_ZNKSt13_Rb_tree_nodeISt4pairIKNSt7__cxx1112basic_stringIcSt11char_traitsIcESaIcEEE20AddrDataTupleMorpherEE9_M_valptrEv = comdat any

$_ZNK9__gnu_cxx16__aligned_membufISt4pairIKNSt7__cxx1112basic_stringIcSt11char_traitsIcESaIcEEE20AddrDataTupleMorpherEE6_M_ptrEv = comdat any

$_ZNK9__gnu_cxx16__aligned_membufISt4pairIKNSt7__cxx1112basic_stringIcSt11char_traitsIcESaIcEEE20AddrDataTupleMorpherEE7_M_addrEv = comdat any

$_ZNKSt8_Rb_treeINSt7__cxx1112basic_stringIcSt11char_traitsIcESaIcEEESt4pairIKS5_20AddrDataTupleMorpherESt10_Select1stIS9_ESt4lessIS5_ESaIS9_EE8key_compEv = comdat any

$_ZNSt8_Rb_treeINSt7__cxx1112basic_stringIcSt11char_traitsIcESaIcEEESt4pairIKS5_20AddrDataTupleMorpherESt10_Select1stIS9_ESt4lessIS5_ESaIS9_EE14_M_create_nodeIJRKSt21piecewise_construct_tSt5tupleIJRS7_EESK_IJEEEEEPSt13_Rb_tree_nodeIS9_EDpOT_ = comdat any

$_ZNSt8_Rb_treeINSt7__cxx1112basic_stringIcSt11char_traitsIcESaIcEEESt4pairIKS5_20AddrDataTupleMorpherESt10_Select1stIS9_ESt4lessIS5_ESaIS9_EE29_M_get_insert_hint_unique_posESt23_Rb_tree_const_iteratorIS9_ERS7_ = comdat any

$_ZNSt8_Rb_treeINSt7__cxx1112basic_stringIcSt11char_traitsIcESaIcEEESt4pairIKS5_20AddrDataTupleMorpherESt10_Select1stIS9_ESt4lessIS5_ESaIS9_EE14_M_insert_nodeEPSt18_Rb_tree_node_baseSH_PSt13_Rb_tree_nodeIS9_E = comdat any

$_ZNSt8_Rb_treeINSt7__cxx1112basic_stringIcSt11char_traitsIcESaIcEEESt4pairIKS5_20AddrDataTupleMorpherESt10_Select1stIS9_ESt4lessIS5_ESaIS9_EE11_M_get_nodeEv = comdat any

$_ZNSt8_Rb_treeINSt7__cxx1112basic_stringIcSt11char_traitsIcESaIcEEESt4pairIKS5_20AddrDataTupleMorpherESt10_Select1stIS9_ESt4lessIS5_ESaIS9_EE17_M_construct_nodeIJRKSt21piecewise_construct_tSt5tupleIJRS7_EESK_IJEEEEEvPSt13_Rb_tree_nodeIS9_EDpOT_ = comdat any

$_ZNSt16allocator_traitsISaISt13_Rb_tree_nodeISt4pairIKNSt7__cxx1112basic_stringIcSt11char_traitsIcESaIcEEE20AddrDataTupleMorpherEEEE8allocateERSC_j = comdat any

$_ZN9__gnu_cxx13new_allocatorISt13_Rb_tree_nodeISt4pairIKNSt7__cxx1112basic_stringIcSt11char_traitsIcESaIcEEE20AddrDataTupleMorpherEEE8allocateEjPKv = comdat any

$_ZNK9__gnu_cxx13new_allocatorISt13_Rb_tree_nodeISt4pairIKNSt7__cxx1112basic_stringIcSt11char_traitsIcESaIcEEE20AddrDataTupleMorpherEEE8max_sizeEv = comdat any

$_ZNSt16allocator_traitsISaISt13_Rb_tree_nodeISt4pairIKNSt7__cxx1112basic_stringIcSt11char_traitsIcESaIcEEE20AddrDataTupleMorpherEEEE9constructISA_JRKSt21piecewise_construct_tSt5tupleIJRS8_EESI_IJEEEEEvRSC_PT_DpOT0_ = comdat any

$_ZN9__gnu_cxx13new_allocatorISt13_Rb_tree_nodeISt4pairIKNSt7__cxx1112basic_stringIcSt11char_traitsIcESaIcEEE20AddrDataTupleMorpherEEE9constructISB_JRKSt21piecewise_construct_tSt5tupleIJRS9_EESI_IJEEEEEvPT_DpOT0_ = comdat any

$_ZNSt4pairIKNSt7__cxx1112basic_stringIcSt11char_traitsIcESaIcEEE20AddrDataTupleMorpherEC2IJRS6_EJEEESt21piecewise_construct_tSt5tupleIJDpT_EESC_IJDpT0_EE = comdat any

$_ZNSt4pairIKNSt7__cxx1112basic_stringIcSt11char_traitsIcESaIcEEE20AddrDataTupleMorpherEC2IJRS6_EJLj0EEJEJEEERSt5tupleIJDpT_EERSB_IJDpT1_EESt12_Index_tupleIJXspT0_EEESK_IJXspT2_EEE = comdat any

$_ZN20AddrDataTupleMorpherC2Ev = comdat any

$_ZNKSt23_Rb_tree_const_iteratorISt4pairIKNSt7__cxx1112basic_stringIcSt11char_traitsIcESaIcEEE20AddrDataTupleMorpherEE13_M_const_castEv = comdat any

$_ZNKSt8_Rb_treeINSt7__cxx1112basic_stringIcSt11char_traitsIcESaIcEEESt4pairIKS5_20AddrDataTupleMorpherESt10_Select1stIS9_ESt4lessIS5_ESaIS9_EE4sizeEv = comdat any

$_ZNSt8_Rb_treeINSt7__cxx1112basic_stringIcSt11char_traitsIcESaIcEEESt4pairIKS5_20AddrDataTupleMorpherESt10_Select1stIS9_ESt4lessIS5_ESaIS9_EE6_S_keyEPKSt18_Rb_tree_node_base = comdat any

$_ZNSt8_Rb_treeINSt7__cxx1112basic_stringIcSt11char_traitsIcESaIcEEESt4pairIKS5_20AddrDataTupleMorpherESt10_Select1stIS9_ESt4lessIS5_ESaIS9_EE12_M_rightmostEv = comdat any

$_ZNSt8_Rb_treeINSt7__cxx1112basic_stringIcSt11char_traitsIcESaIcEEESt4pairIKS5_20AddrDataTupleMorpherESt10_Select1stIS9_ESt4lessIS5_ESaIS9_EE24_M_get_insert_unique_posERS7_ = comdat any

$_ZNSt8_Rb_treeINSt7__cxx1112basic_stringIcSt11char_traitsIcESaIcEEESt4pairIKS5_20AddrDataTupleMorpherESt10_Select1stIS9_ESt4lessIS5_ESaIS9_EE11_M_leftmostEv = comdat any

$_ZNSt17_Rb_tree_iteratorISt4pairIKNSt7__cxx1112basic_stringIcSt11char_traitsIcESaIcEEE20AddrDataTupleMorpherEEmmEv = comdat any

$_ZNSt17_Rb_tree_iteratorISt4pairIKNSt7__cxx1112basic_stringIcSt11char_traitsIcESaIcEEE20AddrDataTupleMorpherEEppEv = comdat any

$_ZNSt4pairIPSt18_Rb_tree_node_baseS1_EC2IRPSt13_Rb_tree_nodeIS_IKNSt7__cxx1112basic_stringIcSt11char_traitsIcESaIcEEE20AddrDataTupleMorpherEERS1_Lb1EEEOT_OT0_ = comdat any

$_ZNSt8_Rb_treeINSt7__cxx1112basic_stringIcSt11char_traitsIcESaIcEEESt4pairIKS5_20AddrDataTupleMorpherESt10_Select1stIS9_ESt4lessIS5_ESaIS9_EE22_M_emplace_hint_uniqueIJRKSt21piecewise_construct_tSt5tupleIJOS5_EESK_IJEEEEESt17_Rb_tree_iteratorIS9_ESt23_Rb_tree_const_iteratorIS9_EDpOT_ = comdat any

$_ZSt16forward_as_tupleIJNSt7__cxx1112basic_stringIcSt11char_traitsIcESaIcEEEEESt5tupleIJDpOT_EES9_ = comdat any

$_ZNSt8_Rb_treeINSt7__cxx1112basic_stringIcSt11char_traitsIcESaIcEEESt4pairIKS5_20AddrDataTupleMorpherESt10_Select1stIS9_ESt4lessIS5_ESaIS9_EE14_M_create_nodeIJRKSt21piecewise_construct_tSt5tupleIJOS5_EESK_IJEEEEEPSt13_Rb_tree_nodeIS9_EDpOT_ = comdat any

$_ZNSt8_Rb_treeINSt7__cxx1112basic_stringIcSt11char_traitsIcESaIcEEESt4pairIKS5_20AddrDataTupleMorpherESt10_Select1stIS9_ESt4lessIS5_ESaIS9_EE17_M_construct_nodeIJRKSt21piecewise_construct_tSt5tupleIJOS5_EESK_IJEEEEEvPSt13_Rb_tree_nodeIS9_EDpOT_ = comdat any

$_ZNSt16allocator_traitsISaISt13_Rb_tree_nodeISt4pairIKNSt7__cxx1112basic_stringIcSt11char_traitsIcESaIcEEE20AddrDataTupleMorpherEEEE9constructISA_JRKSt21piecewise_construct_tSt5tupleIJOS7_EESI_IJEEEEEvRSC_PT_DpOT0_ = comdat any

$_ZN9__gnu_cxx13new_allocatorISt13_Rb_tree_nodeISt4pairIKNSt7__cxx1112basic_stringIcSt11char_traitsIcESaIcEEE20AddrDataTupleMorpherEEE9constructISB_JRKSt21piecewise_construct_tSt5tupleIJOS8_EESI_IJEEEEEvPT_DpOT0_ = comdat any

$_ZNSt5tupleIJONSt7__cxx1112basic_stringIcSt11char_traitsIcESaIcEEEEEC2EOS7_ = comdat any

$_ZNSt4pairIKNSt7__cxx1112basic_stringIcSt11char_traitsIcESaIcEEE20AddrDataTupleMorpherEC2IJOS5_EJEEESt21piecewise_construct_tSt5tupleIJDpT_EESC_IJDpT0_EE = comdat any

$_ZNSt11_Tuple_implILj0EJONSt7__cxx1112basic_stringIcSt11char_traitsIcESaIcEEEEEC2EOS7_ = comdat any

$_ZNSt11_Tuple_implILj0EJONSt7__cxx1112basic_stringIcSt11char_traitsIcESaIcEEEEE7_M_headERS7_ = comdat any

$_ZNSt10_Head_baseILj0EONSt7__cxx1112basic_stringIcSt11char_traitsIcESaIcEEELb0EEC2IS5_EEOT_ = comdat any

$_ZNSt10_Head_baseILj0EONSt7__cxx1112basic_stringIcSt11char_traitsIcESaIcEEELb0EE7_M_headERS7_ = comdat any

$_ZNSt4pairIKNSt7__cxx1112basic_stringIcSt11char_traitsIcESaIcEEE20AddrDataTupleMorpherEC2IJOS5_EJLj0EEJEJEEERSt5tupleIJDpT_EERSB_IJDpT1_EESt12_Index_tupleIJXspT0_EEESK_IJXspT2_EEE = comdat any

$_ZSt3getILj0EJONSt7__cxx1112basic_stringIcSt11char_traitsIcESaIcEEEEERNSt13tuple_elementIXT_ESt5tupleIJDpT0_EEE4typeERSB_ = comdat any

$_ZSt12__get_helperILj0EONSt7__cxx1112basic_stringIcSt11char_traitsIcESaIcEEEJEERT0_RSt11_Tuple_implIXT_EJS7_DpT1_EE = comdat any

$_ZNSt5tupleIJONSt7__cxx1112basic_stringIcSt11char_traitsIcESaIcEEEEEC2IJS5_ELb1EEEDpOT_ = comdat any

$_ZNSt11_Tuple_implILj0EJONSt7__cxx1112basic_stringIcSt11char_traitsIcESaIcEEEEEC2IS5_EEOT_ = comdat any

$_ZN9__gnu_cxxeqIPKhSt6vectorIhSaIhEEEEbRKNS_17__normal_iteratorIT_T0_EESB_ = comdat any

$_ZNSt6vectorIhSaIhEE12emplace_backIJhEEEvDpOT_ = comdat any

$_ZNSt16allocator_traitsISaIhEE9constructIhJhEEEvRS0_PT_DpOT0_ = comdat any

$_ZNSt6vectorIhSaIhEE17_M_realloc_insertIJhEEEvN9__gnu_cxx17__normal_iteratorIPhS1_EEDpOT_ = comdat any

$_ZN9__gnu_cxx13new_allocatorIhE9constructIhJhEEEvPT_DpOT0_ = comdat any

@_ZStL8__ioinit = internal global %"class.std::ios_base::Init" zeroinitializer, align 1
@__dso_handle = external hidden global i8
@_ZL11dynArrSizesB5cxx11 = internal global %"class.std::map" zeroinitializer, align 4
@_ZL14dynArrPointersB5cxx11 = internal global %"class.std::map.0" zeroinitializer, align 4
@_ZL14dynByteArrCopyB5cxx11 = internal global %"class.std::map.5" zeroinitializer, align 4
@_ZL11printedArrsB5cxx11 = internal global %"class.std::set" zeroinitializer, align 4
@_ZL12currentFilesB5cxx11 = internal global %"class.std::map.14" zeroinitializer, align 4
@_ZL10currFnNameB5cxx11 = internal global %"class.std::__cxx11::basic_string" zeroinitializer, align 4
@_ZL10loopRunIdxB5cxx11 = internal global %"class.std::map" zeroinitializer, align 4
@_ZL12LoopInsCountB5cxx11 = internal global %"class.std::map" zeroinitializer, align 4
@_ZL10BBInsCountB5cxx11 = internal global %"class.std::map" zeroinitializer, align 4
@_ZL7InsInBBB5cxx11 = internal global %"class.std::map" zeroinitializer, align 4
@_ZL15loopBasicBlocksB5cxx11 = internal global %"class.std::map.22" zeroinitializer, align 4
@_ZL16BBMappingUnitMapB5cxx11 = internal global %"class.std::map.27" zeroinitializer, align 4
@_ZL18loopPreHeaderBBMapB5cxx11 = internal global %"class.std::map.27" zeroinitializer, align 4
@_ZL17munitTransProfileB5cxx11 = internal global %"class.std::map.32" zeroinitializer, align 4
@currentPath = dso_local global %struct.pathInfo zeroinitializer, align 4
@_Z13loopPathTraceB5cxx11 = dso_local global %"class.std::map.40" zeroinitializer, align 4
@pathTrace = dso_local global %"class.std::vector.45" zeroinitializer, align 4
@_Z10pathsSoFarB5cxx11 = dso_local global %"class.std::map.50" zeroinitializer, align 4
@_ZL4data = internal global %"class.std::map.58" zeroinitializer, align 4
@_ZL12data_morpherB5cxx11 = internal global %"class.std::map.66" zeroinitializer, align 4
@_ZSt4cout = external global %"class.std::basic_ostream", align 4
@.str = private unnamed_addr constant [10 x i8] c"printArr:\00", align 1
@.str.21 = private unnamed_addr constant [18 x i8] c"#####INPUT######\0A\00", align 1
@.str.22 = private unnamed_addr constant [19 x i8] c"#####OUTPUT######\0A\00", align 1
@.str.23 = private unnamed_addr constant [9 x i8] c"ArrName=\00", align 1
@.str.24 = private unnamed_addr constant [10 x i8] c",ArrSize=\00", align 1
@.str.25 = private unnamed_addr constant [7 x i8] c",Addr=\00", align 1
@.str.26 = private unnamed_addr constant [2 x i8] c"\0A\00", align 1
@.str.27 = private unnamed_addr constant [2 x i8] c",\00", align 1
@.str.28 = private unnamed_addr constant [16 x i8] c"printDynArrSize\00", align 1
@.str.29 = private unnamed_addr constant [60 x i8] c"----------------------------------------------------------\0A\00", align 1
@.str.30 = private unnamed_addr constant [17 x i8] c"OutLoopLoadNode:\00", align 1
@.str.31 = private unnamed_addr constant [6 x i8] c",val=\00", align 1
@.str.32 = private unnamed_addr constant [7 x i8] c",addr=\00", align 1
@.str.33 = private unnamed_addr constant [7 x i8] c",host=\00", align 1
@.str.34 = private unnamed_addr constant [10 x i8] c"LoadNode:\00", align 1
@.str.35 = private unnamed_addr constant [18 x i8] c"OutLoopStoreNode:\00", align 1
@.str.36 = private unnamed_addr constant [11 x i8] c"StoreNode:\00", align 1
@.str.37 = private unnamed_addr constant [33 x i8] c"addr,pre-run-data,post-run-data\0A\00", align 1
@.str.38 = private unnamed_addr constant [10 x i8] c"%d,%d,%d\0A\00", align 1
@.str.39 = private unnamed_addr constant [44 x i8] c"var_name,offset,pre-run-data,post-run-data\0A\00", align 1
@.str.40 = private unnamed_addr constant [13 x i8] c"%s,%d,%d,%d\0A\00", align 1
@.str.41 = private unnamed_addr constant [11 x i8] c"memtraces/\00", align 1
@.str.42 = private unnamed_addr constant [8 x i8] c"_trace_\00", align 1
@.str.43 = private unnamed_addr constant [5 x i8] c".txt\00", align 1
@.str.44 = private unnamed_addr constant [2 x i8] c"w\00", align 1
@.str.45 = private unnamed_addr constant [47 x i8] c"currentFiles[ln] = fopen(ss.str().c_str(),\22w\22)\00", align 1
@.str.46 = private unnamed_addr constant [85 x i8] c"/home/huiying/Morpher/Morpher_DFG_Generator//src/instrumentation/instrumentation.cpp\00", align 1
@__PRETTY_FUNCTION__.loopStart = private unnamed_addr constant [29 x i8] c"void loopStart(const char *)\00", align 1
@.str.47 = private unnamed_addr constant [15 x i8] c"_looptrace.log\00", align 1
@.str.48 = private unnamed_addr constant [2 x i8] c"a\00", align 1
@_ZL16loopInvTraceFile = internal global ptr null, align 4
@.str.49 = private unnamed_addr constant [23 x i8] c"loopInvTraceFile!=NULL\00", align 1
@__PRETTY_FUNCTION__.loopTraceOpen = private unnamed_addr constant [33 x i8] c"void loopTraceOpen(const char *)\00", align 1
@.str.50 = private unnamed_addr constant [16 x i8] c"_munittrace.log\00", align 1
@_ZL17MUnitInvTraceFile = internal global ptr null, align 4
@.str.51 = private unnamed_addr constant [17 x i8] c"call begin : %s\0A\00", align 1
@.str.52 = private unnamed_addr constant [14 x i8] c"_loopinfo.log\00", align 1
@.str.53 = private unnamed_addr constant [21 x i8] c"BB Profile Begin : \0A\00", align 1
@.str.54 = private unnamed_addr constant [16 x i8] c"BBName:%s,\09%d \0A\00", align 1
@.str.55 = private unnamed_addr constant [18 x i8] c"BB Profile End. \0A\00", align 1
@.str.56 = private unnamed_addr constant [44 x i8] c"Loop Average Instructions Per Iteration : \0A\00", align 1
@.str.57 = private unnamed_addr constant [13 x i8] c"LoopName:%s\0A\00", align 1
@.str.58 = private unnamed_addr constant [20 x i8] c"TotalBBInvCount=%d\0A\00", align 1
@.str.59 = private unnamed_addr constant [59 x i8] c"\09 BBName:%s,BBInsCount:%d,BBInvCount:%d,BBLoopInvRatio:%f\0A\00", align 1
@.str.60 = private unnamed_addr constant [22 x i8] c"avgLpInstructions=%f\0A\00", align 1
@.str.61 = private unnamed_addr constant [54 x i8] c"PreHeaderInvokations::BasicBlockName=%s,InvCount=%d\0A\0A\00", align 1
@.str.62 = private unnamed_addr constant [27 x i8] c"Loop Invocations Begin : \0A\00", align 1
@.str.63 = private unnamed_addr constant [7 x i8] c"%s,%d\0A\00", align 1
@.str.64 = private unnamed_addr constant [23 x i8] c"Loop Invocations End.\0A\00", align 1
@.str.65 = private unnamed_addr constant [37 x i8] c"Just Plain Number of Invocations : \0A\00", align 1
@.str.66 = private unnamed_addr constant [13 x i8] c"%s,%d,%s,%s\0A\00", align 1
@.str.67 = private unnamed_addr constant [10 x i8] c"%s,%s,%d\0A\00", align 1
@.str.68 = private unnamed_addr constant [11 x i8] c"call end.\0A\00", align 1
@.str.69 = private unnamed_addr constant [50 x i8] c"************************************************\0A\00", align 1
@_ZL18currentExecutedIns = internal global i32 0, align 4
@__PRETTY_FUNCTION__.loopInvoke = private unnamed_addr constant [30 x i8] c"void loopInvoke(const char *)\00", align 1
@.str.70 = private unnamed_addr constant [4 x i8] c"-->\00", align 1
@.str.71 = private unnamed_addr constant [10 x i8] c"FUNC_BODY\00", align 1
@.str.72 = private unnamed_addr constant [7 x i8] c"%s,%s\0A\00", align 1
@_Z14functionInsMapB5cxx11 = dso_local global %"class.std::map" zeroinitializer, align 4
@_Z8BBInsMapB5cxx11 = dso_local global %"class.std::map.32" zeroinitializer, align 4
@.str.75 = private unnamed_addr constant [13 x i8] c"statFile.log\00", align 1
@.str.76 = private unnamed_addr constant [43 x i8] c"*****************************************\0A\00", align 1
@.str.77 = private unnamed_addr constant [25 x i8] c"path.getPathCount() == 0\00", align 1
@__PRETTY_FUNCTION__._Z13trimPreHeaderNSt7__cxx1112basic_stringIcSt11char_traitsIcESaIcEEE8pathInfo = private unnamed_addr constant [46 x i8] c"pathInfo trimPreHeader(std::string, pathInfo)\00", align 1
@.str.78 = private unnamed_addr constant [31 x i8] c"!result.getBBStrArry().empty()\00", align 1
@.str.79 = private unnamed_addr constant [36 x i8] c"!currentPath.getBBStrArry().empty()\00", align 1
@__PRETTY_FUNCTION__._Z15addPath2Profile8pathInfoPKc = private unnamed_addr constant [45 x i8] c"void addPath2Profile(pathInfo, const char *)\00", align 1
@.str.80 = private unnamed_addr constant [29 x i8] c"currentPath.insertBB(bbName)\00", align 1
@__PRETTY_FUNCTION__.reportNewBBinPath = private unnamed_addr constant [51 x i8] c"void reportNewBBinPath(const char *, const char *)\00", align 1
@.str.81 = private unnamed_addr constant [10 x i8] c"loopstart\00", align 1
@.str.82 = private unnamed_addr constant [8 x i8] c"loopend\00", align 1
@.str.83 = private unnamed_addr constant [26 x i8] c"vector::_M_realloc_insert\00", align 1
@.str.84 = private unnamed_addr constant [6 x i8] c"stoul\00", align 1
@_ZStL19piecewise_construct = internal constant %"struct.std::piecewise_construct_t" undef, align 1
@llvm.global_ctors = appending global [1 x { i32, ptr, ptr }] [{ i32, ptr, ptr } { i32 65535, ptr @_GLOBAL__sub_I_instrumentation.cpp, ptr null }]

; Function Attrs: noinline uwtable
define internal void @__cxx_global_var_init() #0 section ".text.startup" {
entry:
  call void @_ZNSt8ios_base4InitC1Ev(ptr noundef nonnull align 1 dereferenceable(1) @_ZStL8__ioinit)
  %0 = call i32 @__cxa_atexit(ptr @_ZNSt8ios_base4InitD1Ev, ptr @_ZStL8__ioinit, ptr @__dso_handle) #3
  ret void
}

declare void @_ZNSt8ios_base4InitC1Ev(ptr noundef nonnull align 1 dereferenceable(1)) unnamed_addr #1

; Function Attrs: nounwind
declare void @_ZNSt8ios_base4InitD1Ev(ptr noundef nonnull align 1 dereferenceable(1)) unnamed_addr #2

; Function Attrs: nounwind
declare i32 @__cxa_atexit(ptr, ptr, ptr) #3

; Function Attrs: noinline uwtable
define internal void @__cxx_global_var_init.1() #0 section ".text.startup" {
entry:
  call void @_ZNSt3mapINSt7__cxx1112basic_stringIcSt11char_traitsIcESaIcEEEiSt4lessIS5_ESaISt4pairIKS5_iEEEC2Ev(ptr noundef nonnull align 4 dereferenceable(24) @_ZL11dynArrSizesB5cxx11) #3
  %0 = call i32 @__cxa_atexit(ptr @_ZNSt3mapINSt7__cxx1112basic_stringIcSt11char_traitsIcESaIcEEEiSt4lessIS5_ESaISt4pairIKS5_iEEED2Ev, ptr @_ZL11dynArrSizesB5cxx11, ptr @__dso_handle) #3
  ret void
}

; Function Attrs: noinline nounwind optnone uwtable
define linkonce_odr dso_local void @_ZNSt3mapINSt7__cxx1112basic_stringIcSt11char_traitsIcESaIcEEEiSt4lessIS5_ESaISt4pairIKS5_iEEEC2Ev(ptr noundef nonnull align 4 dereferenceable(24) %this) unnamed_addr #4 comdat align 2 {
entry:
  %this.addr = alloca ptr, align 4
  store ptr %this, ptr %this.addr, align 4
  %this1 = load ptr, ptr %this.addr, align 4
  %_M_t = getelementptr inbounds %"class.std::map", ptr %this1, i32 0, i32 0
  call void @_ZNSt8_Rb_treeINSt7__cxx1112basic_stringIcSt11char_traitsIcESaIcEEESt4pairIKS5_iESt10_Select1stIS8_ESt4lessIS5_ESaIS8_EEC2Ev(ptr noundef nonnull align 4 dereferenceable(24) %_M_t) #3
  ret void
}

; Function Attrs: noinline nounwind optnone uwtable
define linkonce_odr dso_local void @_ZNSt3mapINSt7__cxx1112basic_stringIcSt11char_traitsIcESaIcEEEiSt4lessIS5_ESaISt4pairIKS5_iEEED2Ev(ptr noundef nonnull align 4 dereferenceable(24) %this) unnamed_addr #4 comdat align 2 {
entry:
  %this.addr = alloca ptr, align 4
  store ptr %this, ptr %this.addr, align 4
  %this1 = load ptr, ptr %this.addr, align 4
  %_M_t = getelementptr inbounds %"class.std::map", ptr %this1, i32 0, i32 0
  call void @_ZNSt8_Rb_treeINSt7__cxx1112basic_stringIcSt11char_traitsIcESaIcEEESt4pairIKS5_iESt10_Select1stIS8_ESt4lessIS5_ESaIS8_EED2Ev(ptr noundef nonnull align 4 dereferenceable(24) %_M_t) #3
  ret void
}

; Function Attrs: noinline uwtable
define internal void @__cxx_global_var_init.2() #0 section ".text.startup" {
entry:
  call void @_ZNSt3mapINSt7__cxx1112basic_stringIcSt11char_traitsIcESaIcEEEPhSt4lessIS5_ESaISt4pairIKS5_S6_EEEC2Ev(ptr noundef nonnull align 4 dereferenceable(24) @_ZL14dynArrPointersB5cxx11) #3
  %0 = call i32 @__cxa_atexit(ptr @_ZNSt3mapINSt7__cxx1112basic_stringIcSt11char_traitsIcESaIcEEEPhSt4lessIS5_ESaISt4pairIKS5_S6_EEED2Ev, ptr @_ZL14dynArrPointersB5cxx11, ptr @__dso_handle) #3
  ret void
}

; Function Attrs: noinline nounwind optnone uwtable
define linkonce_odr dso_local void @_ZNSt3mapINSt7__cxx1112basic_stringIcSt11char_traitsIcESaIcEEEPhSt4lessIS5_ESaISt4pairIKS5_S6_EEEC2Ev(ptr noundef nonnull align 4 dereferenceable(24) %this) unnamed_addr #4 comdat align 2 {
entry:
  %this.addr = alloca ptr, align 4
  store ptr %this, ptr %this.addr, align 4
  %this1 = load ptr, ptr %this.addr, align 4
  %_M_t = getelementptr inbounds %"class.std::map.0", ptr %this1, i32 0, i32 0
  call void @_ZNSt8_Rb_treeINSt7__cxx1112basic_stringIcSt11char_traitsIcESaIcEEESt4pairIKS5_PhESt10_Select1stIS9_ESt4lessIS5_ESaIS9_EEC2Ev(ptr noundef nonnull align 4 dereferenceable(24) %_M_t) #3
  ret void
}

; Function Attrs: noinline nounwind optnone uwtable
define linkonce_odr dso_local void @_ZNSt3mapINSt7__cxx1112basic_stringIcSt11char_traitsIcESaIcEEEPhSt4lessIS5_ESaISt4pairIKS5_S6_EEED2Ev(ptr noundef nonnull align 4 dereferenceable(24) %this) unnamed_addr #4 comdat align 2 {
entry:
  %this.addr = alloca ptr, align 4
  store ptr %this, ptr %this.addr, align 4
  %this1 = load ptr, ptr %this.addr, align 4
  %_M_t = getelementptr inbounds %"class.std::map.0", ptr %this1, i32 0, i32 0
  call void @_ZNSt8_Rb_treeINSt7__cxx1112basic_stringIcSt11char_traitsIcESaIcEEESt4pairIKS5_PhESt10_Select1stIS9_ESt4lessIS5_ESaIS9_EED2Ev(ptr noundef nonnull align 4 dereferenceable(24) %_M_t) #3
  ret void
}

; Function Attrs: noinline uwtable
define internal void @__cxx_global_var_init.3() #0 section ".text.startup" {
entry:
  call void @_ZNSt3mapINSt7__cxx1112basic_stringIcSt11char_traitsIcESaIcEEESt6vectorIhSaIhEESt4lessIS5_ESaISt4pairIKS5_S8_EEEC2Ev(ptr noundef nonnull align 4 dereferenceable(24) @_ZL14dynByteArrCopyB5cxx11) #3
  %0 = call i32 @__cxa_atexit(ptr @_ZNSt3mapINSt7__cxx1112basic_stringIcSt11char_traitsIcESaIcEEESt6vectorIhSaIhEESt4lessIS5_ESaISt4pairIKS5_S8_EEED2Ev, ptr @_ZL14dynByteArrCopyB5cxx11, ptr @__dso_handle) #3
  ret void
}

; Function Attrs: noinline nounwind optnone uwtable
define linkonce_odr dso_local void @_ZNSt3mapINSt7__cxx1112basic_stringIcSt11char_traitsIcESaIcEEESt6vectorIhSaIhEESt4lessIS5_ESaISt4pairIKS5_S8_EEEC2Ev(ptr noundef nonnull align 4 dereferenceable(24) %this) unnamed_addr #4 comdat align 2 {
entry:
  %this.addr = alloca ptr, align 4
  store ptr %this, ptr %this.addr, align 4
  %this1 = load ptr, ptr %this.addr, align 4
  %_M_t = getelementptr inbounds %"class.std::map.5", ptr %this1, i32 0, i32 0
  call void @_ZNSt8_Rb_treeINSt7__cxx1112basic_stringIcSt11char_traitsIcESaIcEEESt4pairIKS5_St6vectorIhSaIhEEESt10_Select1stISB_ESt4lessIS5_ESaISB_EEC2Ev(ptr noundef nonnull align 4 dereferenceable(24) %_M_t) #3
  ret void
}

; Function Attrs: noinline nounwind optnone uwtable
define linkonce_odr dso_local void @_ZNSt3mapINSt7__cxx1112basic_stringIcSt11char_traitsIcESaIcEEESt6vectorIhSaIhEESt4lessIS5_ESaISt4pairIKS5_S8_EEED2Ev(ptr noundef nonnull align 4 dereferenceable(24) %this) unnamed_addr #4 comdat align 2 {
entry:
  %this.addr = alloca ptr, align 4
  store ptr %this, ptr %this.addr, align 4
  %this1 = load ptr, ptr %this.addr, align 4
  %_M_t = getelementptr inbounds %"class.std::map.5", ptr %this1, i32 0, i32 0
  call void @_ZNSt8_Rb_treeINSt7__cxx1112basic_stringIcSt11char_traitsIcESaIcEEESt4pairIKS5_St6vectorIhSaIhEEESt10_Select1stISB_ESt4lessIS5_ESaISB_EED2Ev(ptr noundef nonnull align 4 dereferenceable(24) %_M_t) #3
  ret void
}

; Function Attrs: noinline uwtable
define internal void @__cxx_global_var_init.4() #0 section ".text.startup" {
entry:
  call void @_ZNSt3setINSt7__cxx1112basic_stringIcSt11char_traitsIcESaIcEEESt4lessIS5_ESaIS5_EEC2Ev(ptr noundef nonnull align 4 dereferenceable(24) @_ZL11printedArrsB5cxx11) #3
  %0 = call i32 @__cxa_atexit(ptr @_ZNSt3setINSt7__cxx1112basic_stringIcSt11char_traitsIcESaIcEEESt4lessIS5_ESaIS5_EED2Ev, ptr @_ZL11printedArrsB5cxx11, ptr @__dso_handle) #3
  ret void
}

; Function Attrs: noinline nounwind optnone uwtable
define linkonce_odr dso_local void @_ZNSt3setINSt7__cxx1112basic_stringIcSt11char_traitsIcESaIcEEESt4lessIS5_ESaIS5_EEC2Ev(ptr noundef nonnull align 4 dereferenceable(24) %this) unnamed_addr #4 comdat align 2 {
entry:
  %this.addr = alloca ptr, align 4
  store ptr %this, ptr %this.addr, align 4
  %this1 = load ptr, ptr %this.addr, align 4
  %_M_t = getelementptr inbounds %"class.std::set", ptr %this1, i32 0, i32 0
  call void @_ZNSt8_Rb_treeINSt7__cxx1112basic_stringIcSt11char_traitsIcESaIcEEES5_St9_IdentityIS5_ESt4lessIS5_ESaIS5_EEC2Ev(ptr noundef nonnull align 4 dereferenceable(24) %_M_t) #3
  ret void
}

; Function Attrs: noinline nounwind optnone uwtable
define linkonce_odr dso_local void @_ZNSt3setINSt7__cxx1112basic_stringIcSt11char_traitsIcESaIcEEESt4lessIS5_ESaIS5_EED2Ev(ptr noundef nonnull align 4 dereferenceable(24) %this) unnamed_addr #4 comdat align 2 {
entry:
  %this.addr = alloca ptr, align 4
  store ptr %this, ptr %this.addr, align 4
  %this1 = load ptr, ptr %this.addr, align 4
  %_M_t = getelementptr inbounds %"class.std::set", ptr %this1, i32 0, i32 0
  call void @_ZNSt8_Rb_treeINSt7__cxx1112basic_stringIcSt11char_traitsIcESaIcEEES5_St9_IdentityIS5_ESt4lessIS5_ESaIS5_EED2Ev(ptr noundef nonnull align 4 dereferenceable(24) %_M_t) #3
  ret void
}

; Function Attrs: noinline uwtable
define internal void @__cxx_global_var_init.5() #0 section ".text.startup" {
entry:
  call void @_ZNSt3mapINSt7__cxx1112basic_stringIcSt11char_traitsIcESaIcEEEP8_IO_FILESt4lessIS5_ESaISt4pairIKS5_S7_EEEC2Ev(ptr noundef nonnull align 4 dereferenceable(24) @_ZL12currentFilesB5cxx11) #3
  %0 = call i32 @__cxa_atexit(ptr @_ZNSt3mapINSt7__cxx1112basic_stringIcSt11char_traitsIcESaIcEEEP8_IO_FILESt4lessIS5_ESaISt4pairIKS5_S7_EEED2Ev, ptr @_ZL12currentFilesB5cxx11, ptr @__dso_handle) #3
  ret void
}

; Function Attrs: noinline nounwind optnone uwtable
define linkonce_odr dso_local void @_ZNSt3mapINSt7__cxx1112basic_stringIcSt11char_traitsIcESaIcEEEP8_IO_FILESt4lessIS5_ESaISt4pairIKS5_S7_EEEC2Ev(ptr noundef nonnull align 4 dereferenceable(24) %this) unnamed_addr #4 comdat align 2 {
entry:
  %this.addr = alloca ptr, align 4
  store ptr %this, ptr %this.addr, align 4
  %this1 = load ptr, ptr %this.addr, align 4
  %_M_t = getelementptr inbounds %"class.std::map.14", ptr %this1, i32 0, i32 0
  call void @_ZNSt8_Rb_treeINSt7__cxx1112basic_stringIcSt11char_traitsIcESaIcEEESt4pairIKS5_P8_IO_FILEESt10_Select1stISA_ESt4lessIS5_ESaISA_EEC2Ev(ptr noundef nonnull align 4 dereferenceable(24) %_M_t) #3
  ret void
}

; Function Attrs: noinline nounwind optnone uwtable
define linkonce_odr dso_local void @_ZNSt3mapINSt7__cxx1112basic_stringIcSt11char_traitsIcESaIcEEEP8_IO_FILESt4lessIS5_ESaISt4pairIKS5_S7_EEED2Ev(ptr noundef nonnull align 4 dereferenceable(24) %this) unnamed_addr #4 comdat align 2 {
entry:
  %this.addr = alloca ptr, align 4
  store ptr %this, ptr %this.addr, align 4
  %this1 = load ptr, ptr %this.addr, align 4
  %_M_t = getelementptr inbounds %"class.std::map.14", ptr %this1, i32 0, i32 0
  call void @_ZNSt8_Rb_treeINSt7__cxx1112basic_stringIcSt11char_traitsIcESaIcEEESt4pairIKS5_P8_IO_FILEESt10_Select1stISA_ESt4lessIS5_ESaISA_EED2Ev(ptr noundef nonnull align 4 dereferenceable(24) %_M_t) #3
  ret void
}

; Function Attrs: noinline uwtable
define internal void @__cxx_global_var_init.6() #0 section ".text.startup" {
entry:
  call void @_ZNSt7__cxx1112basic_stringIcSt11char_traitsIcESaIcEEC1Ev(ptr noundef nonnull align 4 dereferenceable(24) @_ZL10currFnNameB5cxx11) #3
  %0 = call i32 @__cxa_atexit(ptr @_ZNSt7__cxx1112basic_stringIcSt11char_traitsIcESaIcEED1Ev, ptr @_ZL10currFnNameB5cxx11, ptr @__dso_handle) #3
  ret void
}

; Function Attrs: nounwind
declare void @_ZNSt7__cxx1112basic_stringIcSt11char_traitsIcESaIcEEC1Ev(ptr noundef nonnull align 4 dereferenceable(24)) unnamed_addr #2

; Function Attrs: nounwind
declare void @_ZNSt7__cxx1112basic_stringIcSt11char_traitsIcESaIcEED1Ev(ptr noundef nonnull align 4 dereferenceable(24)) unnamed_addr #2

; Function Attrs: noinline uwtable
define internal void @__cxx_global_var_init.7() #0 section ".text.startup" {
entry:
  call void @_ZNSt3mapINSt7__cxx1112basic_stringIcSt11char_traitsIcESaIcEEEiSt4lessIS5_ESaISt4pairIKS5_iEEEC2Ev(ptr noundef nonnull align 4 dereferenceable(24) @_ZL10loopRunIdxB5cxx11) #3
  %0 = call i32 @__cxa_atexit(ptr @_ZNSt3mapINSt7__cxx1112basic_stringIcSt11char_traitsIcESaIcEEEiSt4lessIS5_ESaISt4pairIKS5_iEEED2Ev, ptr @_ZL10loopRunIdxB5cxx11, ptr @__dso_handle) #3
  ret void
}

; Function Attrs: noinline uwtable
define internal void @__cxx_global_var_init.8() #0 section ".text.startup" {
entry:
  call void @_ZNSt3mapINSt7__cxx1112basic_stringIcSt11char_traitsIcESaIcEEEiSt4lessIS5_ESaISt4pairIKS5_iEEEC2Ev(ptr noundef nonnull align 4 dereferenceable(24) @_ZL12LoopInsCountB5cxx11) #3
  %0 = call i32 @__cxa_atexit(ptr @_ZNSt3mapINSt7__cxx1112basic_stringIcSt11char_traitsIcESaIcEEEiSt4lessIS5_ESaISt4pairIKS5_iEEED2Ev, ptr @_ZL12LoopInsCountB5cxx11, ptr @__dso_handle) #3
  ret void
}

; Function Attrs: noinline uwtable
define internal void @__cxx_global_var_init.9() #0 section ".text.startup" {
entry:
  call void @_ZNSt3mapINSt7__cxx1112basic_stringIcSt11char_traitsIcESaIcEEEiSt4lessIS5_ESaISt4pairIKS5_iEEEC2Ev(ptr noundef nonnull align 4 dereferenceable(24) @_ZL10BBInsCountB5cxx11) #3
  %0 = call i32 @__cxa_atexit(ptr @_ZNSt3mapINSt7__cxx1112basic_stringIcSt11char_traitsIcESaIcEEEiSt4lessIS5_ESaISt4pairIKS5_iEEED2Ev, ptr @_ZL10BBInsCountB5cxx11, ptr @__dso_handle) #3
  ret void
}

; Function Attrs: noinline uwtable
define internal void @__cxx_global_var_init.10() #0 section ".text.startup" {
entry:
  call void @_ZNSt3mapINSt7__cxx1112basic_stringIcSt11char_traitsIcESaIcEEEiSt4lessIS5_ESaISt4pairIKS5_iEEEC2Ev(ptr noundef nonnull align 4 dereferenceable(24) @_ZL7InsInBBB5cxx11) #3
  %0 = call i32 @__cxa_atexit(ptr @_ZNSt3mapINSt7__cxx1112basic_stringIcSt11char_traitsIcESaIcEEEiSt4lessIS5_ESaISt4pairIKS5_iEEED2Ev, ptr @_ZL7InsInBBB5cxx11, ptr @__dso_handle) #3
  ret void
}

; Function Attrs: noinline uwtable
define internal void @__cxx_global_var_init.11() #0 section ".text.startup" {
entry:
  call void @_ZNSt3mapINSt7__cxx1112basic_stringIcSt11char_traitsIcESaIcEEESt3setIS5_St4lessIS5_ESaIS5_EES8_SaISt4pairIKS5_SA_EEEC2Ev(ptr noundef nonnull align 4 dereferenceable(24) @_ZL15loopBasicBlocksB5cxx11) #3
  %0 = call i32 @__cxa_atexit(ptr @_ZNSt3mapINSt7__cxx1112basic_stringIcSt11char_traitsIcESaIcEEESt3setIS5_St4lessIS5_ESaIS5_EES8_SaISt4pairIKS5_SA_EEED2Ev, ptr @_ZL15loopBasicBlocksB5cxx11, ptr @__dso_handle) #3
  ret void
}

; Function Attrs: noinline nounwind optnone uwtable
define linkonce_odr dso_local void @_ZNSt3mapINSt7__cxx1112basic_stringIcSt11char_traitsIcESaIcEEESt3setIS5_St4lessIS5_ESaIS5_EES8_SaISt4pairIKS5_SA_EEEC2Ev(ptr noundef nonnull align 4 dereferenceable(24) %this) unnamed_addr #4 comdat align 2 {
entry:
  %this.addr = alloca ptr, align 4
  store ptr %this, ptr %this.addr, align 4
  %this1 = load ptr, ptr %this.addr, align 4
  %_M_t = getelementptr inbounds %"class.std::map.22", ptr %this1, i32 0, i32 0
  call void @_ZNSt8_Rb_treeINSt7__cxx1112basic_stringIcSt11char_traitsIcESaIcEEESt4pairIKS5_St3setIS5_St4lessIS5_ESaIS5_EEESt10_Select1stISD_ESA_SaISD_EEC2Ev(ptr noundef nonnull align 4 dereferenceable(24) %_M_t) #3
  ret void
}

; Function Attrs: noinline nounwind optnone uwtable
define linkonce_odr dso_local void @_ZNSt3mapINSt7__cxx1112basic_stringIcSt11char_traitsIcESaIcEEESt3setIS5_St4lessIS5_ESaIS5_EES8_SaISt4pairIKS5_SA_EEED2Ev(ptr noundef nonnull align 4 dereferenceable(24) %this) unnamed_addr #4 comdat align 2 {
entry:
  %this.addr = alloca ptr, align 4
  store ptr %this, ptr %this.addr, align 4
  %this1 = load ptr, ptr %this.addr, align 4
  %_M_t = getelementptr inbounds %"class.std::map.22", ptr %this1, i32 0, i32 0
  call void @_ZNSt8_Rb_treeINSt7__cxx1112basic_stringIcSt11char_traitsIcESaIcEEESt4pairIKS5_St3setIS5_St4lessIS5_ESaIS5_EEESt10_Select1stISD_ESA_SaISD_EED2Ev(ptr noundef nonnull align 4 dereferenceable(24) %_M_t) #3
  ret void
}

; Function Attrs: noinline uwtable
define internal void @__cxx_global_var_init.12() #0 section ".text.startup" {
entry:
  call void @_ZNSt3mapINSt7__cxx1112basic_stringIcSt11char_traitsIcESaIcEEES5_St4lessIS5_ESaISt4pairIKS5_S5_EEEC2Ev(ptr noundef nonnull align 4 dereferenceable(24) @_ZL16BBMappingUnitMapB5cxx11) #3
  %0 = call i32 @__cxa_atexit(ptr @_ZNSt3mapINSt7__cxx1112basic_stringIcSt11char_traitsIcESaIcEEES5_St4lessIS5_ESaISt4pairIKS5_S5_EEED2Ev, ptr @_ZL16BBMappingUnitMapB5cxx11, ptr @__dso_handle) #3
  ret void
}

; Function Attrs: noinline nounwind optnone uwtable
define linkonce_odr dso_local void @_ZNSt3mapINSt7__cxx1112basic_stringIcSt11char_traitsIcESaIcEEES5_St4lessIS5_ESaISt4pairIKS5_S5_EEEC2Ev(ptr noundef nonnull align 4 dereferenceable(24) %this) unnamed_addr #4 comdat align 2 {
entry:
  %this.addr = alloca ptr, align 4
  store ptr %this, ptr %this.addr, align 4
  %this1 = load ptr, ptr %this.addr, align 4
  %_M_t = getelementptr inbounds %"class.std::map.27", ptr %this1, i32 0, i32 0
  call void @_ZNSt8_Rb_treeINSt7__cxx1112basic_stringIcSt11char_traitsIcESaIcEEESt4pairIKS5_S5_ESt10_Select1stIS8_ESt4lessIS5_ESaIS8_EEC2Ev(ptr noundef nonnull align 4 dereferenceable(24) %_M_t) #3
  ret void
}

; Function Attrs: noinline nounwind optnone uwtable
define linkonce_odr dso_local void @_ZNSt3mapINSt7__cxx1112basic_stringIcSt11char_traitsIcESaIcEEES5_St4lessIS5_ESaISt4pairIKS5_S5_EEED2Ev(ptr noundef nonnull align 4 dereferenceable(24) %this) unnamed_addr #4 comdat align 2 {
entry:
  %this.addr = alloca ptr, align 4
  store ptr %this, ptr %this.addr, align 4
  %this1 = load ptr, ptr %this.addr, align 4
  %_M_t = getelementptr inbounds %"class.std::map.27", ptr %this1, i32 0, i32 0
  call void @_ZNSt8_Rb_treeINSt7__cxx1112basic_stringIcSt11char_traitsIcESaIcEEESt4pairIKS5_S5_ESt10_Select1stIS8_ESt4lessIS5_ESaIS8_EED2Ev(ptr noundef nonnull align 4 dereferenceable(24) %_M_t) #3
  ret void
}

; Function Attrs: noinline uwtable
define internal void @__cxx_global_var_init.13() #0 section ".text.startup" {
entry:
  call void @_ZNSt3mapINSt7__cxx1112basic_stringIcSt11char_traitsIcESaIcEEES5_St4lessIS5_ESaISt4pairIKS5_S5_EEEC2Ev(ptr noundef nonnull align 4 dereferenceable(24) @_ZL18loopPreHeaderBBMapB5cxx11) #3
  %0 = call i32 @__cxa_atexit(ptr @_ZNSt3mapINSt7__cxx1112basic_stringIcSt11char_traitsIcESaIcEEES5_St4lessIS5_ESaISt4pairIKS5_S5_EEED2Ev, ptr @_ZL18loopPreHeaderBBMapB5cxx11, ptr @__dso_handle) #3
  ret void
}

; Function Attrs: noinline uwtable
define internal void @__cxx_global_var_init.14() #0 section ".text.startup" {
entry:
  call void @_ZNSt3mapINSt7__cxx1112basic_stringIcSt11char_traitsIcESaIcEEES_IS5_iSt4lessIS5_ESaISt4pairIKS5_iEEES7_SaIS8_IS9_SC_EEEC2Ev(ptr noundef nonnull align 4 dereferenceable(24) @_ZL17munitTransProfileB5cxx11) #3
  %0 = call i32 @__cxa_atexit(ptr @_ZNSt3mapINSt7__cxx1112basic_stringIcSt11char_traitsIcESaIcEEES_IS5_iSt4lessIS5_ESaISt4pairIKS5_iEEES7_SaIS8_IS9_SC_EEED2Ev, ptr @_ZL17munitTransProfileB5cxx11, ptr @__dso_handle) #3
  ret void
}

; Function Attrs: noinline nounwind optnone uwtable
define linkonce_odr dso_local void @_ZNSt3mapINSt7__cxx1112basic_stringIcSt11char_traitsIcESaIcEEES_IS5_iSt4lessIS5_ESaISt4pairIKS5_iEEES7_SaIS8_IS9_SC_EEEC2Ev(ptr noundef nonnull align 4 dereferenceable(24) %this) unnamed_addr #4 comdat align 2 {
entry:
  %this.addr = alloca ptr, align 4
  store ptr %this, ptr %this.addr, align 4
  %this1 = load ptr, ptr %this.addr, align 4
  %_M_t = getelementptr inbounds %"class.std::map.32", ptr %this1, i32 0, i32 0
  call void @_ZNSt8_Rb_treeINSt7__cxx1112basic_stringIcSt11char_traitsIcESaIcEEESt4pairIKS5_St3mapIS5_iSt4lessIS5_ESaIS6_IS7_iEEEESt10_Select1stISE_ESA_SaISE_EEC2Ev(ptr noundef nonnull align 4 dereferenceable(24) %_M_t) #3
  ret void
}

; Function Attrs: noinline nounwind optnone uwtable
define linkonce_odr dso_local void @_ZNSt3mapINSt7__cxx1112basic_stringIcSt11char_traitsIcESaIcEEES_IS5_iSt4lessIS5_ESaISt4pairIKS5_iEEES7_SaIS8_IS9_SC_EEED2Ev(ptr noundef nonnull align 4 dereferenceable(24) %this) unnamed_addr #4 comdat align 2 {
entry:
  %this.addr = alloca ptr, align 4
  store ptr %this, ptr %this.addr, align 4
  %this1 = load ptr, ptr %this.addr, align 4
  %_M_t = getelementptr inbounds %"class.std::map.32", ptr %this1, i32 0, i32 0
  call void @_ZNSt8_Rb_treeINSt7__cxx1112basic_stringIcSt11char_traitsIcESaIcEEESt4pairIKS5_St3mapIS5_iSt4lessIS5_ESaIS6_IS7_iEEEESt10_Select1stISE_ESA_SaISE_EED2Ev(ptr noundef nonnull align 4 dereferenceable(24) %_M_t) #3
  ret void
}

; Function Attrs: noinline uwtable
define internal void @__cxx_global_var_init.15() #0 section ".text.startup" {
entry:
  call void @_ZN8pathInfoC2Ev(ptr noundef nonnull align 4 dereferenceable(16) @currentPath) #3
  %0 = call i32 @__cxa_atexit(ptr @_ZN8pathInfoD2Ev, ptr @currentPath, ptr @__dso_handle) #3
  ret void
}

; Function Attrs: noinline nounwind optnone uwtable
define linkonce_odr dso_local void @_ZN8pathInfoC2Ev(ptr noundef nonnull align 4 dereferenceable(16) %this) unnamed_addr #4 comdat align 2 {
entry:
  %this.addr = alloca ptr, align 4
  store ptr %this, ptr %this.addr, align 4
  %this1 = load ptr, ptr %this.addr, align 4
  %currentBBPath = getelementptr inbounds %struct.pathInfo, ptr %this1, i32 0, i32 0
  call void @_ZNSt6vectorINSt7__cxx1112basic_stringIcSt11char_traitsIcESaIcEEESaIS5_EEC2Ev(ptr noundef nonnull align 4 dereferenceable(12) %currentBBPath) #3
  %currentBBPathCount = getelementptr inbounds %struct.pathInfo, ptr %this1, i32 0, i32 1
  store i32 0, ptr %currentBBPathCount, align 4
  ret void
}

; Function Attrs: noinline nounwind optnone uwtable
define linkonce_odr dso_local void @_ZN8pathInfoD2Ev(ptr noundef nonnull align 4 dereferenceable(16) %this) unnamed_addr #4 comdat align 2 {
entry:
  %this.addr = alloca ptr, align 4
  store ptr %this, ptr %this.addr, align 4
  %this1 = load ptr, ptr %this.addr, align 4
  %currentBBPath = getelementptr inbounds %struct.pathInfo, ptr %this1, i32 0, i32 0
  call void @_ZNSt6vectorINSt7__cxx1112basic_stringIcSt11char_traitsIcESaIcEEESaIS5_EED2Ev(ptr noundef nonnull align 4 dereferenceable(12) %currentBBPath) #3
  ret void
}

; Function Attrs: noinline uwtable
define internal void @__cxx_global_var_init.16() #0 section ".text.startup" {
entry:
  call void @_ZNSt3mapINSt7__cxx1112basic_stringIcSt11char_traitsIcESaIcEEESt6vectorIS6_I8pathInfoSaIS7_EESaIS9_EESt4lessIS5_ESaISt4pairIKS5_SB_EEEC2Ev(ptr noundef nonnull align 4 dereferenceable(24) @_Z13loopPathTraceB5cxx11) #3
  %0 = call i32 @__cxa_atexit(ptr @_ZNSt3mapINSt7__cxx1112basic_stringIcSt11char_traitsIcESaIcEEESt6vectorIS6_I8pathInfoSaIS7_EESaIS9_EESt4lessIS5_ESaISt4pairIKS5_SB_EEED2Ev, ptr @_Z13loopPathTraceB5cxx11, ptr @__dso_handle) #3
  ret void
}

; Function Attrs: noinline nounwind optnone uwtable
define linkonce_odr dso_local void @_ZNSt3mapINSt7__cxx1112basic_stringIcSt11char_traitsIcESaIcEEESt6vectorIS6_I8pathInfoSaIS7_EESaIS9_EESt4lessIS5_ESaISt4pairIKS5_SB_EEEC2Ev(ptr noundef nonnull align 4 dereferenceable(24) %this) unnamed_addr #4 comdat align 2 {
entry:
  %this.addr = alloca ptr, align 4
  store ptr %this, ptr %this.addr, align 4
  %this1 = load ptr, ptr %this.addr, align 4
  %_M_t = getelementptr inbounds %"class.std::map.40", ptr %this1, i32 0, i32 0
  call void @_ZNSt8_Rb_treeINSt7__cxx1112basic_stringIcSt11char_traitsIcESaIcEEESt4pairIKS5_St6vectorIS8_I8pathInfoSaIS9_EESaISB_EEESt10_Select1stISE_ESt4lessIS5_ESaISE_EEC2Ev(ptr noundef nonnull align 4 dereferenceable(24) %_M_t) #3
  ret void
}

; Function Attrs: noinline nounwind optnone uwtable
define linkonce_odr dso_local void @_ZNSt3mapINSt7__cxx1112basic_stringIcSt11char_traitsIcESaIcEEESt6vectorIS6_I8pathInfoSaIS7_EESaIS9_EESt4lessIS5_ESaISt4pairIKS5_SB_EEED2Ev(ptr noundef nonnull align 4 dereferenceable(24) %this) unnamed_addr #4 comdat align 2 {
entry:
  %this.addr = alloca ptr, align 4
  store ptr %this, ptr %this.addr, align 4
  %this1 = load ptr, ptr %this.addr, align 4
  %_M_t = getelementptr inbounds %"class.std::map.40", ptr %this1, i32 0, i32 0
  call void @_ZNSt8_Rb_treeINSt7__cxx1112basic_stringIcSt11char_traitsIcESaIcEEESt4pairIKS5_St6vectorIS8_I8pathInfoSaIS9_EESaISB_EEESt10_Select1stISE_ESt4lessIS5_ESaISE_EED2Ev(ptr noundef nonnull align 4 dereferenceable(24) %_M_t) #3
  ret void
}

; Function Attrs: noinline uwtable
define internal void @__cxx_global_var_init.17() #0 section ".text.startup" {
entry:
  call void @_ZNSt6vectorI8pathInfoSaIS0_EEC2Ev(ptr noundef nonnull align 4 dereferenceable(12) @pathTrace) #3
  %0 = call i32 @__cxa_atexit(ptr @_ZNSt6vectorI8pathInfoSaIS0_EED2Ev, ptr @pathTrace, ptr @__dso_handle) #3
  ret void
}

; Function Attrs: noinline nounwind optnone uwtable
define linkonce_odr dso_local void @_ZNSt6vectorI8pathInfoSaIS0_EEC2Ev(ptr noundef nonnull align 4 dereferenceable(12) %this) unnamed_addr #4 comdat align 2 {
entry:
  %this.addr = alloca ptr, align 4
  store ptr %this, ptr %this.addr, align 4
  %this1 = load ptr, ptr %this.addr, align 4
  call void @_ZNSt12_Vector_baseI8pathInfoSaIS0_EEC2Ev(ptr noundef nonnull align 4 dereferenceable(12) %this1) #3
  ret void
}

; Function Attrs: noinline nounwind optnone uwtable
define linkonce_odr dso_local void @_ZNSt6vectorI8pathInfoSaIS0_EED2Ev(ptr noundef nonnull align 4 dereferenceable(12) %this) unnamed_addr #4 comdat align 2 personality ptr @__gxx_personality_v0 {
entry:
  %this.addr = alloca ptr, align 4
  store ptr %this, ptr %this.addr, align 4
  %this1 = load ptr, ptr %this.addr, align 4
  %_M_impl = getelementptr inbounds %"struct.std::_Vector_base.46", ptr %this1, i32 0, i32 0
  %_M_start = getelementptr inbounds %"struct.std::_Vector_base<pathInfo, std::allocator<pathInfo>>::_Vector_impl_data", ptr %_M_impl, i32 0, i32 0
  %0 = load ptr, ptr %_M_start, align 4
  %_M_impl2 = getelementptr inbounds %"struct.std::_Vector_base.46", ptr %this1, i32 0, i32 0
  %_M_finish = getelementptr inbounds %"struct.std::_Vector_base<pathInfo, std::allocator<pathInfo>>::_Vector_impl_data", ptr %_M_impl2, i32 0, i32 1
  %1 = load ptr, ptr %_M_finish, align 4
  %call = call noundef nonnull align 1 dereferenceable(1) ptr @_ZNSt12_Vector_baseI8pathInfoSaIS0_EE19_M_get_Tp_allocatorEv(ptr noundef nonnull align 4 dereferenceable(12) %this1) #3
  invoke void @_ZSt8_DestroyIP8pathInfoS0_EvT_S2_RSaIT0_E(ptr noundef %0, ptr noundef %1, ptr noundef nonnull align 1 dereferenceable(1) %call)
          to label %invoke.cont unwind label %terminate.lpad

invoke.cont:                                      ; preds = %entry
  call void @_ZNSt12_Vector_baseI8pathInfoSaIS0_EED2Ev(ptr noundef nonnull align 4 dereferenceable(12) %this1) #3
  ret void

terminate.lpad:                                   ; preds = %entry
  %2 = landingpad { ptr, i32 }
          catch ptr null
  %3 = extractvalue { ptr, i32 } %2, 0
  call void @__clang_call_terminate(ptr %3) #19
  unreachable
}

; Function Attrs: noinline uwtable
define internal void @__cxx_global_var_init.18() #0 section ".text.startup" {
entry:
  call void @_ZNSt3mapISt6vectorINSt7__cxx1112basic_stringIcSt11char_traitsIcESaIcEEESaIS6_EEiSt4lessIS8_ESaISt4pairIKS8_iEEEC2Ev(ptr noundef nonnull align 4 dereferenceable(24) @_Z10pathsSoFarB5cxx11) #3
  %0 = call i32 @__cxa_atexit(ptr @_ZNSt3mapISt6vectorINSt7__cxx1112basic_stringIcSt11char_traitsIcESaIcEEESaIS6_EEiSt4lessIS8_ESaISt4pairIKS8_iEEED2Ev, ptr @_Z10pathsSoFarB5cxx11, ptr @__dso_handle) #3
  ret void
}

; Function Attrs: noinline nounwind optnone uwtable
define linkonce_odr dso_local void @_ZNSt3mapISt6vectorINSt7__cxx1112basic_stringIcSt11char_traitsIcESaIcEEESaIS6_EEiSt4lessIS8_ESaISt4pairIKS8_iEEEC2Ev(ptr noundef nonnull align 4 dereferenceable(24) %this) unnamed_addr #4 comdat align 2 {
entry:
  %this.addr = alloca ptr, align 4
  store ptr %this, ptr %this.addr, align 4
  %this1 = load ptr, ptr %this.addr, align 4
  %_M_t = getelementptr inbounds %"class.std::map.50", ptr %this1, i32 0, i32 0
  call void @_ZNSt8_Rb_treeISt6vectorINSt7__cxx1112basic_stringIcSt11char_traitsIcESaIcEEESaIS6_EESt4pairIKS8_iESt10_Select1stISB_ESt4lessIS8_ESaISB_EEC2Ev(ptr noundef nonnull align 4 dereferenceable(24) %_M_t) #3
  ret void
}

; Function Attrs: noinline nounwind optnone uwtable
define linkonce_odr dso_local void @_ZNSt3mapISt6vectorINSt7__cxx1112basic_stringIcSt11char_traitsIcESaIcEEESaIS6_EEiSt4lessIS8_ESaISt4pairIKS8_iEEED2Ev(ptr noundef nonnull align 4 dereferenceable(24) %this) unnamed_addr #4 comdat align 2 {
entry:
  %this.addr = alloca ptr, align 4
  store ptr %this, ptr %this.addr, align 4
  %this1 = load ptr, ptr %this.addr, align 4
  %_M_t = getelementptr inbounds %"class.std::map.50", ptr %this1, i32 0, i32 0
  call void @_ZNSt8_Rb_treeISt6vectorINSt7__cxx1112basic_stringIcSt11char_traitsIcESaIcEEESaIS6_EESt4pairIKS8_iESt10_Select1stISB_ESt4lessIS8_ESaISB_EED2Ev(ptr noundef nonnull align 4 dereferenceable(24) %_M_t) #3
  ret void
}

; Function Attrs: noinline uwtable
define internal void @__cxx_global_var_init.19() #0 section ".text.startup" {
entry:
  call void @_ZNSt3mapIj13AddrDataTupleSt4lessIjESaISt4pairIKjS0_EEEC2Ev(ptr noundef nonnull align 4 dereferenceable(24) @_ZL4data) #3
  %0 = call i32 @__cxa_atexit(ptr @_ZNSt3mapIj13AddrDataTupleSt4lessIjESaISt4pairIKjS0_EEED2Ev, ptr @_ZL4data, ptr @__dso_handle) #3
  ret void
}

; Function Attrs: noinline nounwind optnone uwtable
define linkonce_odr dso_local void @_ZNSt3mapIj13AddrDataTupleSt4lessIjESaISt4pairIKjS0_EEEC2Ev(ptr noundef nonnull align 4 dereferenceable(24) %this) unnamed_addr #4 comdat align 2 {
entry:
  %this.addr = alloca ptr, align 4
  store ptr %this, ptr %this.addr, align 4
  %this1 = load ptr, ptr %this.addr, align 4
  %_M_t = getelementptr inbounds %"class.std::map.58", ptr %this1, i32 0, i32 0
  call void @_ZNSt8_Rb_treeIjSt4pairIKj13AddrDataTupleESt10_Select1stIS3_ESt4lessIjESaIS3_EEC2Ev(ptr noundef nonnull align 4 dereferenceable(24) %_M_t) #3
  ret void
}

; Function Attrs: noinline nounwind optnone uwtable
define linkonce_odr dso_local void @_ZNSt3mapIj13AddrDataTupleSt4lessIjESaISt4pairIKjS0_EEED2Ev(ptr noundef nonnull align 4 dereferenceable(24) %this) unnamed_addr #4 comdat align 2 {
entry:
  %this.addr = alloca ptr, align 4
  store ptr %this, ptr %this.addr, align 4
  %this1 = load ptr, ptr %this.addr, align 4
  %_M_t = getelementptr inbounds %"class.std::map.58", ptr %this1, i32 0, i32 0
  call void @_ZNSt8_Rb_treeIjSt4pairIKj13AddrDataTupleESt10_Select1stIS3_ESt4lessIjESaIS3_EED2Ev(ptr noundef nonnull align 4 dereferenceable(24) %_M_t) #3
  ret void
}

; Function Attrs: noinline uwtable
define internal void @__cxx_global_var_init.20() #0 section ".text.startup" {
entry:
  call void @_ZNSt3mapINSt7__cxx1112basic_stringIcSt11char_traitsIcESaIcEEE20AddrDataTupleMorpherSt4lessIS5_ESaISt4pairIKS5_S6_EEEC2Ev(ptr noundef nonnull align 4 dereferenceable(24) @_ZL12data_morpherB5cxx11) #3
  %0 = call i32 @__cxa_atexit(ptr @_ZNSt3mapINSt7__cxx1112basic_stringIcSt11char_traitsIcESaIcEEE20AddrDataTupleMorpherSt4lessIS5_ESaISt4pairIKS5_S6_EEED2Ev, ptr @_ZL12data_morpherB5cxx11, ptr @__dso_handle) #3
  ret void
}

; Function Attrs: noinline nounwind optnone uwtable
define linkonce_odr dso_local void @_ZNSt3mapINSt7__cxx1112basic_stringIcSt11char_traitsIcESaIcEEE20AddrDataTupleMorpherSt4lessIS5_ESaISt4pairIKS5_S6_EEEC2Ev(ptr noundef nonnull align 4 dereferenceable(24) %this) unnamed_addr #4 comdat align 2 {
entry:
  %this.addr = alloca ptr, align 4
  store ptr %this, ptr %this.addr, align 4
  %this1 = load ptr, ptr %this.addr, align 4
  %_M_t = getelementptr inbounds %"class.std::map.66", ptr %this1, i32 0, i32 0
  call void @_ZNSt8_Rb_treeINSt7__cxx1112basic_stringIcSt11char_traitsIcESaIcEEESt4pairIKS5_20AddrDataTupleMorpherESt10_Select1stIS9_ESt4lessIS5_ESaIS9_EEC2Ev(ptr noundef nonnull align 4 dereferenceable(24) %_M_t) #3
  ret void
}

; Function Attrs: noinline nounwind optnone uwtable
define linkonce_odr dso_local void @_ZNSt3mapINSt7__cxx1112basic_stringIcSt11char_traitsIcESaIcEEE20AddrDataTupleMorpherSt4lessIS5_ESaISt4pairIKS5_S6_EEED2Ev(ptr noundef nonnull align 4 dereferenceable(24) %this) unnamed_addr #4 comdat align 2 {
entry:
  %this.addr = alloca ptr, align 4
  store ptr %this, ptr %this.addr, align 4
  %this1 = load ptr, ptr %this.addr, align 4
  %_M_t = getelementptr inbounds %"class.std::map.66", ptr %this1, i32 0, i32 0
  call void @_ZNSt8_Rb_treeINSt7__cxx1112basic_stringIcSt11char_traitsIcESaIcEEESt4pairIKS5_20AddrDataTupleMorpherESt10_Select1stIS9_ESt4lessIS5_ESaIS9_EED2Ev(ptr noundef nonnull align 4 dereferenceable(24) %_M_t) #3
  ret void
}

; Function Attrs: mustprogress noinline optnone uwtable
define dso_local void @printArr(ptr noundef %name, ptr noundef %arr, i32 noundef %size, i8 noundef zeroext %io, i32 noundef %addr) #5 personality ptr @__gxx_personality_v0 {
entry:
  %name.addr = alloca ptr, align 4
  %arr.addr = alloca ptr, align 4
  %size.addr = alloca i32, align 4
  %io.addr = alloca i8, align 1
  %addr.addr = alloca i32, align 4
  %str = alloca %"class.std::__cxx11::basic_string", align 4
  %ref.tmp = alloca %"class.std::allocator.19", align 1
  %exn.slot = alloca ptr, align 4
  %ehselector.slot = alloca i32, align 4
  %ref.tmp1 = alloca %"struct.std::_Rb_tree_const_iterator", align 4
  %ref.tmp4 = alloca %"struct.std::_Rb_tree_const_iterator", align 4
  %cleanup.dest.slot = alloca i32, align 4
  %i = alloca i32, align 4
  %tuple = alloca %struct.AddrDataTuple, align 4
  %ref.tmp35 = alloca i32, align 4
  %ref.tmp42 = alloca i32, align 4
  %tmp = alloca %"struct.std::pair", align 4
  store ptr %name, ptr %name.addr, align 4
  store ptr %arr, ptr %arr.addr, align 4
  store i32 %size, ptr %size.addr, align 4
  store i8 %io, ptr %io.addr, align 1
  store i32 %addr, ptr %addr.addr, align 4
  %0 = load ptr, ptr %name.addr, align 4
  call void @_ZNSaIcEC1Ev(ptr noundef nonnull align 1 dereferenceable(1) %ref.tmp) #3
  invoke void @_ZNSt7__cxx1112basic_stringIcSt11char_traitsIcESaIcEEC1EPKcRKS3_(ptr noundef nonnull align 4 dereferenceable(24) %str, ptr noundef %0, ptr noundef nonnull align 1 dereferenceable(1) %ref.tmp)
          to label %invoke.cont unwind label %lpad

invoke.cont:                                      ; preds = %entry
  call void @_ZNSaIcED1Ev(ptr noundef nonnull align 1 dereferenceable(1) %ref.tmp) #3
  invoke void @_ZNSt3setINSt7__cxx1112basic_stringIcSt11char_traitsIcESaIcEEESt4lessIS5_ESaIS5_EE4findERKS5_(ptr sret(%"struct.std::_Rb_tree_const_iterator") align 4 %ref.tmp1, ptr noundef nonnull align 4 dereferenceable(24) @_ZL11printedArrsB5cxx11, ptr noundef nonnull align 4 dereferenceable(24) %str)
          to label %invoke.cont3 unwind label %lpad2

invoke.cont3:                                     ; preds = %invoke.cont
  call void @_ZNKSt3setINSt7__cxx1112basic_stringIcSt11char_traitsIcESaIcEEESt4lessIS5_ESaIS5_EE3endEv(ptr sret(%"struct.std::_Rb_tree_const_iterator") align 4 %ref.tmp4, ptr noundef nonnull align 4 dereferenceable(24) @_ZL11printedArrsB5cxx11) #3
  %call = call noundef zeroext i1 @_ZStneRKSt23_Rb_tree_const_iteratorINSt7__cxx1112basic_stringIcSt11char_traitsIcESaIcEEEES8_(ptr noundef nonnull align 4 dereferenceable(4) %ref.tmp1, ptr noundef nonnull align 4 dereferenceable(4) %ref.tmp4) #3
  br i1 %call, label %if.then, label %if.end

if.then:                                          ; preds = %invoke.cont3
  store i32 1, ptr %cleanup.dest.slot, align 4
  br label %cleanup

lpad:                                             ; preds = %entry
  %1 = landingpad { ptr, i32 }
          cleanup
  %2 = extractvalue { ptr, i32 } %1, 0
  store ptr %2, ptr %exn.slot, align 4
  %3 = extractvalue { ptr, i32 } %1, 1
  store i32 %3, ptr %ehselector.slot, align 4
  call void @_ZNSaIcED1Ev(ptr noundef nonnull align 1 dereferenceable(1) %ref.tmp) #3
  br label %eh.resume

lpad2:                                            ; preds = %invoke.cont53, %for.end, %invoke.cont49, %if.end46, %if.else40, %invoke.cont23, %invoke.cont21, %invoke.cont19, %invoke.cont17, %invoke.cont15, %invoke.cont13, %if.end12, %if.else, %if.then7, %if.end, %invoke.cont
  %4 = landingpad { ptr, i32 }
          cleanup
  %5 = extractvalue { ptr, i32 } %4, 0
  store ptr %5, ptr %exn.slot, align 4
  %6 = extractvalue { ptr, i32 } %4, 1
  store i32 %6, ptr %ehselector.slot, align 4
  br label %ehcleanup

if.end:                                           ; preds = %invoke.cont3
  %call6 = invoke noundef nonnull align 4 dereferenceable(4) ptr @_ZStlsISt11char_traitsIcEERSt13basic_ostreamIcT_ES5_PKc(ptr noundef nonnull align 4 dereferenceable(4) @_ZSt4cout, ptr noundef @.str)
          to label %invoke.cont5 unwind label %lpad2

invoke.cont5:                                     ; preds = %if.end
  %7 = load i8, ptr %io.addr, align 1
  %conv = zext i8 %7 to i32
  %cmp = icmp eq i32 %conv, 1
  br i1 %cmp, label %if.then7, label %if.else

if.then7:                                         ; preds = %invoke.cont5
  %call9 = invoke noundef nonnull align 4 dereferenceable(4) ptr @_ZStlsISt11char_traitsIcEERSt13basic_ostreamIcT_ES5_PKc(ptr noundef nonnull align 4 dereferenceable(4) @_ZSt4cout, ptr noundef @.str.21)
          to label %invoke.cont8 unwind label %lpad2

invoke.cont8:                                     ; preds = %if.then7
  br label %if.end12

if.else:                                          ; preds = %invoke.cont5
  %call11 = invoke noundef nonnull align 4 dereferenceable(4) ptr @_ZStlsISt11char_traitsIcEERSt13basic_ostreamIcT_ES5_PKc(ptr noundef nonnull align 4 dereferenceable(4) @_ZSt4cout, ptr noundef @.str.22)
          to label %invoke.cont10 unwind label %lpad2

invoke.cont10:                                    ; preds = %if.else
  br label %if.end12

if.end12:                                         ; preds = %invoke.cont10, %invoke.cont8
  %call14 = invoke noundef nonnull align 4 dereferenceable(4) ptr @_ZStlsISt11char_traitsIcEERSt13basic_ostreamIcT_ES5_PKc(ptr noundef nonnull align 4 dereferenceable(4) @_ZSt4cout, ptr noundef @.str.23)
          to label %invoke.cont13 unwind label %lpad2

invoke.cont13:                                    ; preds = %if.end12
  %8 = load ptr, ptr %name.addr, align 4
  %call16 = invoke noundef nonnull align 4 dereferenceable(4) ptr @_ZStlsISt11char_traitsIcEERSt13basic_ostreamIcT_ES5_PKc(ptr noundef nonnull align 4 dereferenceable(4) %call14, ptr noundef %8)
          to label %invoke.cont15 unwind label %lpad2

invoke.cont15:                                    ; preds = %invoke.cont13
  %call18 = invoke noundef nonnull align 4 dereferenceable(4) ptr @_ZStlsISt11char_traitsIcEERSt13basic_ostreamIcT_ES5_PKc(ptr noundef nonnull align 4 dereferenceable(4) %call16, ptr noundef @.str.24)
          to label %invoke.cont17 unwind label %lpad2

invoke.cont17:                                    ; preds = %invoke.cont15
  %9 = load i32, ptr %size.addr, align 4
  %call20 = invoke noundef nonnull align 4 dereferenceable(4) ptr @_ZNSolsEi(ptr noundef nonnull align 4 dereferenceable(4) %call18, i32 noundef %9)
          to label %invoke.cont19 unwind label %lpad2

invoke.cont19:                                    ; preds = %invoke.cont17
  %call22 = invoke noundef nonnull align 4 dereferenceable(4) ptr @_ZStlsISt11char_traitsIcEERSt13basic_ostreamIcT_ES5_PKc(ptr noundef nonnull align 4 dereferenceable(4) %call20, ptr noundef @.str.25)
          to label %invoke.cont21 unwind label %lpad2

invoke.cont21:                                    ; preds = %invoke.cont19
  %10 = load i32, ptr %addr.addr, align 4
  %call24 = invoke noundef nonnull align 4 dereferenceable(4) ptr @_ZNSolsEj(ptr noundef nonnull align 4 dereferenceable(4) %call22, i32 noundef %10)
          to label %invoke.cont23 unwind label %lpad2

invoke.cont23:                                    ; preds = %invoke.cont21
  %call26 = invoke noundef nonnull align 4 dereferenceable(4) ptr @_ZStlsISt11char_traitsIcEERSt13basic_ostreamIcT_ES5_PKc(ptr noundef nonnull align 4 dereferenceable(4) %call24, ptr noundef @.str.26)
          to label %invoke.cont25 unwind label %lpad2

invoke.cont25:                                    ; preds = %invoke.cont23
  store i32 0, ptr %i, align 4
  br label %for.cond

for.cond:                                         ; preds = %for.inc, %invoke.cont25
  %11 = load i32, ptr %i, align 4
  %12 = load i32, ptr %size.addr, align 4
  %cmp27 = icmp slt i32 %11, %12
  br i1 %cmp27, label %for.body, label %for.end

for.body:                                         ; preds = %for.cond
  %13 = load i8, ptr %io.addr, align 1
  %conv28 = zext i8 %13 to i32
  %cmp29 = icmp eq i32 %conv28, 1
  br i1 %cmp29, label %if.then30, label %if.else40

if.then30:                                        ; preds = %for.body
  call void @_ZN13AddrDataTupleC2Ev(ptr noundef nonnull align 4 dereferenceable(28) %tuple) #3
  %name31 = getelementptr inbounds %struct.AddrDataTuple, ptr %tuple, i32 0, i32 2
  %call34 = invoke noundef nonnull align 4 dereferenceable(24) ptr @_ZNSt7__cxx1112basic_stringIcSt11char_traitsIcESaIcEEaSERKS4_(ptr noundef nonnull align 4 dereferenceable(24) %name31, ptr noundef nonnull align 4 dereferenceable(24) %str)
          to label %invoke.cont33 unwind label %lpad32

invoke.cont33:                                    ; preds = %if.then30
  %14 = load ptr, ptr %arr.addr, align 4
  %15 = load i32, ptr %i, align 4
  %arrayidx = getelementptr inbounds i8, ptr %14, i32 %15
  %16 = load i8, ptr %arrayidx, align 1
  %pre_data = getelementptr inbounds %struct.AddrDataTuple, ptr %tuple, i32 0, i32 0
  store i8 %16, ptr %pre_data, align 4
  %17 = load i32, ptr %addr.addr, align 4
  %18 = load i32, ptr %i, align 4
  %add = add i32 %17, %18
  store i32 %add, ptr %ref.tmp35, align 4
  %call37 = invoke noundef nonnull align 4 dereferenceable(28) ptr @_ZNSt3mapIj13AddrDataTupleSt4lessIjESaISt4pairIKjS0_EEEixEOj(ptr noundef nonnull align 4 dereferenceable(24) @_ZL4data, ptr noundef nonnull align 4 dereferenceable(4) %ref.tmp35)
          to label %invoke.cont36 unwind label %lpad32

invoke.cont36:                                    ; preds = %invoke.cont33
  %call39 = invoke noundef nonnull align 4 dereferenceable(28) ptr @_ZN13AddrDataTupleaSERKS_(ptr noundef nonnull align 4 dereferenceable(28) %call37, ptr noundef nonnull align 4 dereferenceable(28) %tuple)
          to label %invoke.cont38 unwind label %lpad32

invoke.cont38:                                    ; preds = %invoke.cont36
  call void @_ZN13AddrDataTupleD2Ev(ptr noundef nonnull align 4 dereferenceable(28) %tuple) #3
  br label %if.end46

lpad32:                                           ; preds = %invoke.cont36, %invoke.cont33, %if.then30
  %19 = landingpad { ptr, i32 }
          cleanup
  %20 = extractvalue { ptr, i32 } %19, 0
  store ptr %20, ptr %exn.slot, align 4
  %21 = extractvalue { ptr, i32 } %19, 1
  store i32 %21, ptr %ehselector.slot, align 4
  call void @_ZN13AddrDataTupleD2Ev(ptr noundef nonnull align 4 dereferenceable(28) %tuple) #3
  br label %ehcleanup

if.else40:                                        ; preds = %for.body
  %22 = load ptr, ptr %arr.addr, align 4
  %23 = load i32, ptr %i, align 4
  %arrayidx41 = getelementptr inbounds i8, ptr %22, i32 %23
  %24 = load i8, ptr %arrayidx41, align 1
  %25 = load i32, ptr %addr.addr, align 4
  %26 = load i32, ptr %i, align 4
  %add43 = add i32 %25, %26
  store i32 %add43, ptr %ref.tmp42, align 4
  %call45 = invoke noundef nonnull align 4 dereferenceable(28) ptr @_ZNSt3mapIj13AddrDataTupleSt4lessIjESaISt4pairIKjS0_EEEixEOj(ptr noundef nonnull align 4 dereferenceable(24) @_ZL4data, ptr noundef nonnull align 4 dereferenceable(4) %ref.tmp42)
          to label %invoke.cont44 unwind label %lpad2

invoke.cont44:                                    ; preds = %if.else40
  %post_data = getelementptr inbounds %struct.AddrDataTuple, ptr %call45, i32 0, i32 1
  store i8 %24, ptr %post_data, align 1
  br label %if.end46

if.end46:                                         ; preds = %invoke.cont44, %invoke.cont38
  %27 = load ptr, ptr %arr.addr, align 4
  %28 = load i32, ptr %i, align 4
  %arrayidx47 = getelementptr inbounds i8, ptr %27, i32 %28
  %29 = load i8, ptr %arrayidx47, align 1
  %conv48 = zext i8 %29 to i32
  %call50 = invoke noundef nonnull align 4 dereferenceable(4) ptr @_ZNSolsEi(ptr noundef nonnull align 4 dereferenceable(4) @_ZSt4cout, i32 noundef %conv48)
          to label %invoke.cont49 unwind label %lpad2

invoke.cont49:                                    ; preds = %if.end46
  %call52 = invoke noundef nonnull align 4 dereferenceable(4) ptr @_ZStlsISt11char_traitsIcEERSt13basic_ostreamIcT_ES5_PKc(ptr noundef nonnull align 4 dereferenceable(4) %call50, ptr noundef @.str.27)
          to label %invoke.cont51 unwind label %lpad2

invoke.cont51:                                    ; preds = %invoke.cont49
  br label %for.inc

for.inc:                                          ; preds = %invoke.cont51
  %30 = load i32, ptr %i, align 4
  %inc = add nsw i32 %30, 1
  store i32 %inc, ptr %i, align 4
  br label %for.cond, !llvm.loop !7

for.end:                                          ; preds = %for.cond
  %call54 = invoke noundef nonnull align 4 dereferenceable(4) ptr @_ZStlsISt11char_traitsIcEERSt13basic_ostreamIcT_ES5_PKc(ptr noundef nonnull align 4 dereferenceable(4) @_ZSt4cout, ptr noundef @.str.26)
          to label %invoke.cont53 unwind label %lpad2

invoke.cont53:                                    ; preds = %for.end
  invoke void @_ZNSt3setINSt7__cxx1112basic_stringIcSt11char_traitsIcESaIcEEESt4lessIS5_ESaIS5_EE6insertERKS5_(ptr sret(%"struct.std::pair") align 4 %tmp, ptr noundef nonnull align 4 dereferenceable(24) @_ZL11printedArrsB5cxx11, ptr noundef nonnull align 4 dereferenceable(24) %str)
          to label %invoke.cont55 unwind label %lpad2

invoke.cont55:                                    ; preds = %invoke.cont53
  store i32 0, ptr %cleanup.dest.slot, align 4
  br label %cleanup

cleanup:                                          ; preds = %invoke.cont55, %if.then
  call void @_ZNSt7__cxx1112basic_stringIcSt11char_traitsIcESaIcEED1Ev(ptr noundef nonnull align 4 dereferenceable(24) %str) #3
  %cleanup.dest = load i32, ptr %cleanup.dest.slot, align 4
  switch i32 %cleanup.dest, label %unreachable [
    i32 0, label %cleanup.cont
    i32 1, label %cleanup.cont
  ]

cleanup.cont:                                     ; preds = %cleanup, %cleanup
  ret void

ehcleanup:                                        ; preds = %lpad32, %lpad2
  call void @_ZNSt7__cxx1112basic_stringIcSt11char_traitsIcESaIcEED1Ev(ptr noundef nonnull align 4 dereferenceable(24) %str) #3
  br label %eh.resume

eh.resume:                                        ; preds = %ehcleanup, %lpad
  %exn = load ptr, ptr %exn.slot, align 4
  %sel = load i32, ptr %ehselector.slot, align 4
  %lpad.val = insertvalue { ptr, i32 } undef, ptr %exn, 0
  %lpad.val56 = insertvalue { ptr, i32 } %lpad.val, i32 %sel, 1
  resume { ptr, i32 } %lpad.val56

unreachable:                                      ; preds = %cleanup
  unreachable
}

; Function Attrs: nounwind
declare void @_ZNSaIcEC1Ev(ptr noundef nonnull align 1 dereferenceable(1)) unnamed_addr #2

declare void @_ZNSt7__cxx1112basic_stringIcSt11char_traitsIcESaIcEEC1EPKcRKS3_(ptr noundef nonnull align 4 dereferenceable(24), ptr noundef, ptr noundef nonnull align 1 dereferenceable(1)) unnamed_addr #1

declare i32 @__gxx_personality_v0(...)

; Function Attrs: nounwind
declare void @_ZNSaIcED1Ev(ptr noundef nonnull align 1 dereferenceable(1)) unnamed_addr #2

; Function Attrs: mustprogress noinline nounwind optnone uwtable
define linkonce_odr dso_local noundef zeroext i1 @_ZStneRKSt23_Rb_tree_const_iteratorINSt7__cxx1112basic_stringIcSt11char_traitsIcESaIcEEEES8_(ptr noundef nonnull align 4 dereferenceable(4) %__x, ptr noundef nonnull align 4 dereferenceable(4) %__y) #6 comdat {
entry:
  %__x.addr = alloca ptr, align 4
  %__y.addr = alloca ptr, align 4
  store ptr %__x, ptr %__x.addr, align 4
  store ptr %__y, ptr %__y.addr, align 4
  %0 = load ptr, ptr %__x.addr, align 4
  %_M_node = getelementptr inbounds %"struct.std::_Rb_tree_const_iterator", ptr %0, i32 0, i32 0
  %1 = load ptr, ptr %_M_node, align 4
  %2 = load ptr, ptr %__y.addr, align 4
  %_M_node1 = getelementptr inbounds %"struct.std::_Rb_tree_const_iterator", ptr %2, i32 0, i32 0
  %3 = load ptr, ptr %_M_node1, align 4
  %cmp = icmp ne ptr %1, %3
  ret i1 %cmp
}

; Function Attrs: mustprogress noinline optnone uwtable
define linkonce_odr dso_local void @_ZNSt3setINSt7__cxx1112basic_stringIcSt11char_traitsIcESaIcEEESt4lessIS5_ESaIS5_EE4findERKS5_(ptr noalias sret(%"struct.std::_Rb_tree_const_iterator") align 4 %agg.result, ptr noundef nonnull align 4 dereferenceable(24) %this, ptr noundef nonnull align 4 dereferenceable(24) %__x) #5 comdat align 2 {
entry:
  %result.ptr = alloca ptr, align 4
  %this.addr = alloca ptr, align 4
  %__x.addr = alloca ptr, align 4
  %ref.tmp = alloca %"struct.std::_Rb_tree_iterator.157", align 4
  store ptr %agg.result, ptr %result.ptr, align 4
  store ptr %this, ptr %this.addr, align 4
  store ptr %__x, ptr %__x.addr, align 4
  %this1 = load ptr, ptr %this.addr, align 4
  %_M_t = getelementptr inbounds %"class.std::set", ptr %this1, i32 0, i32 0
  %0 = load ptr, ptr %__x.addr, align 4
  call void @_ZNSt8_Rb_treeINSt7__cxx1112basic_stringIcSt11char_traitsIcESaIcEEES5_St9_IdentityIS5_ESt4lessIS5_ESaIS5_EE4findERKS5_(ptr sret(%"struct.std::_Rb_tree_iterator.157") align 4 %ref.tmp, ptr noundef nonnull align 4 dereferenceable(24) %_M_t, ptr noundef nonnull align 4 dereferenceable(24) %0)
  call void @_ZNSt23_Rb_tree_const_iteratorINSt7__cxx1112basic_stringIcSt11char_traitsIcESaIcEEEEC2ERKSt17_Rb_tree_iteratorIS5_E(ptr noundef nonnull align 4 dereferenceable(4) %agg.result, ptr noundef nonnull align 4 dereferenceable(4) %ref.tmp) #3
  ret void
}

; Function Attrs: mustprogress noinline nounwind optnone uwtable
define linkonce_odr dso_local void @_ZNKSt3setINSt7__cxx1112basic_stringIcSt11char_traitsIcESaIcEEESt4lessIS5_ESaIS5_EE3endEv(ptr noalias sret(%"struct.std::_Rb_tree_const_iterator") align 4 %agg.result, ptr noundef nonnull align 4 dereferenceable(24) %this) #6 comdat align 2 {
entry:
  %result.ptr = alloca ptr, align 4
  %this.addr = alloca ptr, align 4
  store ptr %agg.result, ptr %result.ptr, align 4
  store ptr %this, ptr %this.addr, align 4
  %this1 = load ptr, ptr %this.addr, align 4
  %_M_t = getelementptr inbounds %"class.std::set", ptr %this1, i32 0, i32 0
  call void @_ZNKSt8_Rb_treeINSt7__cxx1112basic_stringIcSt11char_traitsIcESaIcEEES5_St9_IdentityIS5_ESt4lessIS5_ESaIS5_EE3endEv(ptr sret(%"struct.std::_Rb_tree_const_iterator") align 4 %agg.result, ptr noundef nonnull align 4 dereferenceable(24) %_M_t) #3
  ret void
}

declare noundef nonnull align 4 dereferenceable(4) ptr @_ZStlsISt11char_traitsIcEERSt13basic_ostreamIcT_ES5_PKc(ptr noundef nonnull align 4 dereferenceable(4), ptr noundef) #1

declare noundef nonnull align 4 dereferenceable(4) ptr @_ZNSolsEi(ptr noundef nonnull align 4 dereferenceable(4), i32 noundef) #1

declare noundef nonnull align 4 dereferenceable(4) ptr @_ZNSolsEj(ptr noundef nonnull align 4 dereferenceable(4), i32 noundef) #1

; Function Attrs: noinline nounwind optnone uwtable
define linkonce_odr dso_local void @_ZN13AddrDataTupleC2Ev(ptr noundef nonnull align 4 dereferenceable(28) %this) unnamed_addr #4 comdat align 2 {
entry:
  %this.addr = alloca ptr, align 4
  store ptr %this, ptr %this.addr, align 4
  %this1 = load ptr, ptr %this.addr, align 4
  %name = getelementptr inbounds %struct.AddrDataTuple, ptr %this1, i32 0, i32 2
  call void @_ZNSt7__cxx1112basic_stringIcSt11char_traitsIcESaIcEEC1Ev(ptr noundef nonnull align 4 dereferenceable(24) %name) #3
  ret void
}

declare noundef nonnull align 4 dereferenceable(24) ptr @_ZNSt7__cxx1112basic_stringIcSt11char_traitsIcESaIcEEaSERKS4_(ptr noundef nonnull align 4 dereferenceable(24), ptr noundef nonnull align 4 dereferenceable(24)) #1

; Function Attrs: mustprogress noinline optnone uwtable
define linkonce_odr dso_local noundef nonnull align 4 dereferenceable(28) ptr @_ZNSt3mapIj13AddrDataTupleSt4lessIjESaISt4pairIKjS0_EEEixEOj(ptr noundef nonnull align 4 dereferenceable(24) %this, ptr noundef nonnull align 4 dereferenceable(4) %__k) #5 comdat align 2 {
entry:
  %this.addr = alloca ptr, align 4
  %__k.addr = alloca ptr, align 4
  %__i = alloca %"struct.std::_Rb_tree_iterator.79", align 4
  %ref.tmp = alloca %"struct.std::_Rb_tree_iterator.79", align 4
  %ref.tmp2 = alloca %"struct.std::less.64", align 1
  %ref.tmp5 = alloca %"struct.std::_Rb_tree_iterator.79", align 4
  %agg.tmp = alloca %"struct.std::_Rb_tree_const_iterator.159", align 4
  %ref.tmp6 = alloca %"class.std::tuple", align 4
  %ref.tmp7 = alloca %"class.std::tuple.158", align 1
  store ptr %this, ptr %this.addr, align 4
  store ptr %__k, ptr %__k.addr, align 4
  %this1 = load ptr, ptr %this.addr, align 4
  %0 = load ptr, ptr %__k.addr, align 4
  call void @_ZNSt3mapIj13AddrDataTupleSt4lessIjESaISt4pairIKjS0_EEE11lower_boundERS4_(ptr sret(%"struct.std::_Rb_tree_iterator.79") align 4 %__i, ptr noundef nonnull align 4 dereferenceable(24) %this1, ptr noundef nonnull align 4 dereferenceable(4) %0)
  call void @_ZNSt3mapIj13AddrDataTupleSt4lessIjESaISt4pairIKjS0_EEE3endEv(ptr sret(%"struct.std::_Rb_tree_iterator.79") align 4 %ref.tmp, ptr noundef nonnull align 4 dereferenceable(24) %this1) #3
  %call = call noundef zeroext i1 @_ZSteqRKSt17_Rb_tree_iteratorISt4pairIKj13AddrDataTupleEES6_(ptr noundef nonnull align 4 dereferenceable(4) %__i, ptr noundef nonnull align 4 dereferenceable(4) %ref.tmp) #3
  br i1 %call, label %lor.end, label %lor.rhs

lor.rhs:                                          ; preds = %entry
  call void @_ZNKSt3mapIj13AddrDataTupleSt4lessIjESaISt4pairIKjS0_EEE8key_compEv(ptr sret(%"struct.std::less.64") align 1 %ref.tmp2, ptr noundef nonnull align 4 dereferenceable(24) %this1)
  %1 = load ptr, ptr %__k.addr, align 4
  %call3 = call noundef nonnull align 4 dereferenceable(32) ptr @_ZNKSt17_Rb_tree_iteratorISt4pairIKj13AddrDataTupleEEdeEv(ptr noundef nonnull align 4 dereferenceable(4) %__i) #3
  %first = getelementptr inbounds %"struct.std::pair.80", ptr %call3, i32 0, i32 0
  %call4 = call noundef zeroext i1 @_ZNKSt4lessIjEclERKjS2_(ptr noundef nonnull align 1 dereferenceable(1) %ref.tmp2, ptr noundef nonnull align 4 dereferenceable(4) %1, ptr noundef nonnull align 4 dereferenceable(4) %first)
  br label %lor.end

lor.end:                                          ; preds = %lor.rhs, %entry
  %2 = phi i1 [ true, %entry ], [ %call4, %lor.rhs ]
  br i1 %2, label %if.then, label %if.end

if.then:                                          ; preds = %lor.end
  %_M_t = getelementptr inbounds %"class.std::map.58", ptr %this1, i32 0, i32 0
  call void @_ZNSt23_Rb_tree_const_iteratorISt4pairIKj13AddrDataTupleEEC2ERKSt17_Rb_tree_iteratorIS3_E(ptr noundef nonnull align 4 dereferenceable(4) %agg.tmp, ptr noundef nonnull align 4 dereferenceable(4) %__i) #3
  %3 = load ptr, ptr %__k.addr, align 4
  call void @_ZSt16forward_as_tupleIJjEESt5tupleIJDpOT_EES3_(ptr sret(%"class.std::tuple") align 4 %ref.tmp6, ptr noundef nonnull align 4 dereferenceable(4) %3) #3
  call void @_ZNSt8_Rb_treeIjSt4pairIKj13AddrDataTupleESt10_Select1stIS3_ESt4lessIjESaIS3_EE22_M_emplace_hint_uniqueIJRKSt21piecewise_construct_tSt5tupleIJOjEESE_IJEEEEESt17_Rb_tree_iteratorIS3_ESt23_Rb_tree_const_iteratorIS3_EDpOT_(ptr sret(%"struct.std::_Rb_tree_iterator.79") align 4 %ref.tmp5, ptr noundef nonnull align 4 dereferenceable(24) %_M_t, ptr noundef byval(%"struct.std::_Rb_tree_const_iterator.159") align 4 %agg.tmp, ptr noundef nonnull align 1 dereferenceable(1) @_ZStL19piecewise_construct, ptr noundef nonnull align 4 dereferenceable(4) %ref.tmp6, ptr noundef nonnull align 1 dereferenceable(1) %ref.tmp7)
  call void @llvm.memcpy.p0.p0.i32(ptr align 4 %__i, ptr align 4 %ref.tmp5, i32 4, i1 false)
  br label %if.end

if.end:                                           ; preds = %if.then, %lor.end
  %call8 = call noundef nonnull align 4 dereferenceable(32) ptr @_ZNKSt17_Rb_tree_iteratorISt4pairIKj13AddrDataTupleEEdeEv(ptr noundef nonnull align 4 dereferenceable(4) %__i) #3
  %second = getelementptr inbounds %"struct.std::pair.80", ptr %call8, i32 0, i32 1
  ret ptr %second
}

; Function Attrs: noinline optnone uwtable
define linkonce_odr dso_local noundef nonnull align 4 dereferenceable(28) ptr @_ZN13AddrDataTupleaSERKS_(ptr noundef nonnull align 4 dereferenceable(28) %this, ptr noundef nonnull align 4 dereferenceable(28) %0) #7 comdat align 2 {
entry:
  %this.addr = alloca ptr, align 4
  %.addr = alloca ptr, align 4
  store ptr %this, ptr %this.addr, align 4
  store ptr %0, ptr %.addr, align 4
  %this1 = load ptr, ptr %this.addr, align 4
  %pre_data = getelementptr inbounds %struct.AddrDataTuple, ptr %this1, i32 0, i32 0
  %1 = load ptr, ptr %.addr, align 4
  %pre_data2 = getelementptr inbounds %struct.AddrDataTuple, ptr %1, i32 0, i32 0
  call void @llvm.memcpy.p0.p0.i64(ptr align 4 %pre_data, ptr align 4 %pre_data2, i64 2, i1 false)
  %name = getelementptr inbounds %struct.AddrDataTuple, ptr %this1, i32 0, i32 2
  %2 = load ptr, ptr %.addr, align 4
  %name3 = getelementptr inbounds %struct.AddrDataTuple, ptr %2, i32 0, i32 2
  %call = call noundef nonnull align 4 dereferenceable(24) ptr @_ZNSt7__cxx1112basic_stringIcSt11char_traitsIcESaIcEEaSERKS4_(ptr noundef nonnull align 4 dereferenceable(24) %name, ptr noundef nonnull align 4 dereferenceable(24) %name3)
  ret ptr %this1
}

; Function Attrs: noinline nounwind optnone uwtable
define linkonce_odr dso_local void @_ZN13AddrDataTupleD2Ev(ptr noundef nonnull align 4 dereferenceable(28) %this) unnamed_addr #4 comdat align 2 {
entry:
  %this.addr = alloca ptr, align 4
  store ptr %this, ptr %this.addr, align 4
  %this1 = load ptr, ptr %this.addr, align 4
  %name = getelementptr inbounds %struct.AddrDataTuple, ptr %this1, i32 0, i32 2
  call void @_ZNSt7__cxx1112basic_stringIcSt11char_traitsIcESaIcEED1Ev(ptr noundef nonnull align 4 dereferenceable(24) %name) #3
  ret void
}

; Function Attrs: mustprogress noinline optnone uwtable
define linkonce_odr dso_local void @_ZNSt3setINSt7__cxx1112basic_stringIcSt11char_traitsIcESaIcEEESt4lessIS5_ESaIS5_EE6insertERKS5_(ptr noalias sret(%"struct.std::pair") align 4 %agg.result, ptr noundef nonnull align 4 dereferenceable(24) %this, ptr noundef nonnull align 4 dereferenceable(24) %__x) #5 comdat align 2 {
entry:
  %result.ptr = alloca ptr, align 4
  %this.addr = alloca ptr, align 4
  %__x.addr = alloca ptr, align 4
  %__p = alloca %"struct.std::pair.165", align 4
  store ptr %agg.result, ptr %result.ptr, align 4
  store ptr %this, ptr %this.addr, align 4
  store ptr %__x, ptr %__x.addr, align 4
  %this1 = load ptr, ptr %this.addr, align 4
  %_M_t = getelementptr inbounds %"class.std::set", ptr %this1, i32 0, i32 0
  %0 = load ptr, ptr %__x.addr, align 4
  call void @_ZNSt8_Rb_treeINSt7__cxx1112basic_stringIcSt11char_traitsIcESaIcEEES5_St9_IdentityIS5_ESt4lessIS5_ESaIS5_EE16_M_insert_uniqueIRKS5_EESt4pairISt17_Rb_tree_iteratorIS5_EbEOT_(ptr sret(%"struct.std::pair.165") align 4 %__p, ptr noundef nonnull align 4 dereferenceable(24) %_M_t, ptr noundef nonnull align 4 dereferenceable(24) %0)
  %first = getelementptr inbounds %"struct.std::pair.165", ptr %__p, i32 0, i32 0
  %second = getelementptr inbounds %"struct.std::pair.165", ptr %__p, i32 0, i32 1
  call void @_ZNSt4pairISt23_Rb_tree_const_iteratorINSt7__cxx1112basic_stringIcSt11char_traitsIcESaIcEEEEbEC2IRSt17_Rb_tree_iteratorIS6_ERbLb1EEEOT_OT0_(ptr noundef nonnull align 4 dereferenceable(5) %agg.result, ptr noundef nonnull align 4 dereferenceable(4) %first, ptr noundef nonnull align 1 dereferenceable(1) %second)
  ret void
}

; Function Attrs: mustprogress noinline optnone uwtable
define dso_local void @reportDynArrSize(ptr noundef %name, ptr noundef %arr, i32 noundef %idx_i, i32 noundef %size) #5 personality ptr @__gxx_personality_v0 {
entry:
  %name.addr = alloca ptr, align 4
  %arr.addr = alloca ptr, align 4
  %idx_i.addr = alloca i32, align 4
  %size.addr = alloca i32, align 4
  %str = alloca %"class.std::__cxx11::basic_string", align 4
  %ref.tmp = alloca %"class.std::allocator.19", align 1
  %exn.slot = alloca ptr, align 4
  %ehselector.slot = alloca i32, align 4
  %idx = alloca i64, align 8
  %ref.tmp3 = alloca %"struct.std::_Rb_tree_iterator", align 4
  %ref.tmp5 = alloca %"struct.std::_Rb_tree_iterator", align 4
  %i = alloca i32, align 4
  %i21 = alloca i32, align 4
  store ptr %name, ptr %name.addr, align 4
  store ptr %arr, ptr %arr.addr, align 4
  store i32 %idx_i, ptr %idx_i.addr, align 4
  store i32 %size, ptr %size.addr, align 4
  %0 = load ptr, ptr %name.addr, align 4
  call void @_ZNSaIcEC1Ev(ptr noundef nonnull align 1 dereferenceable(1) %ref.tmp) #3
  invoke void @_ZNSt7__cxx1112basic_stringIcSt11char_traitsIcESaIcEEC1EPKcRKS3_(ptr noundef nonnull align 4 dereferenceable(24) %str, ptr noundef %0, ptr noundef nonnull align 1 dereferenceable(1) %ref.tmp)
          to label %invoke.cont unwind label %lpad

invoke.cont:                                      ; preds = %entry
  call void @_ZNSaIcED1Ev(ptr noundef nonnull align 1 dereferenceable(1) %ref.tmp) #3
  %1 = load i32, ptr %size.addr, align 4
  %2 = load i32, ptr %idx_i.addr, align 4
  %add = add i32 %2, 1
  %mul = mul i32 %1, %add
  %conv = zext i32 %mul to i64
  store i64 %conv, ptr %idx, align 8
  %3 = load ptr, ptr %arr.addr, align 4
  %call = invoke noundef nonnull align 4 dereferenceable(4) ptr @_ZNSt3mapINSt7__cxx1112basic_stringIcSt11char_traitsIcESaIcEEEPhSt4lessIS5_ESaISt4pairIKS5_S6_EEEixERSA_(ptr noundef nonnull align 4 dereferenceable(24) @_ZL14dynArrPointersB5cxx11, ptr noundef nonnull align 4 dereferenceable(24) %str)
          to label %invoke.cont2 unwind label %lpad1

invoke.cont2:                                     ; preds = %invoke.cont
  store ptr %3, ptr %call, align 4
  invoke void @_ZNSt3mapINSt7__cxx1112basic_stringIcSt11char_traitsIcESaIcEEEiSt4lessIS5_ESaISt4pairIKS5_iEEE4findERS9_(ptr sret(%"struct.std::_Rb_tree_iterator") align 4 %ref.tmp3, ptr noundef nonnull align 4 dereferenceable(24) @_ZL11dynArrSizesB5cxx11, ptr noundef nonnull align 4 dereferenceable(24) %str)
          to label %invoke.cont4 unwind label %lpad1

invoke.cont4:                                     ; preds = %invoke.cont2
  call void @_ZNSt3mapINSt7__cxx1112basic_stringIcSt11char_traitsIcESaIcEEEiSt4lessIS5_ESaISt4pairIKS5_iEEE3endEv(ptr sret(%"struct.std::_Rb_tree_iterator") align 4 %ref.tmp5, ptr noundef nonnull align 4 dereferenceable(24) @_ZL11dynArrSizesB5cxx11) #3
  %call6 = call noundef zeroext i1 @_ZStneRKSt17_Rb_tree_iteratorISt4pairIKNSt7__cxx1112basic_stringIcSt11char_traitsIcESaIcEEEiEESB_(ptr noundef nonnull align 4 dereferenceable(4) %ref.tmp3, ptr noundef nonnull align 4 dereferenceable(4) %ref.tmp5) #3
  br i1 %call6, label %if.then, label %if.else

if.then:                                          ; preds = %invoke.cont4
  %4 = load i64, ptr %idx, align 8
  %call8 = invoke noundef nonnull align 4 dereferenceable(4) ptr @_ZNSt3mapINSt7__cxx1112basic_stringIcSt11char_traitsIcESaIcEEEiSt4lessIS5_ESaISt4pairIKS5_iEEEixERS9_(ptr noundef nonnull align 4 dereferenceable(24) @_ZL11dynArrSizesB5cxx11, ptr noundef nonnull align 4 dereferenceable(24) %str)
          to label %invoke.cont7 unwind label %lpad1

invoke.cont7:                                     ; preds = %if.then
  %5 = load i32, ptr %call8, align 4
  %conv9 = sext i32 %5 to i64
  %cmp = icmp ugt i64 %4, %conv9
  br i1 %cmp, label %if.then10, label %if.end

if.then10:                                        ; preds = %invoke.cont7
  %call12 = invoke noundef nonnull align 4 dereferenceable(4) ptr @_ZNSt3mapINSt7__cxx1112basic_stringIcSt11char_traitsIcESaIcEEEiSt4lessIS5_ESaISt4pairIKS5_iEEEixERS9_(ptr noundef nonnull align 4 dereferenceable(24) @_ZL11dynArrSizesB5cxx11, ptr noundef nonnull align 4 dereferenceable(24) %str)
          to label %invoke.cont11 unwind label %lpad1

invoke.cont11:                                    ; preds = %if.then10
  %6 = load i32, ptr %call12, align 4
  store i32 %6, ptr %i, align 4
  br label %for.cond

for.cond:                                         ; preds = %for.inc, %invoke.cont11
  %7 = load i32, ptr %i, align 4
  %conv13 = sext i32 %7 to i64
  %8 = load i64, ptr %idx, align 8
  %cmp14 = icmp ult i64 %conv13, %8
  br i1 %cmp14, label %for.body, label %for.end

for.body:                                         ; preds = %for.cond
  %call16 = invoke noundef nonnull align 4 dereferenceable(12) ptr @_ZNSt3mapINSt7__cxx1112basic_stringIcSt11char_traitsIcESaIcEEESt6vectorIhSaIhEESt4lessIS5_ESaISt4pairIKS5_S8_EEEixERSC_(ptr noundef nonnull align 4 dereferenceable(24) @_ZL14dynByteArrCopyB5cxx11, ptr noundef nonnull align 4 dereferenceable(24) %str)
          to label %invoke.cont15 unwind label %lpad1

invoke.cont15:                                    ; preds = %for.body
  %9 = load ptr, ptr %arr.addr, align 4
  %10 = load i32, ptr %i, align 4
  %arrayidx = getelementptr inbounds i8, ptr %9, i32 %10
  invoke void @_ZNSt6vectorIhSaIhEE9push_backERKh(ptr noundef nonnull align 4 dereferenceable(12) %call16, ptr noundef nonnull align 1 dereferenceable(1) %arrayidx)
          to label %invoke.cont17 unwind label %lpad1

invoke.cont17:                                    ; preds = %invoke.cont15
  br label %for.inc

for.inc:                                          ; preds = %invoke.cont17
  %11 = load i32, ptr %i, align 4
  %inc = add nsw i32 %11, 1
  store i32 %inc, ptr %i, align 4
  br label %for.cond, !llvm.loop !9

lpad:                                             ; preds = %entry
  %12 = landingpad { ptr, i32 }
          cleanup
  %13 = extractvalue { ptr, i32 } %12, 0
  store ptr %13, ptr %exn.slot, align 4
  %14 = extractvalue { ptr, i32 } %12, 1
  store i32 %14, ptr %ehselector.slot, align 4
  call void @_ZNSaIcED1Ev(ptr noundef nonnull align 1 dereferenceable(1) %ref.tmp) #3
  br label %eh.resume

lpad1:                                            ; preds = %for.end32, %invoke.cont26, %for.body25, %for.end, %invoke.cont15, %for.body, %if.then10, %if.then, %invoke.cont2, %invoke.cont
  %15 = landingpad { ptr, i32 }
          cleanup
  %16 = extractvalue { ptr, i32 } %15, 0
  store ptr %16, ptr %exn.slot, align 4
  %17 = extractvalue { ptr, i32 } %15, 1
  store i32 %17, ptr %ehselector.slot, align 4
  call void @_ZNSt7__cxx1112basic_stringIcSt11char_traitsIcESaIcEED1Ev(ptr noundef nonnull align 4 dereferenceable(24) %str) #3
  br label %eh.resume

for.end:                                          ; preds = %for.cond
  %18 = load i64, ptr %idx, align 8
  %conv18 = trunc i64 %18 to i32
  %call20 = invoke noundef nonnull align 4 dereferenceable(4) ptr @_ZNSt3mapINSt7__cxx1112basic_stringIcSt11char_traitsIcESaIcEEEiSt4lessIS5_ESaISt4pairIKS5_iEEEixERS9_(ptr noundef nonnull align 4 dereferenceable(24) @_ZL11dynArrSizesB5cxx11, ptr noundef nonnull align 4 dereferenceable(24) %str)
          to label %invoke.cont19 unwind label %lpad1

invoke.cont19:                                    ; preds = %for.end
  store i32 %conv18, ptr %call20, align 4
  br label %if.end

if.end:                                           ; preds = %invoke.cont19, %invoke.cont7
  br label %if.end36

if.else:                                          ; preds = %invoke.cont4
  store i32 0, ptr %i21, align 4
  br label %for.cond22

for.cond22:                                       ; preds = %for.inc30, %if.else
  %19 = load i32, ptr %i21, align 4
  %conv23 = sext i32 %19 to i64
  %20 = load i64, ptr %idx, align 8
  %cmp24 = icmp ult i64 %conv23, %20
  br i1 %cmp24, label %for.body25, label %for.end32

for.body25:                                       ; preds = %for.cond22
  %call27 = invoke noundef nonnull align 4 dereferenceable(12) ptr @_ZNSt3mapINSt7__cxx1112basic_stringIcSt11char_traitsIcESaIcEEESt6vectorIhSaIhEESt4lessIS5_ESaISt4pairIKS5_S8_EEEixERSC_(ptr noundef nonnull align 4 dereferenceable(24) @_ZL14dynByteArrCopyB5cxx11, ptr noundef nonnull align 4 dereferenceable(24) %str)
          to label %invoke.cont26 unwind label %lpad1

invoke.cont26:                                    ; preds = %for.body25
  %21 = load ptr, ptr %arr.addr, align 4
  %22 = load i32, ptr %i21, align 4
  %arrayidx28 = getelementptr inbounds i8, ptr %21, i32 %22
  invoke void @_ZNSt6vectorIhSaIhEE9push_backERKh(ptr noundef nonnull align 4 dereferenceable(12) %call27, ptr noundef nonnull align 1 dereferenceable(1) %arrayidx28)
          to label %invoke.cont29 unwind label %lpad1

invoke.cont29:                                    ; preds = %invoke.cont26
  br label %for.inc30

for.inc30:                                        ; preds = %invoke.cont29
  %23 = load i32, ptr %i21, align 4
  %inc31 = add nsw i32 %23, 1
  store i32 %inc31, ptr %i21, align 4
  br label %for.cond22, !llvm.loop !10

for.end32:                                        ; preds = %for.cond22
  %24 = load i64, ptr %idx, align 8
  %conv33 = trunc i64 %24 to i32
  %call35 = invoke noundef nonnull align 4 dereferenceable(4) ptr @_ZNSt3mapINSt7__cxx1112basic_stringIcSt11char_traitsIcESaIcEEEiSt4lessIS5_ESaISt4pairIKS5_iEEEixERS9_(ptr noundef nonnull align 4 dereferenceable(24) @_ZL11dynArrSizesB5cxx11, ptr noundef nonnull align 4 dereferenceable(24) %str)
          to label %invoke.cont34 unwind label %lpad1

invoke.cont34:                                    ; preds = %for.end32
  store i32 %conv33, ptr %call35, align 4
  br label %if.end36

if.end36:                                         ; preds = %invoke.cont34, %if.end
  call void @_ZNSt7__cxx1112basic_stringIcSt11char_traitsIcESaIcEED1Ev(ptr noundef nonnull align 4 dereferenceable(24) %str) #3
  ret void

eh.resume:                                        ; preds = %lpad1, %lpad
  %exn = load ptr, ptr %exn.slot, align 4
  %sel = load i32, ptr %ehselector.slot, align 4
  %lpad.val = insertvalue { ptr, i32 } undef, ptr %exn, 0
  %lpad.val37 = insertvalue { ptr, i32 } %lpad.val, i32 %sel, 1
  resume { ptr, i32 } %lpad.val37
}

; Function Attrs: mustprogress noinline optnone uwtable
define linkonce_odr dso_local noundef nonnull align 4 dereferenceable(4) ptr @_ZNSt3mapINSt7__cxx1112basic_stringIcSt11char_traitsIcESaIcEEEPhSt4lessIS5_ESaISt4pairIKS5_S6_EEEixERSA_(ptr noundef nonnull align 4 dereferenceable(24) %this, ptr noundef nonnull align 4 dereferenceable(24) %__k) #5 comdat align 2 {
entry:
  %this.addr = alloca ptr, align 4
  %__k.addr = alloca ptr, align 4
  %__i = alloca %"struct.std::_Rb_tree_iterator.169", align 4
  %ref.tmp = alloca %"struct.std::_Rb_tree_iterator.169", align 4
  %ref.tmp2 = alloca %"struct.std::less", align 1
  %ref.tmp5 = alloca %"struct.std::_Rb_tree_iterator.169", align 4
  %agg.tmp = alloca %"struct.std::_Rb_tree_const_iterator.173", align 4
  %ref.tmp6 = alloca %"class.std::tuple.170", align 4
  %ref.tmp7 = alloca %"class.std::tuple.158", align 1
  store ptr %this, ptr %this.addr, align 4
  store ptr %__k, ptr %__k.addr, align 4
  %this1 = load ptr, ptr %this.addr, align 4
  %0 = load ptr, ptr %__k.addr, align 4
  call void @_ZNSt3mapINSt7__cxx1112basic_stringIcSt11char_traitsIcESaIcEEEPhSt4lessIS5_ESaISt4pairIKS5_S6_EEE11lower_boundERSA_(ptr sret(%"struct.std::_Rb_tree_iterator.169") align 4 %__i, ptr noundef nonnull align 4 dereferenceable(24) %this1, ptr noundef nonnull align 4 dereferenceable(24) %0)
  call void @_ZNSt3mapINSt7__cxx1112basic_stringIcSt11char_traitsIcESaIcEEEPhSt4lessIS5_ESaISt4pairIKS5_S6_EEE3endEv(ptr sret(%"struct.std::_Rb_tree_iterator.169") align 4 %ref.tmp, ptr noundef nonnull align 4 dereferenceable(24) %this1) #3
  %call = call noundef zeroext i1 @_ZSteqRKSt17_Rb_tree_iteratorISt4pairIKNSt7__cxx1112basic_stringIcSt11char_traitsIcESaIcEEEPhEESC_(ptr noundef nonnull align 4 dereferenceable(4) %__i, ptr noundef nonnull align 4 dereferenceable(4) %ref.tmp) #3
  br i1 %call, label %lor.end, label %lor.rhs

lor.rhs:                                          ; preds = %entry
  call void @_ZNKSt3mapINSt7__cxx1112basic_stringIcSt11char_traitsIcESaIcEEEPhSt4lessIS5_ESaISt4pairIKS5_S6_EEE8key_compEv(ptr sret(%"struct.std::less") align 1 %ref.tmp2, ptr noundef nonnull align 4 dereferenceable(24) %this1)
  %1 = load ptr, ptr %__k.addr, align 4
  %call3 = call noundef nonnull align 4 dereferenceable(28) ptr @_ZNKSt17_Rb_tree_iteratorISt4pairIKNSt7__cxx1112basic_stringIcSt11char_traitsIcESaIcEEEPhEEdeEv(ptr noundef nonnull align 4 dereferenceable(4) %__i) #3
  %first = getelementptr inbounds %"struct.std::pair.116", ptr %call3, i32 0, i32 0
  %call4 = call noundef zeroext i1 @_ZNKSt4lessINSt7__cxx1112basic_stringIcSt11char_traitsIcESaIcEEEEclERKS5_S8_(ptr noundef nonnull align 1 dereferenceable(1) %ref.tmp2, ptr noundef nonnull align 4 dereferenceable(24) %1, ptr noundef nonnull align 4 dereferenceable(24) %first)
  br label %lor.end

lor.end:                                          ; preds = %lor.rhs, %entry
  %2 = phi i1 [ true, %entry ], [ %call4, %lor.rhs ]
  br i1 %2, label %if.then, label %if.end

if.then:                                          ; preds = %lor.end
  %_M_t = getelementptr inbounds %"class.std::map.0", ptr %this1, i32 0, i32 0
  call void @_ZNSt23_Rb_tree_const_iteratorISt4pairIKNSt7__cxx1112basic_stringIcSt11char_traitsIcESaIcEEEPhEEC2ERKSt17_Rb_tree_iteratorIS9_E(ptr noundef nonnull align 4 dereferenceable(4) %agg.tmp, ptr noundef nonnull align 4 dereferenceable(4) %__i) #3
  %3 = load ptr, ptr %__k.addr, align 4
  call void @_ZNSt5tupleIJRKNSt7__cxx1112basic_stringIcSt11char_traitsIcESaIcEEEEEC2IvLb1EEES7_(ptr noundef nonnull align 4 dereferenceable(4) %ref.tmp6, ptr noundef nonnull align 4 dereferenceable(24) %3)
  call void @_ZNSt8_Rb_treeINSt7__cxx1112basic_stringIcSt11char_traitsIcESaIcEEESt4pairIKS5_PhESt10_Select1stIS9_ESt4lessIS5_ESaIS9_EE22_M_emplace_hint_uniqueIJRKSt21piecewise_construct_tSt5tupleIJRS7_EESK_IJEEEEESt17_Rb_tree_iteratorIS9_ESt23_Rb_tree_const_iteratorIS9_EDpOT_(ptr sret(%"struct.std::_Rb_tree_iterator.169") align 4 %ref.tmp5, ptr noundef nonnull align 4 dereferenceable(24) %_M_t, ptr noundef byval(%"struct.std::_Rb_tree_const_iterator.173") align 4 %agg.tmp, ptr noundef nonnull align 1 dereferenceable(1) @_ZStL19piecewise_construct, ptr noundef nonnull align 4 dereferenceable(4) %ref.tmp6, ptr noundef nonnull align 1 dereferenceable(1) %ref.tmp7)
  call void @llvm.memcpy.p0.p0.i32(ptr align 4 %__i, ptr align 4 %ref.tmp5, i32 4, i1 false)
  br label %if.end

if.end:                                           ; preds = %if.then, %lor.end
  %call8 = call noundef nonnull align 4 dereferenceable(28) ptr @_ZNKSt17_Rb_tree_iteratorISt4pairIKNSt7__cxx1112basic_stringIcSt11char_traitsIcESaIcEEEPhEEdeEv(ptr noundef nonnull align 4 dereferenceable(4) %__i) #3
  %second = getelementptr inbounds %"struct.std::pair.116", ptr %call8, i32 0, i32 1
  ret ptr %second
}

; Function Attrs: mustprogress noinline nounwind optnone uwtable
define linkonce_odr dso_local noundef zeroext i1 @_ZStneRKSt17_Rb_tree_iteratorISt4pairIKNSt7__cxx1112basic_stringIcSt11char_traitsIcESaIcEEEiEESB_(ptr noundef nonnull align 4 dereferenceable(4) %__x, ptr noundef nonnull align 4 dereferenceable(4) %__y) #6 comdat {
entry:
  %__x.addr = alloca ptr, align 4
  %__y.addr = alloca ptr, align 4
  store ptr %__x, ptr %__x.addr, align 4
  store ptr %__y, ptr %__y.addr, align 4
  %0 = load ptr, ptr %__x.addr, align 4
  %_M_node = getelementptr inbounds %"struct.std::_Rb_tree_iterator", ptr %0, i32 0, i32 0
  %1 = load ptr, ptr %_M_node, align 4
  %2 = load ptr, ptr %__y.addr, align 4
  %_M_node1 = getelementptr inbounds %"struct.std::_Rb_tree_iterator", ptr %2, i32 0, i32 0
  %3 = load ptr, ptr %_M_node1, align 4
  %cmp = icmp ne ptr %1, %3
  ret i1 %cmp
}

; Function Attrs: mustprogress noinline optnone uwtable
define linkonce_odr dso_local void @_ZNSt3mapINSt7__cxx1112basic_stringIcSt11char_traitsIcESaIcEEEiSt4lessIS5_ESaISt4pairIKS5_iEEE4findERS9_(ptr noalias sret(%"struct.std::_Rb_tree_iterator") align 4 %agg.result, ptr noundef nonnull align 4 dereferenceable(24) %this, ptr noundef nonnull align 4 dereferenceable(24) %__x) #5 comdat align 2 {
entry:
  %result.ptr = alloca ptr, align 4
  %this.addr = alloca ptr, align 4
  %__x.addr = alloca ptr, align 4
  store ptr %agg.result, ptr %result.ptr, align 4
  store ptr %this, ptr %this.addr, align 4
  store ptr %__x, ptr %__x.addr, align 4
  %this1 = load ptr, ptr %this.addr, align 4
  %_M_t = getelementptr inbounds %"class.std::map", ptr %this1, i32 0, i32 0
  %0 = load ptr, ptr %__x.addr, align 4
  call void @_ZNSt8_Rb_treeINSt7__cxx1112basic_stringIcSt11char_traitsIcESaIcEEESt4pairIKS5_iESt10_Select1stIS8_ESt4lessIS5_ESaIS8_EE4findERS7_(ptr sret(%"struct.std::_Rb_tree_iterator") align 4 %agg.result, ptr noundef nonnull align 4 dereferenceable(24) %_M_t, ptr noundef nonnull align 4 dereferenceable(24) %0)
  ret void
}

; Function Attrs: mustprogress noinline nounwind optnone uwtable
define linkonce_odr dso_local void @_ZNSt3mapINSt7__cxx1112basic_stringIcSt11char_traitsIcESaIcEEEiSt4lessIS5_ESaISt4pairIKS5_iEEE3endEv(ptr noalias sret(%"struct.std::_Rb_tree_iterator") align 4 %agg.result, ptr noundef nonnull align 4 dereferenceable(24) %this) #6 comdat align 2 {
entry:
  %result.ptr = alloca ptr, align 4
  %this.addr = alloca ptr, align 4
  store ptr %agg.result, ptr %result.ptr, align 4
  store ptr %this, ptr %this.addr, align 4
  %this1 = load ptr, ptr %this.addr, align 4
  %_M_t = getelementptr inbounds %"class.std::map", ptr %this1, i32 0, i32 0
  call void @_ZNSt8_Rb_treeINSt7__cxx1112basic_stringIcSt11char_traitsIcESaIcEEESt4pairIKS5_iESt10_Select1stIS8_ESt4lessIS5_ESaIS8_EE3endEv(ptr sret(%"struct.std::_Rb_tree_iterator") align 4 %agg.result, ptr noundef nonnull align 4 dereferenceable(24) %_M_t) #3
  ret void
}

; Function Attrs: mustprogress noinline optnone uwtable
define linkonce_odr dso_local noundef nonnull align 4 dereferenceable(4) ptr @_ZNSt3mapINSt7__cxx1112basic_stringIcSt11char_traitsIcESaIcEEEiSt4lessIS5_ESaISt4pairIKS5_iEEEixERS9_(ptr noundef nonnull align 4 dereferenceable(24) %this, ptr noundef nonnull align 4 dereferenceable(24) %__k) #5 comdat align 2 {
entry:
  %this.addr = alloca ptr, align 4
  %__k.addr = alloca ptr, align 4
  %__i = alloca %"struct.std::_Rb_tree_iterator", align 4
  %ref.tmp = alloca %"struct.std::_Rb_tree_iterator", align 4
  %ref.tmp2 = alloca %"struct.std::less", align 1
  %ref.tmp5 = alloca %"struct.std::_Rb_tree_iterator", align 4
  %agg.tmp = alloca %"struct.std::_Rb_tree_const_iterator.178", align 4
  %ref.tmp6 = alloca %"class.std::tuple.170", align 4
  %ref.tmp7 = alloca %"class.std::tuple.158", align 1
  store ptr %this, ptr %this.addr, align 4
  store ptr %__k, ptr %__k.addr, align 4
  %this1 = load ptr, ptr %this.addr, align 4
  %0 = load ptr, ptr %__k.addr, align 4
  call void @_ZNSt3mapINSt7__cxx1112basic_stringIcSt11char_traitsIcESaIcEEEiSt4lessIS5_ESaISt4pairIKS5_iEEE11lower_boundERS9_(ptr sret(%"struct.std::_Rb_tree_iterator") align 4 %__i, ptr noundef nonnull align 4 dereferenceable(24) %this1, ptr noundef nonnull align 4 dereferenceable(24) %0)
  call void @_ZNSt3mapINSt7__cxx1112basic_stringIcSt11char_traitsIcESaIcEEEiSt4lessIS5_ESaISt4pairIKS5_iEEE3endEv(ptr sret(%"struct.std::_Rb_tree_iterator") align 4 %ref.tmp, ptr noundef nonnull align 4 dereferenceable(24) %this1) #3
  %call = call noundef zeroext i1 @_ZSteqRKSt17_Rb_tree_iteratorISt4pairIKNSt7__cxx1112basic_stringIcSt11char_traitsIcESaIcEEEiEESB_(ptr noundef nonnull align 4 dereferenceable(4) %__i, ptr noundef nonnull align 4 dereferenceable(4) %ref.tmp) #3
  br i1 %call, label %lor.end, label %lor.rhs

lor.rhs:                                          ; preds = %entry
  call void @_ZNKSt3mapINSt7__cxx1112basic_stringIcSt11char_traitsIcESaIcEEEiSt4lessIS5_ESaISt4pairIKS5_iEEE8key_compEv(ptr sret(%"struct.std::less") align 1 %ref.tmp2, ptr noundef nonnull align 4 dereferenceable(24) %this1)
  %1 = load ptr, ptr %__k.addr, align 4
  %call3 = call noundef nonnull align 4 dereferenceable(28) ptr @_ZNKSt17_Rb_tree_iteratorISt4pairIKNSt7__cxx1112basic_stringIcSt11char_traitsIcESaIcEEEiEEdeEv(ptr noundef nonnull align 4 dereferenceable(4) %__i) #3
  %first = getelementptr inbounds %"struct.std::pair.76", ptr %call3, i32 0, i32 0
  %call4 = call noundef zeroext i1 @_ZNKSt4lessINSt7__cxx1112basic_stringIcSt11char_traitsIcESaIcEEEEclERKS5_S8_(ptr noundef nonnull align 1 dereferenceable(1) %ref.tmp2, ptr noundef nonnull align 4 dereferenceable(24) %1, ptr noundef nonnull align 4 dereferenceable(24) %first)
  br label %lor.end

lor.end:                                          ; preds = %lor.rhs, %entry
  %2 = phi i1 [ true, %entry ], [ %call4, %lor.rhs ]
  br i1 %2, label %if.then, label %if.end

if.then:                                          ; preds = %lor.end
  %_M_t = getelementptr inbounds %"class.std::map", ptr %this1, i32 0, i32 0
  call void @_ZNSt23_Rb_tree_const_iteratorISt4pairIKNSt7__cxx1112basic_stringIcSt11char_traitsIcESaIcEEEiEEC2ERKSt17_Rb_tree_iteratorIS8_E(ptr noundef nonnull align 4 dereferenceable(4) %agg.tmp, ptr noundef nonnull align 4 dereferenceable(4) %__i) #3
  %3 = load ptr, ptr %__k.addr, align 4
  call void @_ZNSt5tupleIJRKNSt7__cxx1112basic_stringIcSt11char_traitsIcESaIcEEEEEC2IvLb1EEES7_(ptr noundef nonnull align 4 dereferenceable(4) %ref.tmp6, ptr noundef nonnull align 4 dereferenceable(24) %3)
  call void @_ZNSt8_Rb_treeINSt7__cxx1112basic_stringIcSt11char_traitsIcESaIcEEESt4pairIKS5_iESt10_Select1stIS8_ESt4lessIS5_ESaIS8_EE22_M_emplace_hint_uniqueIJRKSt21piecewise_construct_tSt5tupleIJRS7_EESJ_IJEEEEESt17_Rb_tree_iteratorIS8_ESt23_Rb_tree_const_iteratorIS8_EDpOT_(ptr sret(%"struct.std::_Rb_tree_iterator") align 4 %ref.tmp5, ptr noundef nonnull align 4 dereferenceable(24) %_M_t, ptr noundef byval(%"struct.std::_Rb_tree_const_iterator.178") align 4 %agg.tmp, ptr noundef nonnull align 1 dereferenceable(1) @_ZStL19piecewise_construct, ptr noundef nonnull align 4 dereferenceable(4) %ref.tmp6, ptr noundef nonnull align 1 dereferenceable(1) %ref.tmp7)
  call void @llvm.memcpy.p0.p0.i32(ptr align 4 %__i, ptr align 4 %ref.tmp5, i32 4, i1 false)
  br label %if.end

if.end:                                           ; preds = %if.then, %lor.end
  %call8 = call noundef nonnull align 4 dereferenceable(28) ptr @_ZNKSt17_Rb_tree_iteratorISt4pairIKNSt7__cxx1112basic_stringIcSt11char_traitsIcESaIcEEEiEEdeEv(ptr noundef nonnull align 4 dereferenceable(4) %__i) #3
  %second = getelementptr inbounds %"struct.std::pair.76", ptr %call8, i32 0, i32 1
  ret ptr %second
}

; Function Attrs: mustprogress noinline optnone uwtable
define linkonce_odr dso_local noundef nonnull align 4 dereferenceable(12) ptr @_ZNSt3mapINSt7__cxx1112basic_stringIcSt11char_traitsIcESaIcEEESt6vectorIhSaIhEESt4lessIS5_ESaISt4pairIKS5_S8_EEEixERSC_(ptr noundef nonnull align 4 dereferenceable(24) %this, ptr noundef nonnull align 4 dereferenceable(24) %__k) #5 comdat align 2 {
entry:
  %this.addr = alloca ptr, align 4
  %__k.addr = alloca ptr, align 4
  %__i = alloca %"struct.std::_Rb_tree_iterator.179", align 4
  %ref.tmp = alloca %"struct.std::_Rb_tree_iterator.179", align 4
  %ref.tmp2 = alloca %"struct.std::less", align 1
  %ref.tmp5 = alloca %"struct.std::_Rb_tree_iterator.179", align 4
  %agg.tmp = alloca %"struct.std::_Rb_tree_const_iterator.180", align 4
  %ref.tmp6 = alloca %"class.std::tuple.170", align 4
  %ref.tmp7 = alloca %"class.std::tuple.158", align 1
  store ptr %this, ptr %this.addr, align 4
  store ptr %__k, ptr %__k.addr, align 4
  %this1 = load ptr, ptr %this.addr, align 4
  %0 = load ptr, ptr %__k.addr, align 4
  call void @_ZNSt3mapINSt7__cxx1112basic_stringIcSt11char_traitsIcESaIcEEESt6vectorIhSaIhEESt4lessIS5_ESaISt4pairIKS5_S8_EEE11lower_boundERSC_(ptr sret(%"struct.std::_Rb_tree_iterator.179") align 4 %__i, ptr noundef nonnull align 4 dereferenceable(24) %this1, ptr noundef nonnull align 4 dereferenceable(24) %0)
  call void @_ZNSt3mapINSt7__cxx1112basic_stringIcSt11char_traitsIcESaIcEEESt6vectorIhSaIhEESt4lessIS5_ESaISt4pairIKS5_S8_EEE3endEv(ptr sret(%"struct.std::_Rb_tree_iterator.179") align 4 %ref.tmp, ptr noundef nonnull align 4 dereferenceable(24) %this1) #3
  %call = call noundef zeroext i1 @_ZSteqRKSt17_Rb_tree_iteratorISt4pairIKNSt7__cxx1112basic_stringIcSt11char_traitsIcESaIcEEESt6vectorIhSaIhEEEESE_(ptr noundef nonnull align 4 dereferenceable(4) %__i, ptr noundef nonnull align 4 dereferenceable(4) %ref.tmp) #3
  br i1 %call, label %lor.end, label %lor.rhs

lor.rhs:                                          ; preds = %entry
  call void @_ZNKSt3mapINSt7__cxx1112basic_stringIcSt11char_traitsIcESaIcEEESt6vectorIhSaIhEESt4lessIS5_ESaISt4pairIKS5_S8_EEE8key_compEv(ptr sret(%"struct.std::less") align 1 %ref.tmp2, ptr noundef nonnull align 4 dereferenceable(24) %this1)
  %1 = load ptr, ptr %__k.addr, align 4
  %call3 = call noundef nonnull align 4 dereferenceable(36) ptr @_ZNKSt17_Rb_tree_iteratorISt4pairIKNSt7__cxx1112basic_stringIcSt11char_traitsIcESaIcEEESt6vectorIhSaIhEEEEdeEv(ptr noundef nonnull align 4 dereferenceable(4) %__i) #3
  %first = getelementptr inbounds %"struct.std::pair.121", ptr %call3, i32 0, i32 0
  %call4 = call noundef zeroext i1 @_ZNKSt4lessINSt7__cxx1112basic_stringIcSt11char_traitsIcESaIcEEEEclERKS5_S8_(ptr noundef nonnull align 1 dereferenceable(1) %ref.tmp2, ptr noundef nonnull align 4 dereferenceable(24) %1, ptr noundef nonnull align 4 dereferenceable(24) %first)
  br label %lor.end

lor.end:                                          ; preds = %lor.rhs, %entry
  %2 = phi i1 [ true, %entry ], [ %call4, %lor.rhs ]
  br i1 %2, label %if.then, label %if.end

if.then:                                          ; preds = %lor.end
  %_M_t = getelementptr inbounds %"class.std::map.5", ptr %this1, i32 0, i32 0
  call void @_ZNSt23_Rb_tree_const_iteratorISt4pairIKNSt7__cxx1112basic_stringIcSt11char_traitsIcESaIcEEESt6vectorIhSaIhEEEEC2ERKSt17_Rb_tree_iteratorISB_E(ptr noundef nonnull align 4 dereferenceable(4) %agg.tmp, ptr noundef nonnull align 4 dereferenceable(4) %__i) #3
  %3 = load ptr, ptr %__k.addr, align 4
  call void @_ZNSt5tupleIJRKNSt7__cxx1112basic_stringIcSt11char_traitsIcESaIcEEEEEC2IvLb1EEES7_(ptr noundef nonnull align 4 dereferenceable(4) %ref.tmp6, ptr noundef nonnull align 4 dereferenceable(24) %3)
  call void @_ZNSt8_Rb_treeINSt7__cxx1112basic_stringIcSt11char_traitsIcESaIcEEESt4pairIKS5_St6vectorIhSaIhEEESt10_Select1stISB_ESt4lessIS5_ESaISB_EE22_M_emplace_hint_uniqueIJRKSt21piecewise_construct_tSt5tupleIJRS7_EESM_IJEEEEESt17_Rb_tree_iteratorISB_ESt23_Rb_tree_const_iteratorISB_EDpOT_(ptr sret(%"struct.std::_Rb_tree_iterator.179") align 4 %ref.tmp5, ptr noundef nonnull align 4 dereferenceable(24) %_M_t, ptr noundef byval(%"struct.std::_Rb_tree_const_iterator.180") align 4 %agg.tmp, ptr noundef nonnull align 1 dereferenceable(1) @_ZStL19piecewise_construct, ptr noundef nonnull align 4 dereferenceable(4) %ref.tmp6, ptr noundef nonnull align 1 dereferenceable(1) %ref.tmp7)
  call void @llvm.memcpy.p0.p0.i32(ptr align 4 %__i, ptr align 4 %ref.tmp5, i32 4, i1 false)
  br label %if.end

if.end:                                           ; preds = %if.then, %lor.end
  %call8 = call noundef nonnull align 4 dereferenceable(36) ptr @_ZNKSt17_Rb_tree_iteratorISt4pairIKNSt7__cxx1112basic_stringIcSt11char_traitsIcESaIcEEESt6vectorIhSaIhEEEEdeEv(ptr noundef nonnull align 4 dereferenceable(4) %__i) #3
  %second = getelementptr inbounds %"struct.std::pair.121", ptr %call8, i32 0, i32 1
  ret ptr %second
}

; Function Attrs: mustprogress noinline optnone uwtable
define linkonce_odr dso_local void @_ZNSt6vectorIhSaIhEE9push_backERKh(ptr noundef nonnull align 4 dereferenceable(12) %this, ptr noundef nonnull align 1 dereferenceable(1) %__x) #5 comdat align 2 {
entry:
  %this.addr = alloca ptr, align 4
  %__x.addr = alloca ptr, align 4
  %agg.tmp = alloca %"class.__gnu_cxx::__normal_iterator.183", align 4
  store ptr %this, ptr %this.addr, align 4
  store ptr %__x, ptr %__x.addr, align 4
  %this1 = load ptr, ptr %this.addr, align 4
  %_M_impl = getelementptr inbounds %"struct.std::_Vector_base.72", ptr %this1, i32 0, i32 0
  %_M_finish = getelementptr inbounds %"struct.std::_Vector_base<unsigned char, std::allocator<unsigned char>>::_Vector_impl_data", ptr %_M_impl, i32 0, i32 1
  %0 = load ptr, ptr %_M_finish, align 4
  %_M_impl2 = getelementptr inbounds %"struct.std::_Vector_base.72", ptr %this1, i32 0, i32 0
  %_M_end_of_storage = getelementptr inbounds %"struct.std::_Vector_base<unsigned char, std::allocator<unsigned char>>::_Vector_impl_data", ptr %_M_impl2, i32 0, i32 2
  %1 = load ptr, ptr %_M_end_of_storage, align 4
  %cmp = icmp ne ptr %0, %1
  br i1 %cmp, label %if.then, label %if.else

if.then:                                          ; preds = %entry
  %_M_impl3 = getelementptr inbounds %"struct.std::_Vector_base.72", ptr %this1, i32 0, i32 0
  %_M_impl4 = getelementptr inbounds %"struct.std::_Vector_base.72", ptr %this1, i32 0, i32 0
  %_M_finish5 = getelementptr inbounds %"struct.std::_Vector_base<unsigned char, std::allocator<unsigned char>>::_Vector_impl_data", ptr %_M_impl4, i32 0, i32 1
  %2 = load ptr, ptr %_M_finish5, align 4
  %3 = load ptr, ptr %__x.addr, align 4
  call void @_ZNSt16allocator_traitsISaIhEE9constructIhJRKhEEEvRS0_PT_DpOT0_(ptr noundef nonnull align 1 dereferenceable(1) %_M_impl3, ptr noundef %2, ptr noundef nonnull align 1 dereferenceable(1) %3) #3
  %_M_impl6 = getelementptr inbounds %"struct.std::_Vector_base.72", ptr %this1, i32 0, i32 0
  %_M_finish7 = getelementptr inbounds %"struct.std::_Vector_base<unsigned char, std::allocator<unsigned char>>::_Vector_impl_data", ptr %_M_impl6, i32 0, i32 1
  %4 = load ptr, ptr %_M_finish7, align 4
  %incdec.ptr = getelementptr inbounds i8, ptr %4, i32 1
  store ptr %incdec.ptr, ptr %_M_finish7, align 4
  br label %if.end

if.else:                                          ; preds = %entry
  call void @_ZNSt6vectorIhSaIhEE3endEv(ptr sret(%"class.__gnu_cxx::__normal_iterator.183") align 4 %agg.tmp, ptr noundef nonnull align 4 dereferenceable(12) %this1) #3
  %5 = load ptr, ptr %__x.addr, align 4
  call void @_ZNSt6vectorIhSaIhEE17_M_realloc_insertIJRKhEEEvN9__gnu_cxx17__normal_iteratorIPhS1_EEDpOT_(ptr noundef nonnull align 4 dereferenceable(12) %this1, ptr noundef byval(%"class.__gnu_cxx::__normal_iterator.183") align 4 %agg.tmp, ptr noundef nonnull align 1 dereferenceable(1) %5)
  br label %if.end

if.end:                                           ; preds = %if.else, %if.then
  ret void
}

; Function Attrs: mustprogress noinline optnone uwtable
define dso_local void @printDynArrSize() #5 personality ptr @__gxx_personality_v0 {
entry:
  %name = alloca %"class.std::__cxx11::basic_string", align 4
  %maxIdx = alloca i64, align 8
  %dynArrSizesIt = alloca %"struct.std::_Rb_tree_iterator", align 4
  %ref.tmp = alloca %"struct.std::_Rb_tree_iterator", align 4
  %ref.tmp1 = alloca %"struct.std::_Rb_tree_iterator", align 4
  %exn.slot = alloca ptr, align 4
  %ehselector.slot = alloca i32, align 4
  %i = alloca i32, align 4
  %tmp = alloca %"struct.std::_Rb_tree_iterator", align 4
  call void @_ZNSt7__cxx1112basic_stringIcSt11char_traitsIcESaIcEEC1Ev(ptr noundef nonnull align 4 dereferenceable(24) %name) #3
  call void @_ZNSt17_Rb_tree_iteratorISt4pairIKNSt7__cxx1112basic_stringIcSt11char_traitsIcESaIcEEEiEEC2Ev(ptr noundef nonnull align 4 dereferenceable(4) %dynArrSizesIt) #3
  call void @_ZNSt3mapINSt7__cxx1112basic_stringIcSt11char_traitsIcESaIcEEEiSt4lessIS5_ESaISt4pairIKS5_iEEE5beginEv(ptr sret(%"struct.std::_Rb_tree_iterator") align 4 %ref.tmp, ptr noundef nonnull align 4 dereferenceable(24) @_ZL11dynArrSizesB5cxx11) #3
  call void @llvm.memcpy.p0.p0.i32(ptr align 4 %dynArrSizesIt, ptr align 4 %ref.tmp, i32 4, i1 false)
  br label %for.cond

for.cond:                                         ; preds = %for.inc32, %entry
  call void @_ZNSt3mapINSt7__cxx1112basic_stringIcSt11char_traitsIcESaIcEEEiSt4lessIS5_ESaISt4pairIKS5_iEEE3endEv(ptr sret(%"struct.std::_Rb_tree_iterator") align 4 %ref.tmp1, ptr noundef nonnull align 4 dereferenceable(24) @_ZL11dynArrSizesB5cxx11) #3
  %call = call noundef zeroext i1 @_ZStneRKSt17_Rb_tree_iteratorISt4pairIKNSt7__cxx1112basic_stringIcSt11char_traitsIcESaIcEEEiEESB_(ptr noundef nonnull align 4 dereferenceable(4) %dynArrSizesIt, ptr noundef nonnull align 4 dereferenceable(4) %ref.tmp1) #3
  br i1 %call, label %for.body, label %for.end33

for.body:                                         ; preds = %for.cond
  %call2 = call noundef ptr @_ZNKSt17_Rb_tree_iteratorISt4pairIKNSt7__cxx1112basic_stringIcSt11char_traitsIcESaIcEEEiEEptEv(ptr noundef nonnull align 4 dereferenceable(4) %dynArrSizesIt) #3
  %first = getelementptr inbounds %"struct.std::pair.76", ptr %call2, i32 0, i32 0
  %call3 = invoke noundef nonnull align 4 dereferenceable(24) ptr @_ZNSt7__cxx1112basic_stringIcSt11char_traitsIcESaIcEEaSERKS4_(ptr noundef nonnull align 4 dereferenceable(24) %name, ptr noundef nonnull align 4 dereferenceable(24) %first)
          to label %invoke.cont unwind label %lpad

invoke.cont:                                      ; preds = %for.body
  %call4 = call noundef ptr @_ZNKSt17_Rb_tree_iteratorISt4pairIKNSt7__cxx1112basic_stringIcSt11char_traitsIcESaIcEEEiEEptEv(ptr noundef nonnull align 4 dereferenceable(4) %dynArrSizesIt) #3
  %second = getelementptr inbounds %"struct.std::pair.76", ptr %call4, i32 0, i32 1
  %0 = load i32, ptr %second, align 4
  %conv = sext i32 %0 to i64
  store i64 %conv, ptr %maxIdx, align 8
  %call6 = invoke noundef nonnull align 4 dereferenceable(4) ptr @_ZStlsISt11char_traitsIcEERSt13basic_ostreamIcT_ES5_PKc(ptr noundef nonnull align 4 dereferenceable(4) @_ZSt4cout, ptr noundef @.str.28)
          to label %invoke.cont5 unwind label %lpad

invoke.cont5:                                     ; preds = %invoke.cont
  %call8 = invoke noundef nonnull align 4 dereferenceable(4) ptr @_ZStlsISt11char_traitsIcEERSt13basic_ostreamIcT_ES5_PKc(ptr noundef nonnull align 4 dereferenceable(4) %call6, ptr noundef @.str.26)
          to label %invoke.cont7 unwind label %lpad

invoke.cont7:                                     ; preds = %invoke.cont5
  %call10 = invoke noundef nonnull align 4 dereferenceable(4) ptr @_ZStlsISt11char_traitsIcEERSt13basic_ostreamIcT_ES5_PKc(ptr noundef nonnull align 4 dereferenceable(4) @_ZSt4cout, ptr noundef @.str.23)
          to label %invoke.cont9 unwind label %lpad

invoke.cont9:                                     ; preds = %invoke.cont7
  %call12 = invoke noundef nonnull align 4 dereferenceable(4) ptr @_ZStlsIcSt11char_traitsIcESaIcEERSt13basic_ostreamIT_T0_ES7_RKNSt7__cxx1112basic_stringIS4_S5_T1_EE(ptr noundef nonnull align 4 dereferenceable(4) %call10, ptr noundef nonnull align 4 dereferenceable(24) %name)
          to label %invoke.cont11 unwind label %lpad

invoke.cont11:                                    ; preds = %invoke.cont9
  %call14 = invoke noundef nonnull align 4 dereferenceable(4) ptr @_ZStlsISt11char_traitsIcEERSt13basic_ostreamIcT_ES5_PKc(ptr noundef nonnull align 4 dereferenceable(4) %call12, ptr noundef @.str.24)
          to label %invoke.cont13 unwind label %lpad

invoke.cont13:                                    ; preds = %invoke.cont11
  %1 = load i64, ptr %maxIdx, align 8
  %call16 = invoke noundef nonnull align 4 dereferenceable(4) ptr @_ZNSolsEy(ptr noundef nonnull align 4 dereferenceable(4) %call14, i64 noundef %1)
          to label %invoke.cont15 unwind label %lpad

invoke.cont15:                                    ; preds = %invoke.cont13
  %call18 = invoke noundef nonnull align 4 dereferenceable(4) ptr @_ZStlsISt11char_traitsIcEERSt13basic_ostreamIcT_ES5_PKc(ptr noundef nonnull align 4 dereferenceable(4) %call16, ptr noundef @.str.26)
          to label %invoke.cont17 unwind label %lpad

invoke.cont17:                                    ; preds = %invoke.cont15
  store i32 0, ptr %i, align 4
  br label %for.cond19

for.cond19:                                       ; preds = %for.inc, %invoke.cont17
  %2 = load i32, ptr %i, align 4
  %conv20 = sext i32 %2 to i64
  %3 = load i64, ptr %maxIdx, align 8
  %cmp = icmp ult i64 %conv20, %3
  br i1 %cmp, label %for.body21, label %for.end

for.body21:                                       ; preds = %for.cond19
  %call23 = invoke noundef nonnull align 4 dereferenceable(12) ptr @_ZNSt3mapINSt7__cxx1112basic_stringIcSt11char_traitsIcESaIcEEESt6vectorIhSaIhEESt4lessIS5_ESaISt4pairIKS5_S8_EEEixERSC_(ptr noundef nonnull align 4 dereferenceable(24) @_ZL14dynByteArrCopyB5cxx11, ptr noundef nonnull align 4 dereferenceable(24) %name)
          to label %invoke.cont22 unwind label %lpad

invoke.cont22:                                    ; preds = %for.body21
  %4 = load i32, ptr %i, align 4
  %call24 = call noundef nonnull align 1 dereferenceable(1) ptr @_ZNSt6vectorIhSaIhEEixEj(ptr noundef nonnull align 4 dereferenceable(12) %call23, i32 noundef %4) #3
  %5 = load i8, ptr %call24, align 1
  %conv25 = zext i8 %5 to i32
  %call27 = invoke noundef nonnull align 4 dereferenceable(4) ptr @_ZNSolsEi(ptr noundef nonnull align 4 dereferenceable(4) @_ZSt4cout, i32 noundef %conv25)
          to label %invoke.cont26 unwind label %lpad

invoke.cont26:                                    ; preds = %invoke.cont22
  %call29 = invoke noundef nonnull align 4 dereferenceable(4) ptr @_ZStlsISt11char_traitsIcEERSt13basic_ostreamIcT_ES5_PKc(ptr noundef nonnull align 4 dereferenceable(4) %call27, ptr noundef @.str.27)
          to label %invoke.cont28 unwind label %lpad

invoke.cont28:                                    ; preds = %invoke.cont26
  br label %for.inc

for.inc:                                          ; preds = %invoke.cont28
  %6 = load i32, ptr %i, align 4
  %inc = add nsw i32 %6, 1
  store i32 %inc, ptr %i, align 4
  br label %for.cond19, !llvm.loop !11

lpad:                                             ; preds = %invoke.cont38, %invoke.cont36, %invoke.cont34, %for.end33, %for.end, %invoke.cont26, %invoke.cont22, %for.body21, %invoke.cont15, %invoke.cont13, %invoke.cont11, %invoke.cont9, %invoke.cont7, %invoke.cont5, %invoke.cont, %for.body
  %7 = landingpad { ptr, i32 }
          cleanup
  %8 = extractvalue { ptr, i32 } %7, 0
  store ptr %8, ptr %exn.slot, align 4
  %9 = extractvalue { ptr, i32 } %7, 1
  store i32 %9, ptr %ehselector.slot, align 4
  call void @_ZNSt7__cxx1112basic_stringIcSt11char_traitsIcESaIcEED1Ev(ptr noundef nonnull align 4 dereferenceable(24) %name) #3
  br label %eh.resume

for.end:                                          ; preds = %for.cond19
  %call31 = invoke noundef nonnull align 4 dereferenceable(4) ptr @_ZStlsISt11char_traitsIcEERSt13basic_ostreamIcT_ES5_PKc(ptr noundef nonnull align 4 dereferenceable(4) @_ZSt4cout, ptr noundef @.str.26)
          to label %invoke.cont30 unwind label %lpad

invoke.cont30:                                    ; preds = %for.end
  br label %for.inc32

for.inc32:                                        ; preds = %invoke.cont30
  call void @_ZNSt17_Rb_tree_iteratorISt4pairIKNSt7__cxx1112basic_stringIcSt11char_traitsIcESaIcEEEiEEppEi(ptr sret(%"struct.std::_Rb_tree_iterator") align 4 %tmp, ptr noundef nonnull align 4 dereferenceable(4) %dynArrSizesIt, i32 noundef 0) #3
  br label %for.cond, !llvm.loop !12

for.end33:                                        ; preds = %for.cond
  call void @_ZNSt3mapINSt7__cxx1112basic_stringIcSt11char_traitsIcESaIcEEEiSt4lessIS5_ESaISt4pairIKS5_iEEE5clearEv(ptr noundef nonnull align 4 dereferenceable(24) @_ZL11dynArrSizesB5cxx11) #3
  call void @_ZNSt3mapINSt7__cxx1112basic_stringIcSt11char_traitsIcESaIcEEESt6vectorIhSaIhEESt4lessIS5_ESaISt4pairIKS5_S8_EEE5clearEv(ptr noundef nonnull align 4 dereferenceable(24) @_ZL14dynByteArrCopyB5cxx11) #3
  %call35 = invoke noundef nonnull align 4 dereferenceable(4) ptr @_ZStlsISt11char_traitsIcEERSt13basic_ostreamIcT_ES5_PKc(ptr noundef nonnull align 4 dereferenceable(4) @_ZSt4cout, ptr noundef @.str.26)
          to label %invoke.cont34 unwind label %lpad

invoke.cont34:                                    ; preds = %for.end33
  %call37 = invoke noundef nonnull align 4 dereferenceable(4) ptr @_ZStlsISt11char_traitsIcEERSt13basic_ostreamIcT_ES5_PKc(ptr noundef nonnull align 4 dereferenceable(4) @_ZSt4cout, ptr noundef @.str.29)
          to label %invoke.cont36 unwind label %lpad

invoke.cont36:                                    ; preds = %invoke.cont34
  %call39 = invoke noundef nonnull align 4 dereferenceable(4) ptr @_ZStlsISt11char_traitsIcEERSt13basic_ostreamIcT_ES5_PKc(ptr noundef nonnull align 4 dereferenceable(4) @_ZSt4cout, ptr noundef @.str.29)
          to label %invoke.cont38 unwind label %lpad

invoke.cont38:                                    ; preds = %invoke.cont36
  %call41 = invoke noundef nonnull align 4 dereferenceable(4) ptr @_ZStlsISt11char_traitsIcEERSt13basic_ostreamIcT_ES5_PKc(ptr noundef nonnull align 4 dereferenceable(4) @_ZSt4cout, ptr noundef @.str.29)
          to label %invoke.cont40 unwind label %lpad

invoke.cont40:                                    ; preds = %invoke.cont38
  call void @_ZNSt3setINSt7__cxx1112basic_stringIcSt11char_traitsIcESaIcEEESt4lessIS5_ESaIS5_EE5clearEv(ptr noundef nonnull align 4 dereferenceable(24) @_ZL11printedArrsB5cxx11) #3
  call void @_ZNSt7__cxx1112basic_stringIcSt11char_traitsIcESaIcEED1Ev(ptr noundef nonnull align 4 dereferenceable(24) %name) #3
  ret void

eh.resume:                                        ; preds = %lpad
  %exn = load ptr, ptr %exn.slot, align 4
  %sel = load i32, ptr %ehselector.slot, align 4
  %lpad.val = insertvalue { ptr, i32 } undef, ptr %exn, 0
  %lpad.val42 = insertvalue { ptr, i32 } %lpad.val, i32 %sel, 1
  resume { ptr, i32 } %lpad.val42
}

; Function Attrs: noinline nounwind optnone uwtable
define linkonce_odr dso_local void @_ZNSt17_Rb_tree_iteratorISt4pairIKNSt7__cxx1112basic_stringIcSt11char_traitsIcESaIcEEEiEEC2Ev(ptr noundef nonnull align 4 dereferenceable(4) %this) unnamed_addr #4 comdat align 2 {
entry:
  %this.addr = alloca ptr, align 4
  store ptr %this, ptr %this.addr, align 4
  %this1 = load ptr, ptr %this.addr, align 4
  %_M_node = getelementptr inbounds %"struct.std::_Rb_tree_iterator", ptr %this1, i32 0, i32 0
  store ptr null, ptr %_M_node, align 4
  ret void
}

; Function Attrs: mustprogress noinline nounwind optnone uwtable
define linkonce_odr dso_local void @_ZNSt3mapINSt7__cxx1112basic_stringIcSt11char_traitsIcESaIcEEEiSt4lessIS5_ESaISt4pairIKS5_iEEE5beginEv(ptr noalias sret(%"struct.std::_Rb_tree_iterator") align 4 %agg.result, ptr noundef nonnull align 4 dereferenceable(24) %this) #6 comdat align 2 {
entry:
  %result.ptr = alloca ptr, align 4
  %this.addr = alloca ptr, align 4
  store ptr %agg.result, ptr %result.ptr, align 4
  store ptr %this, ptr %this.addr, align 4
  %this1 = load ptr, ptr %this.addr, align 4
  %_M_t = getelementptr inbounds %"class.std::map", ptr %this1, i32 0, i32 0
  call void @_ZNSt8_Rb_treeINSt7__cxx1112basic_stringIcSt11char_traitsIcESaIcEEESt4pairIKS5_iESt10_Select1stIS8_ESt4lessIS5_ESaIS8_EE5beginEv(ptr sret(%"struct.std::_Rb_tree_iterator") align 4 %agg.result, ptr noundef nonnull align 4 dereferenceable(24) %_M_t) #3
  ret void
}

; Function Attrs: argmemonly nocallback nofree nounwind willreturn
declare void @llvm.memcpy.p0.p0.i32(ptr noalias nocapture writeonly, ptr noalias nocapture readonly, i32, i1 immarg) #8

; Function Attrs: mustprogress noinline nounwind optnone uwtable
define linkonce_odr dso_local noundef ptr @_ZNKSt17_Rb_tree_iteratorISt4pairIKNSt7__cxx1112basic_stringIcSt11char_traitsIcESaIcEEEiEEptEv(ptr noundef nonnull align 4 dereferenceable(4) %this) #6 comdat align 2 {
entry:
  %this.addr = alloca ptr, align 4
  store ptr %this, ptr %this.addr, align 4
  %this1 = load ptr, ptr %this.addr, align 4
  %_M_node = getelementptr inbounds %"struct.std::_Rb_tree_iterator", ptr %this1, i32 0, i32 0
  %0 = load ptr, ptr %_M_node, align 4
  %call = call noundef ptr @_ZNSt13_Rb_tree_nodeISt4pairIKNSt7__cxx1112basic_stringIcSt11char_traitsIcESaIcEEEiEE9_M_valptrEv(ptr noundef nonnull align 4 dereferenceable(44) %0)
  ret ptr %call
}

declare noundef nonnull align 4 dereferenceable(4) ptr @_ZStlsIcSt11char_traitsIcESaIcEERSt13basic_ostreamIT_T0_ES7_RKNSt7__cxx1112basic_stringIS4_S5_T1_EE(ptr noundef nonnull align 4 dereferenceable(4), ptr noundef nonnull align 4 dereferenceable(24)) #1

declare noundef nonnull align 4 dereferenceable(4) ptr @_ZNSolsEy(ptr noundef nonnull align 4 dereferenceable(4), i64 noundef) #1

; Function Attrs: mustprogress noinline nounwind optnone uwtable
define linkonce_odr dso_local noundef nonnull align 1 dereferenceable(1) ptr @_ZNSt6vectorIhSaIhEEixEj(ptr noundef nonnull align 4 dereferenceable(12) %this, i32 noundef %__n) #6 comdat align 2 {
entry:
  %this.addr = alloca ptr, align 4
  %__n.addr = alloca i32, align 4
  store ptr %this, ptr %this.addr, align 4
  store i32 %__n, ptr %__n.addr, align 4
  %this1 = load ptr, ptr %this.addr, align 4
  %_M_impl = getelementptr inbounds %"struct.std::_Vector_base.72", ptr %this1, i32 0, i32 0
  %_M_start = getelementptr inbounds %"struct.std::_Vector_base<unsigned char, std::allocator<unsigned char>>::_Vector_impl_data", ptr %_M_impl, i32 0, i32 0
  %0 = load ptr, ptr %_M_start, align 4
  %1 = load i32, ptr %__n.addr, align 4
  %add.ptr = getelementptr inbounds i8, ptr %0, i32 %1
  ret ptr %add.ptr
}

; Function Attrs: mustprogress noinline nounwind optnone uwtable
define linkonce_odr dso_local void @_ZNSt17_Rb_tree_iteratorISt4pairIKNSt7__cxx1112basic_stringIcSt11char_traitsIcESaIcEEEiEEppEi(ptr noalias sret(%"struct.std::_Rb_tree_iterator") align 4 %agg.result, ptr noundef nonnull align 4 dereferenceable(4) %this, i32 noundef %0) #6 comdat align 2 {
entry:
  %result.ptr = alloca ptr, align 4
  %this.addr = alloca ptr, align 4
  %.addr = alloca i32, align 4
  store ptr %agg.result, ptr %result.ptr, align 4
  store ptr %this, ptr %this.addr, align 4
  store i32 %0, ptr %.addr, align 4
  %this1 = load ptr, ptr %this.addr, align 4
  call void @llvm.memcpy.p0.p0.i32(ptr align 4 %agg.result, ptr align 4 %this1, i32 4, i1 false)
  %_M_node = getelementptr inbounds %"struct.std::_Rb_tree_iterator", ptr %this1, i32 0, i32 0
  %1 = load ptr, ptr %_M_node, align 4
  %call = call noundef ptr @_ZSt18_Rb_tree_incrementPSt18_Rb_tree_node_base(ptr noundef %1) #20
  %_M_node2 = getelementptr inbounds %"struct.std::_Rb_tree_iterator", ptr %this1, i32 0, i32 0
  store ptr %call, ptr %_M_node2, align 4
  ret void
}

; Function Attrs: mustprogress noinline nounwind optnone uwtable
define linkonce_odr dso_local void @_ZNSt3mapINSt7__cxx1112basic_stringIcSt11char_traitsIcESaIcEEEiSt4lessIS5_ESaISt4pairIKS5_iEEE5clearEv(ptr noundef nonnull align 4 dereferenceable(24) %this) #6 comdat align 2 {
entry:
  %this.addr = alloca ptr, align 4
  store ptr %this, ptr %this.addr, align 4
  %this1 = load ptr, ptr %this.addr, align 4
  %_M_t = getelementptr inbounds %"class.std::map", ptr %this1, i32 0, i32 0
  call void @_ZNSt8_Rb_treeINSt7__cxx1112basic_stringIcSt11char_traitsIcESaIcEEESt4pairIKS5_iESt10_Select1stIS8_ESt4lessIS5_ESaIS8_EE5clearEv(ptr noundef nonnull align 4 dereferenceable(24) %_M_t) #3
  ret void
}

; Function Attrs: mustprogress noinline nounwind optnone uwtable
define linkonce_odr dso_local void @_ZNSt3mapINSt7__cxx1112basic_stringIcSt11char_traitsIcESaIcEEESt6vectorIhSaIhEESt4lessIS5_ESaISt4pairIKS5_S8_EEE5clearEv(ptr noundef nonnull align 4 dereferenceable(24) %this) #6 comdat align 2 {
entry:
  %this.addr = alloca ptr, align 4
  store ptr %this, ptr %this.addr, align 4
  %this1 = load ptr, ptr %this.addr, align 4
  %_M_t = getelementptr inbounds %"class.std::map.5", ptr %this1, i32 0, i32 0
  call void @_ZNSt8_Rb_treeINSt7__cxx1112basic_stringIcSt11char_traitsIcESaIcEEESt4pairIKS5_St6vectorIhSaIhEEESt10_Select1stISB_ESt4lessIS5_ESaISB_EE5clearEv(ptr noundef nonnull align 4 dereferenceable(24) %_M_t) #3
  ret void
}

; Function Attrs: mustprogress noinline nounwind optnone uwtable
define linkonce_odr dso_local void @_ZNSt3setINSt7__cxx1112basic_stringIcSt11char_traitsIcESaIcEEESt4lessIS5_ESaIS5_EE5clearEv(ptr noundef nonnull align 4 dereferenceable(24) %this) #6 comdat align 2 {
entry:
  %this.addr = alloca ptr, align 4
  store ptr %this, ptr %this.addr, align 4
  %this1 = load ptr, ptr %this.addr, align 4
  %_M_t = getelementptr inbounds %"class.std::set", ptr %this1, i32 0, i32 0
  call void @_ZNSt8_Rb_treeINSt7__cxx1112basic_stringIcSt11char_traitsIcESaIcEEES5_St9_IdentityIS5_ESt4lessIS5_ESaIS5_EE5clearEv(ptr noundef nonnull align 4 dereferenceable(24) %_M_t) #3
  ret void
}

; Function Attrs: mustprogress noinline nounwind optnone uwtable
define dso_local void @clearPrintedArrs() #6 {
entry:
  call void @_ZNSt3setINSt7__cxx1112basic_stringIcSt11char_traitsIcESaIcEEESt4lessIS5_ESaIS5_EE5clearEv(ptr noundef nonnull align 4 dereferenceable(24) @_ZL11printedArrsB5cxx11) #3
  ret void
}

; Function Attrs: mustprogress noinline optnone uwtable
define dso_local void @outloopValueReport(i32 noundef %nodeIdx, i32 noundef %value, i32 noundef %addr, i8 noundef zeroext %isLoad, i8 noundef zeroext %isHostTrans, i8 noundef zeroext %size) #5 personality ptr @__gxx_personality_v0 {
entry:
  %nodeIdx.addr = alloca i32, align 4
  %value.addr = alloca i32, align 4
  %addr.addr = alloca i32, align 4
  %isLoad.addr = alloca i8, align 1
  %isHostTrans.addr = alloca i8, align 1
  %size.addr = alloca i8, align 1
  %ss = alloca %"class.std::__cxx11::basic_stringstream", align 4
  %bytePtr = alloca ptr, align 4
  %exn.slot = alloca ptr, align 4
  %ehselector.slot = alloca i32, align 4
  %i = alloca i32, align 4
  %tuple = alloca %struct.AddrDataTuple, align 4
  %ref.tmp = alloca %"class.std::__cxx11::basic_string", align 4
  %ref.tmp58 = alloca i32, align 4
  store i32 %nodeIdx, ptr %nodeIdx.addr, align 4
  store i32 %value, ptr %value.addr, align 4
  store i32 %addr, ptr %addr.addr, align 4
  store i8 %isLoad, ptr %isLoad.addr, align 1
  store i8 %isHostTrans, ptr %isHostTrans.addr, align 1
  store i8 %size, ptr %size.addr, align 1
  call void @_ZNSt7__cxx1118basic_stringstreamIcSt11char_traitsIcESaIcEEC1Ev(ptr noundef nonnull align 4 dereferenceable(72) %ss)
  store ptr %value.addr, ptr %bytePtr, align 4
  %0 = load i8, ptr %isLoad.addr, align 1
  %conv = zext i8 %0 to i32
  %cmp = icmp eq i32 %conv, 1
  br i1 %cmp, label %if.then, label %if.else

if.then:                                          ; preds = %entry
  %call = invoke noundef nonnull align 4 dereferenceable(4) ptr @_ZStlsISt11char_traitsIcEERSt13basic_ostreamIcT_ES5_PKc(ptr noundef nonnull align 4 dereferenceable(4) @_ZSt4cout, ptr noundef @.str.30)
          to label %invoke.cont unwind label %lpad

invoke.cont:                                      ; preds = %if.then
  %1 = load i32, ptr %nodeIdx.addr, align 4
  %call2 = invoke noundef nonnull align 4 dereferenceable(4) ptr @_ZNSolsEj(ptr noundef nonnull align 4 dereferenceable(4) %call, i32 noundef %1)
          to label %invoke.cont1 unwind label %lpad

invoke.cont1:                                     ; preds = %invoke.cont
  %call4 = invoke noundef nonnull align 4 dereferenceable(4) ptr @_ZStlsISt11char_traitsIcEERSt13basic_ostreamIcT_ES5_PKc(ptr noundef nonnull align 4 dereferenceable(4) %call2, ptr noundef @.str.31)
          to label %invoke.cont3 unwind label %lpad

invoke.cont3:                                     ; preds = %invoke.cont1
  %2 = load i32, ptr %value.addr, align 4
  %call6 = invoke noundef nonnull align 4 dereferenceable(4) ptr @_ZNSolsEj(ptr noundef nonnull align 4 dereferenceable(4) %call4, i32 noundef %2)
          to label %invoke.cont5 unwind label %lpad

invoke.cont5:                                     ; preds = %invoke.cont3
  %call8 = invoke noundef nonnull align 4 dereferenceable(4) ptr @_ZStlsISt11char_traitsIcEERSt13basic_ostreamIcT_ES5_PKc(ptr noundef nonnull align 4 dereferenceable(4) %call6, ptr noundef @.str.32)
          to label %invoke.cont7 unwind label %lpad

invoke.cont7:                                     ; preds = %invoke.cont5
  %3 = load i32, ptr %addr.addr, align 4
  %call10 = invoke noundef nonnull align 4 dereferenceable(4) ptr @_ZNSolsEj(ptr noundef nonnull align 4 dereferenceable(4) %call8, i32 noundef %3)
          to label %invoke.cont9 unwind label %lpad

invoke.cont9:                                     ; preds = %invoke.cont7
  %call12 = invoke noundef nonnull align 4 dereferenceable(4) ptr @_ZStlsISt11char_traitsIcEERSt13basic_ostreamIcT_ES5_PKc(ptr noundef nonnull align 4 dereferenceable(4) %call10, ptr noundef @.str.33)
          to label %invoke.cont11 unwind label %lpad

invoke.cont11:                                    ; preds = %invoke.cont9
  %4 = load i8, ptr %isHostTrans.addr, align 1
  %call14 = invoke noundef nonnull align 4 dereferenceable(4) ptr @_ZStlsISt11char_traitsIcEERSt13basic_ostreamIcT_ES5_h(ptr noundef nonnull align 4 dereferenceable(4) %call12, i8 noundef zeroext %4)
          to label %invoke.cont13 unwind label %lpad

invoke.cont13:                                    ; preds = %invoke.cont11
  %call16 = invoke noundef nonnull align 4 dereferenceable(4) ptr @_ZStlsISt11char_traitsIcEERSt13basic_ostreamIcT_ES5_PKc(ptr noundef nonnull align 4 dereferenceable(4) %call14, ptr noundef @.str.26)
          to label %invoke.cont15 unwind label %lpad

invoke.cont15:                                    ; preds = %invoke.cont13
  %add.ptr = getelementptr inbounds i8, ptr %ss, i32 8
  %call18 = invoke noundef nonnull align 4 dereferenceable(4) ptr @_ZStlsISt11char_traitsIcEERSt13basic_ostreamIcT_ES5_PKc(ptr noundef nonnull align 4 dereferenceable(4) %add.ptr, ptr noundef @.str.34)
          to label %invoke.cont17 unwind label %lpad

invoke.cont17:                                    ; preds = %invoke.cont15
  %5 = load i32, ptr %nodeIdx.addr, align 4
  %call20 = invoke noundef nonnull align 4 dereferenceable(4) ptr @_ZNSolsEj(ptr noundef nonnull align 4 dereferenceable(4) %call18, i32 noundef %5)
          to label %invoke.cont19 unwind label %lpad

invoke.cont19:                                    ; preds = %invoke.cont17
  br label %if.end

lpad:                                             ; preds = %invoke.cont40, %invoke.cont37, %invoke.cont35, %invoke.cont33, %invoke.cont31, %invoke.cont29, %invoke.cont27, %invoke.cont25, %invoke.cont23, %invoke.cont21, %if.else, %invoke.cont17, %invoke.cont15, %invoke.cont13, %invoke.cont11, %invoke.cont9, %invoke.cont7, %invoke.cont5, %invoke.cont3, %invoke.cont1, %invoke.cont, %if.then
  %6 = landingpad { ptr, i32 }
          cleanup
  %7 = extractvalue { ptr, i32 } %6, 0
  store ptr %7, ptr %exn.slot, align 4
  %8 = extractvalue { ptr, i32 } %6, 1
  store i32 %8, ptr %ehselector.slot, align 4
  br label %ehcleanup

if.else:                                          ; preds = %entry
  %call22 = invoke noundef nonnull align 4 dereferenceable(4) ptr @_ZStlsISt11char_traitsIcEERSt13basic_ostreamIcT_ES5_PKc(ptr noundef nonnull align 4 dereferenceable(4) @_ZSt4cout, ptr noundef @.str.35)
          to label %invoke.cont21 unwind label %lpad

invoke.cont21:                                    ; preds = %if.else
  %9 = load i32, ptr %nodeIdx.addr, align 4
  %call24 = invoke noundef nonnull align 4 dereferenceable(4) ptr @_ZNSolsEj(ptr noundef nonnull align 4 dereferenceable(4) %call22, i32 noundef %9)
          to label %invoke.cont23 unwind label %lpad

invoke.cont23:                                    ; preds = %invoke.cont21
  %call26 = invoke noundef nonnull align 4 dereferenceable(4) ptr @_ZStlsISt11char_traitsIcEERSt13basic_ostreamIcT_ES5_PKc(ptr noundef nonnull align 4 dereferenceable(4) %call24, ptr noundef @.str.31)
          to label %invoke.cont25 unwind label %lpad

invoke.cont25:                                    ; preds = %invoke.cont23
  %10 = load i32, ptr %value.addr, align 4
  %call28 = invoke noundef nonnull align 4 dereferenceable(4) ptr @_ZNSolsEj(ptr noundef nonnull align 4 dereferenceable(4) %call26, i32 noundef %10)
          to label %invoke.cont27 unwind label %lpad

invoke.cont27:                                    ; preds = %invoke.cont25
  %call30 = invoke noundef nonnull align 4 dereferenceable(4) ptr @_ZStlsISt11char_traitsIcEERSt13basic_ostreamIcT_ES5_PKc(ptr noundef nonnull align 4 dereferenceable(4) %call28, ptr noundef @.str.32)
          to label %invoke.cont29 unwind label %lpad

invoke.cont29:                                    ; preds = %invoke.cont27
  %11 = load i32, ptr %addr.addr, align 4
  %call32 = invoke noundef nonnull align 4 dereferenceable(4) ptr @_ZNSolsEj(ptr noundef nonnull align 4 dereferenceable(4) %call30, i32 noundef %11)
          to label %invoke.cont31 unwind label %lpad

invoke.cont31:                                    ; preds = %invoke.cont29
  %call34 = invoke noundef nonnull align 4 dereferenceable(4) ptr @_ZStlsISt11char_traitsIcEERSt13basic_ostreamIcT_ES5_PKc(ptr noundef nonnull align 4 dereferenceable(4) %call32, ptr noundef @.str.33)
          to label %invoke.cont33 unwind label %lpad

invoke.cont33:                                    ; preds = %invoke.cont31
  %12 = load i8, ptr %isHostTrans.addr, align 1
  %call36 = invoke noundef nonnull align 4 dereferenceable(4) ptr @_ZStlsISt11char_traitsIcEERSt13basic_ostreamIcT_ES5_h(ptr noundef nonnull align 4 dereferenceable(4) %call34, i8 noundef zeroext %12)
          to label %invoke.cont35 unwind label %lpad

invoke.cont35:                                    ; preds = %invoke.cont33
  %call38 = invoke noundef nonnull align 4 dereferenceable(4) ptr @_ZStlsISt11char_traitsIcEERSt13basic_ostreamIcT_ES5_PKc(ptr noundef nonnull align 4 dereferenceable(4) %call36, ptr noundef @.str.26)
          to label %invoke.cont37 unwind label %lpad

invoke.cont37:                                    ; preds = %invoke.cont35
  %add.ptr39 = getelementptr inbounds i8, ptr %ss, i32 8
  %call41 = invoke noundef nonnull align 4 dereferenceable(4) ptr @_ZStlsISt11char_traitsIcEERSt13basic_ostreamIcT_ES5_PKc(ptr noundef nonnull align 4 dereferenceable(4) %add.ptr39, ptr noundef @.str.36)
          to label %invoke.cont40 unwind label %lpad

invoke.cont40:                                    ; preds = %invoke.cont37
  %13 = load i32, ptr %nodeIdx.addr, align 4
  %call43 = invoke noundef nonnull align 4 dereferenceable(4) ptr @_ZNSolsEj(ptr noundef nonnull align 4 dereferenceable(4) %call41, i32 noundef %13)
          to label %invoke.cont42 unwind label %lpad

invoke.cont42:                                    ; preds = %invoke.cont40
  br label %if.end

if.end:                                           ; preds = %invoke.cont42, %invoke.cont19
  store i32 0, ptr %i, align 4
  br label %for.cond

for.cond:                                         ; preds = %for.inc, %if.end
  %14 = load i32, ptr %i, align 4
  %15 = load i8, ptr %size.addr, align 1
  %conv44 = zext i8 %15 to i32
  %cmp45 = icmp slt i32 %14, %conv44
  br i1 %cmp45, label %for.body, label %for.end

for.body:                                         ; preds = %for.cond
  call void @_ZN13AddrDataTupleC2Ev(ptr noundef nonnull align 4 dereferenceable(28) %tuple) #3
  invoke void @_ZNKSt7__cxx1118basic_stringstreamIcSt11char_traitsIcESaIcEE3strEv(ptr sret(%"class.std::__cxx11::basic_string") align 4 %ref.tmp, ptr noundef nonnull align 4 dereferenceable(72) %ss)
          to label %invoke.cont47 unwind label %lpad46

invoke.cont47:                                    ; preds = %for.body
  %name = getelementptr inbounds %struct.AddrDataTuple, ptr %tuple, i32 0, i32 2
  %call48 = call noundef nonnull align 4 dereferenceable(24) ptr @_ZNSt7__cxx1112basic_stringIcSt11char_traitsIcESaIcEEaSEOS4_(ptr noundef nonnull align 4 dereferenceable(24) %name, ptr noundef nonnull align 4 dereferenceable(24) %ref.tmp) #3
  call void @_ZNSt7__cxx1112basic_stringIcSt11char_traitsIcESaIcEED1Ev(ptr noundef nonnull align 4 dereferenceable(24) %ref.tmp) #3
  %16 = load i8, ptr %isLoad.addr, align 1
  %conv49 = zext i8 %16 to i32
  %cmp50 = icmp eq i32 %conv49, 1
  br i1 %cmp50, label %if.then51, label %if.else53

if.then51:                                        ; preds = %invoke.cont47
  %17 = load ptr, ptr %bytePtr, align 4
  %18 = load i32, ptr %i, align 4
  %arrayidx = getelementptr inbounds i8, ptr %17, i32 %18
  %19 = load i8, ptr %arrayidx, align 1
  %pre_data = getelementptr inbounds %struct.AddrDataTuple, ptr %tuple, i32 0, i32 0
  store i8 %19, ptr %pre_data, align 4
  %20 = load ptr, ptr %bytePtr, align 4
  %21 = load i32, ptr %i, align 4
  %arrayidx52 = getelementptr inbounds i8, ptr %20, i32 %21
  %22 = load i8, ptr %arrayidx52, align 1
  %post_data = getelementptr inbounds %struct.AddrDataTuple, ptr %tuple, i32 0, i32 1
  store i8 %22, ptr %post_data, align 1
  br label %if.end57

lpad46:                                           ; preds = %invoke.cont59, %if.end57, %for.body
  %23 = landingpad { ptr, i32 }
          cleanup
  %24 = extractvalue { ptr, i32 } %23, 0
  store ptr %24, ptr %exn.slot, align 4
  %25 = extractvalue { ptr, i32 } %23, 1
  store i32 %25, ptr %ehselector.slot, align 4
  call void @_ZN13AddrDataTupleD2Ev(ptr noundef nonnull align 4 dereferenceable(28) %tuple) #3
  br label %ehcleanup

if.else53:                                        ; preds = %invoke.cont47
  %pre_data54 = getelementptr inbounds %struct.AddrDataTuple, ptr %tuple, i32 0, i32 0
  store i8 0, ptr %pre_data54, align 4
  %26 = load ptr, ptr %bytePtr, align 4
  %27 = load i32, ptr %i, align 4
  %arrayidx55 = getelementptr inbounds i8, ptr %26, i32 %27
  %28 = load i8, ptr %arrayidx55, align 1
  %post_data56 = getelementptr inbounds %struct.AddrDataTuple, ptr %tuple, i32 0, i32 1
  store i8 %28, ptr %post_data56, align 1
  br label %if.end57

if.end57:                                         ; preds = %if.else53, %if.then51
  %29 = load i32, ptr %addr.addr, align 4
  %30 = load i32, ptr %i, align 4
  %add = add i32 %29, %30
  store i32 %add, ptr %ref.tmp58, align 4
  %call60 = invoke noundef nonnull align 4 dereferenceable(28) ptr @_ZNSt3mapIj13AddrDataTupleSt4lessIjESaISt4pairIKjS0_EEEixEOj(ptr noundef nonnull align 4 dereferenceable(24) @_ZL4data, ptr noundef nonnull align 4 dereferenceable(4) %ref.tmp58)
          to label %invoke.cont59 unwind label %lpad46

invoke.cont59:                                    ; preds = %if.end57
  %call62 = invoke noundef nonnull align 4 dereferenceable(28) ptr @_ZN13AddrDataTupleaSERKS_(ptr noundef nonnull align 4 dereferenceable(28) %call60, ptr noundef nonnull align 4 dereferenceable(28) %tuple)
          to label %invoke.cont61 unwind label %lpad46

invoke.cont61:                                    ; preds = %invoke.cont59
  call void @_ZN13AddrDataTupleD2Ev(ptr noundef nonnull align 4 dereferenceable(28) %tuple) #3
  br label %for.inc

for.inc:                                          ; preds = %invoke.cont61
  %31 = load i32, ptr %i, align 4
  %inc = add nsw i32 %31, 1
  store i32 %inc, ptr %i, align 4
  br label %for.cond, !llvm.loop !13

for.end:                                          ; preds = %for.cond
  call void @_ZNSt7__cxx1118basic_stringstreamIcSt11char_traitsIcESaIcEED1Ev(ptr noundef nonnull align 4 dereferenceable(72) %ss) #3
  ret void

ehcleanup:                                        ; preds = %lpad46, %lpad
  call void @_ZNSt7__cxx1118basic_stringstreamIcSt11char_traitsIcESaIcEED1Ev(ptr noundef nonnull align 4 dereferenceable(72) %ss) #3
  br label %eh.resume

eh.resume:                                        ; preds = %ehcleanup
  %exn = load ptr, ptr %exn.slot, align 4
  %sel = load i32, ptr %ehselector.slot, align 4
  %lpad.val = insertvalue { ptr, i32 } undef, ptr %exn, 0
  %lpad.val63 = insertvalue { ptr, i32 } %lpad.val, i32 %sel, 1
  resume { ptr, i32 } %lpad.val63
}

declare void @_ZNSt7__cxx1118basic_stringstreamIcSt11char_traitsIcESaIcEEC1Ev(ptr noundef nonnull align 4 dereferenceable(72)) unnamed_addr #1

declare noundef nonnull align 4 dereferenceable(4) ptr @_ZStlsISt11char_traitsIcEERSt13basic_ostreamIcT_ES5_h(ptr noundef nonnull align 4 dereferenceable(4), i8 noundef zeroext) #1

declare void @_ZNKSt7__cxx1118basic_stringstreamIcSt11char_traitsIcESaIcEE3strEv(ptr sret(%"class.std::__cxx11::basic_string") align 4, ptr noundef nonnull align 4 dereferenceable(72)) #1

; Function Attrs: nounwind
declare noundef nonnull align 4 dereferenceable(24) ptr @_ZNSt7__cxx1112basic_stringIcSt11char_traitsIcESaIcEEaSEOS4_(ptr noundef nonnull align 4 dereferenceable(24), ptr noundef nonnull align 4 dereferenceable(24)) #2

; Function Attrs: nounwind
declare void @_ZNSt7__cxx1118basic_stringstreamIcSt11char_traitsIcESaIcEED1Ev(ptr noundef nonnull align 4 dereferenceable(72)) unnamed_addr #2

; Function Attrs: mustprogress noinline optnone uwtable
define dso_local void @_Z9PrintDataNSt7__cxx1112basic_stringIcSt11char_traitsIcESaIcEEE(ptr noundef %ln) #5 {
entry:
  %dataIt = alloca %"struct.std::_Rb_tree_iterator.79", align 4
  %ref.tmp = alloca %"struct.std::_Rb_tree_iterator.79", align 4
  %ref.tmp2 = alloca %"struct.std::_Rb_tree_iterator.79", align 4
  call void @_ZNSt17_Rb_tree_iteratorISt4pairIKj13AddrDataTupleEEC2Ev(ptr noundef nonnull align 4 dereferenceable(4) %dataIt) #3
  %call = call noundef nonnull align 4 dereferenceable(4) ptr @_ZNSt3mapINSt7__cxx1112basic_stringIcSt11char_traitsIcESaIcEEEP8_IO_FILESt4lessIS5_ESaISt4pairIKS5_S7_EEEixERSB_(ptr noundef nonnull align 4 dereferenceable(24) @_ZL12currentFilesB5cxx11, ptr noundef nonnull align 4 dereferenceable(24) %ln)
  %0 = load ptr, ptr %call, align 4
  %call1 = call i32 (ptr, ptr, ...) @fprintf(ptr noundef %0, ptr noundef @.str.37)
  call void @_ZNSt3mapIj13AddrDataTupleSt4lessIjESaISt4pairIKjS0_EEE5beginEv(ptr sret(%"struct.std::_Rb_tree_iterator.79") align 4 %ref.tmp, ptr noundef nonnull align 4 dereferenceable(24) @_ZL4data) #3
  call void @llvm.memcpy.p0.p0.i32(ptr align 4 %dataIt, ptr align 4 %ref.tmp, i32 4, i1 false)
  br label %for.cond

for.cond:                                         ; preds = %for.inc, %entry
  call void @_ZNSt3mapIj13AddrDataTupleSt4lessIjESaISt4pairIKjS0_EEE3endEv(ptr sret(%"struct.std::_Rb_tree_iterator.79") align 4 %ref.tmp2, ptr noundef nonnull align 4 dereferenceable(24) @_ZL4data) #3
  %call3 = call noundef zeroext i1 @_ZStneRKSt17_Rb_tree_iteratorISt4pairIKj13AddrDataTupleEES6_(ptr noundef nonnull align 4 dereferenceable(4) %dataIt, ptr noundef nonnull align 4 dereferenceable(4) %ref.tmp2) #3
  br i1 %call3, label %for.body, label %for.end

for.body:                                         ; preds = %for.cond
  %call4 = call noundef nonnull align 4 dereferenceable(4) ptr @_ZNSt3mapINSt7__cxx1112basic_stringIcSt11char_traitsIcESaIcEEEP8_IO_FILESt4lessIS5_ESaISt4pairIKS5_S7_EEEixERSB_(ptr noundef nonnull align 4 dereferenceable(24) @_ZL12currentFilesB5cxx11, ptr noundef nonnull align 4 dereferenceable(24) %ln)
  %1 = load ptr, ptr %call4, align 4
  %call5 = call noundef ptr @_ZNKSt17_Rb_tree_iteratorISt4pairIKj13AddrDataTupleEEptEv(ptr noundef nonnull align 4 dereferenceable(4) %dataIt) #3
  %first = getelementptr inbounds %"struct.std::pair.80", ptr %call5, i32 0, i32 0
  %2 = load i32, ptr %first, align 4
  %call6 = call noundef ptr @_ZNKSt17_Rb_tree_iteratorISt4pairIKj13AddrDataTupleEEptEv(ptr noundef nonnull align 4 dereferenceable(4) %dataIt) #3
  %second = getelementptr inbounds %"struct.std::pair.80", ptr %call6, i32 0, i32 1
  %pre_data = getelementptr inbounds %struct.AddrDataTuple, ptr %second, i32 0, i32 0
  %3 = load i8, ptr %pre_data, align 4
  %conv = zext i8 %3 to i32
  %call7 = call noundef ptr @_ZNKSt17_Rb_tree_iteratorISt4pairIKj13AddrDataTupleEEptEv(ptr noundef nonnull align 4 dereferenceable(4) %dataIt) #3
  %second8 = getelementptr inbounds %"struct.std::pair.80", ptr %call7, i32 0, i32 1
  %post_data = getelementptr inbounds %struct.AddrDataTuple, ptr %second8, i32 0, i32 1
  %4 = load i8, ptr %post_data, align 1
  %conv9 = zext i8 %4 to i32
  %call10 = call i32 (ptr, ptr, ...) @fprintf(ptr noundef %1, ptr noundef @.str.38, i32 noundef %2, i32 noundef %conv, i32 noundef %conv9)
  br label %for.inc

for.inc:                                          ; preds = %for.body
  %call11 = call noundef nonnull align 4 dereferenceable(4) ptr @_ZNSt17_Rb_tree_iteratorISt4pairIKj13AddrDataTupleEEppEv(ptr noundef nonnull align 4 dereferenceable(4) %dataIt) #3
  br label %for.cond, !llvm.loop !14

for.end:                                          ; preds = %for.cond
  ret void
}

; Function Attrs: noinline nounwind optnone uwtable
define linkonce_odr dso_local void @_ZNSt17_Rb_tree_iteratorISt4pairIKj13AddrDataTupleEEC2Ev(ptr noundef nonnull align 4 dereferenceable(4) %this) unnamed_addr #4 comdat align 2 {
entry:
  %this.addr = alloca ptr, align 4
  store ptr %this, ptr %this.addr, align 4
  %this1 = load ptr, ptr %this.addr, align 4
  %_M_node = getelementptr inbounds %"struct.std::_Rb_tree_iterator.79", ptr %this1, i32 0, i32 0
  store ptr null, ptr %_M_node, align 4
  ret void
}

declare i32 @fprintf(ptr noundef, ptr noundef, ...) #1

; Function Attrs: mustprogress noinline optnone uwtable
define linkonce_odr dso_local noundef nonnull align 4 dereferenceable(4) ptr @_ZNSt3mapINSt7__cxx1112basic_stringIcSt11char_traitsIcESaIcEEEP8_IO_FILESt4lessIS5_ESaISt4pairIKS5_S7_EEEixERSB_(ptr noundef nonnull align 4 dereferenceable(24) %this, ptr noundef nonnull align 4 dereferenceable(24) %__k) #5 comdat align 2 {
entry:
  %this.addr = alloca ptr, align 4
  %__k.addr = alloca ptr, align 4
  %__i = alloca %"struct.std::_Rb_tree_iterator.184", align 4
  %ref.tmp = alloca %"struct.std::_Rb_tree_iterator.184", align 4
  %ref.tmp2 = alloca %"struct.std::less", align 1
  %ref.tmp5 = alloca %"struct.std::_Rb_tree_iterator.184", align 4
  %agg.tmp = alloca %"struct.std::_Rb_tree_const_iterator.185", align 4
  %ref.tmp6 = alloca %"class.std::tuple.170", align 4
  %ref.tmp7 = alloca %"class.std::tuple.158", align 1
  store ptr %this, ptr %this.addr, align 4
  store ptr %__k, ptr %__k.addr, align 4
  %this1 = load ptr, ptr %this.addr, align 4
  %0 = load ptr, ptr %__k.addr, align 4
  call void @_ZNSt3mapINSt7__cxx1112basic_stringIcSt11char_traitsIcESaIcEEEP8_IO_FILESt4lessIS5_ESaISt4pairIKS5_S7_EEE11lower_boundERSB_(ptr sret(%"struct.std::_Rb_tree_iterator.184") align 4 %__i, ptr noundef nonnull align 4 dereferenceable(24) %this1, ptr noundef nonnull align 4 dereferenceable(24) %0)
  call void @_ZNSt3mapINSt7__cxx1112basic_stringIcSt11char_traitsIcESaIcEEEP8_IO_FILESt4lessIS5_ESaISt4pairIKS5_S7_EEE3endEv(ptr sret(%"struct.std::_Rb_tree_iterator.184") align 4 %ref.tmp, ptr noundef nonnull align 4 dereferenceable(24) %this1) #3
  %call = call noundef zeroext i1 @_ZSteqRKSt17_Rb_tree_iteratorISt4pairIKNSt7__cxx1112basic_stringIcSt11char_traitsIcESaIcEEEP8_IO_FILEEESD_(ptr noundef nonnull align 4 dereferenceable(4) %__i, ptr noundef nonnull align 4 dereferenceable(4) %ref.tmp) #3
  br i1 %call, label %lor.end, label %lor.rhs

lor.rhs:                                          ; preds = %entry
  call void @_ZNKSt3mapINSt7__cxx1112basic_stringIcSt11char_traitsIcESaIcEEEP8_IO_FILESt4lessIS5_ESaISt4pairIKS5_S7_EEE8key_compEv(ptr sret(%"struct.std::less") align 1 %ref.tmp2, ptr noundef nonnull align 4 dereferenceable(24) %this1)
  %1 = load ptr, ptr %__k.addr, align 4
  %call3 = call noundef nonnull align 4 dereferenceable(28) ptr @_ZNKSt17_Rb_tree_iteratorISt4pairIKNSt7__cxx1112basic_stringIcSt11char_traitsIcESaIcEEEP8_IO_FILEEEdeEv(ptr noundef nonnull align 4 dereferenceable(4) %__i) #3
  %first = getelementptr inbounds %"struct.std::pair.128", ptr %call3, i32 0, i32 0
  %call4 = call noundef zeroext i1 @_ZNKSt4lessINSt7__cxx1112basic_stringIcSt11char_traitsIcESaIcEEEEclERKS5_S8_(ptr noundef nonnull align 1 dereferenceable(1) %ref.tmp2, ptr noundef nonnull align 4 dereferenceable(24) %1, ptr noundef nonnull align 4 dereferenceable(24) %first)
  br label %lor.end

lor.end:                                          ; preds = %lor.rhs, %entry
  %2 = phi i1 [ true, %entry ], [ %call4, %lor.rhs ]
  br i1 %2, label %if.then, label %if.end

if.then:                                          ; preds = %lor.end
  %_M_t = getelementptr inbounds %"class.std::map.14", ptr %this1, i32 0, i32 0
  call void @_ZNSt23_Rb_tree_const_iteratorISt4pairIKNSt7__cxx1112basic_stringIcSt11char_traitsIcESaIcEEEP8_IO_FILEEEC2ERKSt17_Rb_tree_iteratorISA_E(ptr noundef nonnull align 4 dereferenceable(4) %agg.tmp, ptr noundef nonnull align 4 dereferenceable(4) %__i) #3
  %3 = load ptr, ptr %__k.addr, align 4
  call void @_ZNSt5tupleIJRKNSt7__cxx1112basic_stringIcSt11char_traitsIcESaIcEEEEEC2IvLb1EEES7_(ptr noundef nonnull align 4 dereferenceable(4) %ref.tmp6, ptr noundef nonnull align 4 dereferenceable(24) %3)
  call void @_ZNSt8_Rb_treeINSt7__cxx1112basic_stringIcSt11char_traitsIcESaIcEEESt4pairIKS5_P8_IO_FILEESt10_Select1stISA_ESt4lessIS5_ESaISA_EE22_M_emplace_hint_uniqueIJRKSt21piecewise_construct_tSt5tupleIJRS7_EESL_IJEEEEESt17_Rb_tree_iteratorISA_ESt23_Rb_tree_const_iteratorISA_EDpOT_(ptr sret(%"struct.std::_Rb_tree_iterator.184") align 4 %ref.tmp5, ptr noundef nonnull align 4 dereferenceable(24) %_M_t, ptr noundef byval(%"struct.std::_Rb_tree_const_iterator.185") align 4 %agg.tmp, ptr noundef nonnull align 1 dereferenceable(1) @_ZStL19piecewise_construct, ptr noundef nonnull align 4 dereferenceable(4) %ref.tmp6, ptr noundef nonnull align 1 dereferenceable(1) %ref.tmp7)
  call void @llvm.memcpy.p0.p0.i32(ptr align 4 %__i, ptr align 4 %ref.tmp5, i32 4, i1 false)
  br label %if.end

if.end:                                           ; preds = %if.then, %lor.end
  %call8 = call noundef nonnull align 4 dereferenceable(28) ptr @_ZNKSt17_Rb_tree_iteratorISt4pairIKNSt7__cxx1112basic_stringIcSt11char_traitsIcESaIcEEEP8_IO_FILEEEdeEv(ptr noundef nonnull align 4 dereferenceable(4) %__i) #3
  %second = getelementptr inbounds %"struct.std::pair.128", ptr %call8, i32 0, i32 1
  ret ptr %second
}

; Function Attrs: mustprogress noinline nounwind optnone uwtable
define linkonce_odr dso_local void @_ZNSt3mapIj13AddrDataTupleSt4lessIjESaISt4pairIKjS0_EEE5beginEv(ptr noalias sret(%"struct.std::_Rb_tree_iterator.79") align 4 %agg.result, ptr noundef nonnull align 4 dereferenceable(24) %this) #6 comdat align 2 {
entry:
  %result.ptr = alloca ptr, align 4
  %this.addr = alloca ptr, align 4
  store ptr %agg.result, ptr %result.ptr, align 4
  store ptr %this, ptr %this.addr, align 4
  %this1 = load ptr, ptr %this.addr, align 4
  %_M_t = getelementptr inbounds %"class.std::map.58", ptr %this1, i32 0, i32 0
  call void @_ZNSt8_Rb_treeIjSt4pairIKj13AddrDataTupleESt10_Select1stIS3_ESt4lessIjESaIS3_EE5beginEv(ptr sret(%"struct.std::_Rb_tree_iterator.79") align 4 %agg.result, ptr noundef nonnull align 4 dereferenceable(24) %_M_t) #3
  ret void
}

; Function Attrs: mustprogress noinline nounwind optnone uwtable
define linkonce_odr dso_local noundef zeroext i1 @_ZStneRKSt17_Rb_tree_iteratorISt4pairIKj13AddrDataTupleEES6_(ptr noundef nonnull align 4 dereferenceable(4) %__x, ptr noundef nonnull align 4 dereferenceable(4) %__y) #6 comdat {
entry:
  %__x.addr = alloca ptr, align 4
  %__y.addr = alloca ptr, align 4
  store ptr %__x, ptr %__x.addr, align 4
  store ptr %__y, ptr %__y.addr, align 4
  %0 = load ptr, ptr %__x.addr, align 4
  %_M_node = getelementptr inbounds %"struct.std::_Rb_tree_iterator.79", ptr %0, i32 0, i32 0
  %1 = load ptr, ptr %_M_node, align 4
  %2 = load ptr, ptr %__y.addr, align 4
  %_M_node1 = getelementptr inbounds %"struct.std::_Rb_tree_iterator.79", ptr %2, i32 0, i32 0
  %3 = load ptr, ptr %_M_node1, align 4
  %cmp = icmp ne ptr %1, %3
  ret i1 %cmp
}

; Function Attrs: mustprogress noinline nounwind optnone uwtable
define linkonce_odr dso_local void @_ZNSt3mapIj13AddrDataTupleSt4lessIjESaISt4pairIKjS0_EEE3endEv(ptr noalias sret(%"struct.std::_Rb_tree_iterator.79") align 4 %agg.result, ptr noundef nonnull align 4 dereferenceable(24) %this) #6 comdat align 2 {
entry:
  %result.ptr = alloca ptr, align 4
  %this.addr = alloca ptr, align 4
  store ptr %agg.result, ptr %result.ptr, align 4
  store ptr %this, ptr %this.addr, align 4
  %this1 = load ptr, ptr %this.addr, align 4
  %_M_t = getelementptr inbounds %"class.std::map.58", ptr %this1, i32 0, i32 0
  call void @_ZNSt8_Rb_treeIjSt4pairIKj13AddrDataTupleESt10_Select1stIS3_ESt4lessIjESaIS3_EE3endEv(ptr sret(%"struct.std::_Rb_tree_iterator.79") align 4 %agg.result, ptr noundef nonnull align 4 dereferenceable(24) %_M_t) #3
  ret void
}

; Function Attrs: mustprogress noinline nounwind optnone uwtable
define linkonce_odr dso_local noundef ptr @_ZNKSt17_Rb_tree_iteratorISt4pairIKj13AddrDataTupleEEptEv(ptr noundef nonnull align 4 dereferenceable(4) %this) #6 comdat align 2 {
entry:
  %this.addr = alloca ptr, align 4
  store ptr %this, ptr %this.addr, align 4
  %this1 = load ptr, ptr %this.addr, align 4
  %_M_node = getelementptr inbounds %"struct.std::_Rb_tree_iterator.79", ptr %this1, i32 0, i32 0
  %0 = load ptr, ptr %_M_node, align 4
  %call = call noundef ptr @_ZNSt13_Rb_tree_nodeISt4pairIKj13AddrDataTupleEE9_M_valptrEv(ptr noundef nonnull align 4 dereferenceable(48) %0)
  ret ptr %call
}

; Function Attrs: mustprogress noinline nounwind optnone uwtable
define linkonce_odr dso_local noundef nonnull align 4 dereferenceable(4) ptr @_ZNSt17_Rb_tree_iteratorISt4pairIKj13AddrDataTupleEEppEv(ptr noundef nonnull align 4 dereferenceable(4) %this) #6 comdat align 2 {
entry:
  %this.addr = alloca ptr, align 4
  store ptr %this, ptr %this.addr, align 4
  %this1 = load ptr, ptr %this.addr, align 4
  %_M_node = getelementptr inbounds %"struct.std::_Rb_tree_iterator.79", ptr %this1, i32 0, i32 0
  %0 = load ptr, ptr %_M_node, align 4
  %call = call noundef ptr @_ZSt18_Rb_tree_incrementPSt18_Rb_tree_node_base(ptr noundef %0) #20
  %_M_node2 = getelementptr inbounds %"struct.std::_Rb_tree_iterator.79", ptr %this1, i32 0, i32 0
  store ptr %call, ptr %_M_node2, align 4
  ret ptr %this1
}

; Function Attrs: mustprogress noinline optnone uwtable
define dso_local void @_Z16PrintDataMorpherNSt7__cxx1112basic_stringIcSt11char_traitsIcESaIcEEE(ptr noundef %ln) #5 personality ptr @__gxx_personality_v0 {
entry:
  %it = alloca %"struct.std::_Rb_tree_iterator.83", align 4
  %ref.tmp = alloca %"struct.std::_Rb_tree_iterator.83", align 4
  %var_name = alloca %"class.std::__cxx11::basic_string", align 4
  %data_tuple = alloca %struct.AddrDataTupleMorpher, align 4
  %exn.slot = alloca ptr, align 4
  %ehselector.slot = alloca i32, align 4
  %offset = alloca i32, align 4
  %tmp = alloca %"struct.std::_Rb_tree_iterator.83", align 4
  %call = call noundef nonnull align 4 dereferenceable(4) ptr @_ZNSt3mapINSt7__cxx1112basic_stringIcSt11char_traitsIcESaIcEEEP8_IO_FILESt4lessIS5_ESaISt4pairIKS5_S7_EEEixERSB_(ptr noundef nonnull align 4 dereferenceable(24) @_ZL12currentFilesB5cxx11, ptr noundef nonnull align 4 dereferenceable(24) %ln)
  %0 = load ptr, ptr %call, align 4
  %call1 = call i32 (ptr, ptr, ...) @fprintf(ptr noundef %0, ptr noundef @.str.39)
  call void @_ZNSt3mapINSt7__cxx1112basic_stringIcSt11char_traitsIcESaIcEEE20AddrDataTupleMorpherSt4lessIS5_ESaISt4pairIKS5_S6_EEE5beginEv(ptr sret(%"struct.std::_Rb_tree_iterator.83") align 4 %it, ptr noundef nonnull align 4 dereferenceable(24) @_ZL12data_morpherB5cxx11) #3
  br label %for.cond

for.cond:                                         ; preds = %for.inc18, %entry
  call void @_ZNSt3mapINSt7__cxx1112basic_stringIcSt11char_traitsIcESaIcEEE20AddrDataTupleMorpherSt4lessIS5_ESaISt4pairIKS5_S6_EEE3endEv(ptr sret(%"struct.std::_Rb_tree_iterator.83") align 4 %ref.tmp, ptr noundef nonnull align 4 dereferenceable(24) @_ZL12data_morpherB5cxx11) #3
  %call2 = call noundef zeroext i1 @_ZStneRKSt17_Rb_tree_iteratorISt4pairIKNSt7__cxx1112basic_stringIcSt11char_traitsIcESaIcEEE20AddrDataTupleMorpherEESC_(ptr noundef nonnull align 4 dereferenceable(4) %it, ptr noundef nonnull align 4 dereferenceable(4) %ref.tmp) #3
  br i1 %call2, label %for.body, label %for.end19

for.body:                                         ; preds = %for.cond
  %call3 = call noundef ptr @_ZNKSt17_Rb_tree_iteratorISt4pairIKNSt7__cxx1112basic_stringIcSt11char_traitsIcESaIcEEE20AddrDataTupleMorpherEEptEv(ptr noundef nonnull align 4 dereferenceable(4) %it) #3
  %first = getelementptr inbounds %"struct.std::pair.84", ptr %call3, i32 0, i32 0
  call void @_ZNSt7__cxx1112basic_stringIcSt11char_traitsIcESaIcEEC1ERKS4_(ptr noundef nonnull align 4 dereferenceable(24) %var_name, ptr noundef nonnull align 4 dereferenceable(24) %first)
  %call4 = call noundef ptr @_ZNKSt17_Rb_tree_iteratorISt4pairIKNSt7__cxx1112basic_stringIcSt11char_traitsIcESaIcEEE20AddrDataTupleMorpherEEptEv(ptr noundef nonnull align 4 dereferenceable(4) %it) #3
  %second = getelementptr inbounds %"struct.std::pair.84", ptr %call4, i32 0, i32 1
  invoke void @_ZN20AddrDataTupleMorpherC2ERKS_(ptr noundef nonnull align 4 dereferenceable(48) %data_tuple, ptr noundef nonnull align 4 dereferenceable(48) %second)
          to label %invoke.cont unwind label %lpad

invoke.cont:                                      ; preds = %for.body
  store i32 0, ptr %offset, align 4
  br label %for.cond5

for.cond5:                                        ; preds = %for.inc, %invoke.cont
  %1 = load i32, ptr %offset, align 4
  %pre_data = getelementptr inbounds %struct.AddrDataTupleMorpher, ptr %data_tuple, i32 0, i32 0
  %call6 = call noundef i32 @_ZNKSt6vectorIhSaIhEE4sizeEv(ptr noundef nonnull align 4 dereferenceable(12) %pre_data) #3
  %cmp = icmp ult i32 %1, %call6
  br i1 %cmp, label %for.body7, label %for.end

for.body7:                                        ; preds = %for.cond5
  %call10 = invoke noundef nonnull align 4 dereferenceable(4) ptr @_ZNSt3mapINSt7__cxx1112basic_stringIcSt11char_traitsIcESaIcEEEP8_IO_FILESt4lessIS5_ESaISt4pairIKS5_S7_EEEixERSB_(ptr noundef nonnull align 4 dereferenceable(24) @_ZL12currentFilesB5cxx11, ptr noundef nonnull align 4 dereferenceable(24) %ln)
          to label %invoke.cont9 unwind label %lpad8

invoke.cont9:                                     ; preds = %for.body7
  %2 = load ptr, ptr %call10, align 4
  %call11 = call noundef ptr @_ZNKSt7__cxx1112basic_stringIcSt11char_traitsIcESaIcEE5c_strEv(ptr noundef nonnull align 4 dereferenceable(24) %var_name) #3
  %3 = load i32, ptr %offset, align 4
  %pre_data12 = getelementptr inbounds %struct.AddrDataTupleMorpher, ptr %data_tuple, i32 0, i32 0
  %4 = load i32, ptr %offset, align 4
  %call13 = call noundef nonnull align 1 dereferenceable(1) ptr @_ZNSt6vectorIhSaIhEEixEj(ptr noundef nonnull align 4 dereferenceable(12) %pre_data12, i32 noundef %4) #3
  %5 = load i8, ptr %call13, align 1
  %conv = zext i8 %5 to i32
  %post_data = getelementptr inbounds %struct.AddrDataTupleMorpher, ptr %data_tuple, i32 0, i32 1
  %6 = load i32, ptr %offset, align 4
  %call14 = call noundef nonnull align 1 dereferenceable(1) ptr @_ZNSt6vectorIhSaIhEEixEj(ptr noundef nonnull align 4 dereferenceable(12) %post_data, i32 noundef %6) #3
  %7 = load i8, ptr %call14, align 1
  %conv15 = zext i8 %7 to i32
  %call17 = invoke i32 (ptr, ptr, ...) @fprintf(ptr noundef %2, ptr noundef @.str.40, ptr noundef %call11, i32 noundef %3, i32 noundef %conv, i32 noundef %conv15)
          to label %invoke.cont16 unwind label %lpad8

invoke.cont16:                                    ; preds = %invoke.cont9
  br label %for.inc

for.inc:                                          ; preds = %invoke.cont16
  %8 = load i32, ptr %offset, align 4
  %inc = add nsw i32 %8, 1
  store i32 %inc, ptr %offset, align 4
  br label %for.cond5, !llvm.loop !15

lpad:                                             ; preds = %for.body
  %9 = landingpad { ptr, i32 }
          cleanup
  %10 = extractvalue { ptr, i32 } %9, 0
  store ptr %10, ptr %exn.slot, align 4
  %11 = extractvalue { ptr, i32 } %9, 1
  store i32 %11, ptr %ehselector.slot, align 4
  br label %ehcleanup

lpad8:                                            ; preds = %invoke.cont9, %for.body7
  %12 = landingpad { ptr, i32 }
          cleanup
  %13 = extractvalue { ptr, i32 } %12, 0
  store ptr %13, ptr %exn.slot, align 4
  %14 = extractvalue { ptr, i32 } %12, 1
  store i32 %14, ptr %ehselector.slot, align 4
  call void @_ZN20AddrDataTupleMorpherD2Ev(ptr noundef nonnull align 4 dereferenceable(48) %data_tuple) #3
  br label %ehcleanup

for.end:                                          ; preds = %for.cond5
  call void @_ZN20AddrDataTupleMorpherD2Ev(ptr noundef nonnull align 4 dereferenceable(48) %data_tuple) #3
  call void @_ZNSt7__cxx1112basic_stringIcSt11char_traitsIcESaIcEED1Ev(ptr noundef nonnull align 4 dereferenceable(24) %var_name) #3
  br label %for.inc18

for.inc18:                                        ; preds = %for.end
  call void @_ZNSt17_Rb_tree_iteratorISt4pairIKNSt7__cxx1112basic_stringIcSt11char_traitsIcESaIcEEE20AddrDataTupleMorpherEEppEi(ptr sret(%"struct.std::_Rb_tree_iterator.83") align 4 %tmp, ptr noundef nonnull align 4 dereferenceable(4) %it, i32 noundef 0) #3
  br label %for.cond, !llvm.loop !16

ehcleanup:                                        ; preds = %lpad8, %lpad
  call void @_ZNSt7__cxx1112basic_stringIcSt11char_traitsIcESaIcEED1Ev(ptr noundef nonnull align 4 dereferenceable(24) %var_name) #3
  br label %eh.resume

for.end19:                                        ; preds = %for.cond
  ret void

eh.resume:                                        ; preds = %ehcleanup
  %exn = load ptr, ptr %exn.slot, align 4
  %sel = load i32, ptr %ehselector.slot, align 4
  %lpad.val = insertvalue { ptr, i32 } undef, ptr %exn, 0
  %lpad.val20 = insertvalue { ptr, i32 } %lpad.val, i32 %sel, 1
  resume { ptr, i32 } %lpad.val20
}

; Function Attrs: mustprogress noinline nounwind optnone uwtable
define linkonce_odr dso_local void @_ZNSt3mapINSt7__cxx1112basic_stringIcSt11char_traitsIcESaIcEEE20AddrDataTupleMorpherSt4lessIS5_ESaISt4pairIKS5_S6_EEE5beginEv(ptr noalias sret(%"struct.std::_Rb_tree_iterator.83") align 4 %agg.result, ptr noundef nonnull align 4 dereferenceable(24) %this) #6 comdat align 2 {
entry:
  %result.ptr = alloca ptr, align 4
  %this.addr = alloca ptr, align 4
  store ptr %agg.result, ptr %result.ptr, align 4
  store ptr %this, ptr %this.addr, align 4
  %this1 = load ptr, ptr %this.addr, align 4
  %_M_t = getelementptr inbounds %"class.std::map.66", ptr %this1, i32 0, i32 0
  call void @_ZNSt8_Rb_treeINSt7__cxx1112basic_stringIcSt11char_traitsIcESaIcEEESt4pairIKS5_20AddrDataTupleMorpherESt10_Select1stIS9_ESt4lessIS5_ESaIS9_EE5beginEv(ptr sret(%"struct.std::_Rb_tree_iterator.83") align 4 %agg.result, ptr noundef nonnull align 4 dereferenceable(24) %_M_t) #3
  ret void
}

; Function Attrs: mustprogress noinline nounwind optnone uwtable
define linkonce_odr dso_local noundef zeroext i1 @_ZStneRKSt17_Rb_tree_iteratorISt4pairIKNSt7__cxx1112basic_stringIcSt11char_traitsIcESaIcEEE20AddrDataTupleMorpherEESC_(ptr noundef nonnull align 4 dereferenceable(4) %__x, ptr noundef nonnull align 4 dereferenceable(4) %__y) #6 comdat {
entry:
  %__x.addr = alloca ptr, align 4
  %__y.addr = alloca ptr, align 4
  store ptr %__x, ptr %__x.addr, align 4
  store ptr %__y, ptr %__y.addr, align 4
  %0 = load ptr, ptr %__x.addr, align 4
  %_M_node = getelementptr inbounds %"struct.std::_Rb_tree_iterator.83", ptr %0, i32 0, i32 0
  %1 = load ptr, ptr %_M_node, align 4
  %2 = load ptr, ptr %__y.addr, align 4
  %_M_node1 = getelementptr inbounds %"struct.std::_Rb_tree_iterator.83", ptr %2, i32 0, i32 0
  %3 = load ptr, ptr %_M_node1, align 4
  %cmp = icmp ne ptr %1, %3
  ret i1 %cmp
}

; Function Attrs: mustprogress noinline nounwind optnone uwtable
define linkonce_odr dso_local void @_ZNSt3mapINSt7__cxx1112basic_stringIcSt11char_traitsIcESaIcEEE20AddrDataTupleMorpherSt4lessIS5_ESaISt4pairIKS5_S6_EEE3endEv(ptr noalias sret(%"struct.std::_Rb_tree_iterator.83") align 4 %agg.result, ptr noundef nonnull align 4 dereferenceable(24) %this) #6 comdat align 2 {
entry:
  %result.ptr = alloca ptr, align 4
  %this.addr = alloca ptr, align 4
  store ptr %agg.result, ptr %result.ptr, align 4
  store ptr %this, ptr %this.addr, align 4
  %this1 = load ptr, ptr %this.addr, align 4
  %_M_t = getelementptr inbounds %"class.std::map.66", ptr %this1, i32 0, i32 0
  call void @_ZNSt8_Rb_treeINSt7__cxx1112basic_stringIcSt11char_traitsIcESaIcEEESt4pairIKS5_20AddrDataTupleMorpherESt10_Select1stIS9_ESt4lessIS5_ESaIS9_EE3endEv(ptr sret(%"struct.std::_Rb_tree_iterator.83") align 4 %agg.result, ptr noundef nonnull align 4 dereferenceable(24) %_M_t) #3
  ret void
}

; Function Attrs: mustprogress noinline nounwind optnone uwtable
define linkonce_odr dso_local noundef ptr @_ZNKSt17_Rb_tree_iteratorISt4pairIKNSt7__cxx1112basic_stringIcSt11char_traitsIcESaIcEEE20AddrDataTupleMorpherEEptEv(ptr noundef nonnull align 4 dereferenceable(4) %this) #6 comdat align 2 {
entry:
  %this.addr = alloca ptr, align 4
  store ptr %this, ptr %this.addr, align 4
  %this1 = load ptr, ptr %this.addr, align 4
  %_M_node = getelementptr inbounds %"struct.std::_Rb_tree_iterator.83", ptr %this1, i32 0, i32 0
  %0 = load ptr, ptr %_M_node, align 4
  %call = call noundef ptr @_ZNSt13_Rb_tree_nodeISt4pairIKNSt7__cxx1112basic_stringIcSt11char_traitsIcESaIcEEE20AddrDataTupleMorpherEE9_M_valptrEv(ptr noundef nonnull align 4 dereferenceable(88) %0)
  ret ptr %call
}

declare void @_ZNSt7__cxx1112basic_stringIcSt11char_traitsIcESaIcEEC1ERKS4_(ptr noundef nonnull align 4 dereferenceable(24), ptr noundef nonnull align 4 dereferenceable(24)) unnamed_addr #1

; Function Attrs: noinline optnone uwtable
define linkonce_odr dso_local void @_ZN20AddrDataTupleMorpherC2ERKS_(ptr noundef nonnull align 4 dereferenceable(48) %this, ptr noundef nonnull align 4 dereferenceable(48) %0) unnamed_addr #7 comdat align 2 personality ptr @__gxx_personality_v0 {
entry:
  %this.addr = alloca ptr, align 4
  %.addr = alloca ptr, align 4
  %exn.slot = alloca ptr, align 4
  %ehselector.slot = alloca i32, align 4
  store ptr %this, ptr %this.addr, align 4
  store ptr %0, ptr %.addr, align 4
  %this1 = load ptr, ptr %this.addr, align 4
  %pre_data = getelementptr inbounds %struct.AddrDataTupleMorpher, ptr %this1, i32 0, i32 0
  %1 = load ptr, ptr %.addr, align 4
  %pre_data2 = getelementptr inbounds %struct.AddrDataTupleMorpher, ptr %1, i32 0, i32 0
  call void @_ZNSt6vectorIhSaIhEEC2ERKS1_(ptr noundef nonnull align 4 dereferenceable(12) %pre_data, ptr noundef nonnull align 4 dereferenceable(12) %pre_data2)
  %post_data = getelementptr inbounds %struct.AddrDataTupleMorpher, ptr %this1, i32 0, i32 1
  %2 = load ptr, ptr %.addr, align 4
  %post_data3 = getelementptr inbounds %struct.AddrDataTupleMorpher, ptr %2, i32 0, i32 1
  invoke void @_ZNSt6vectorIhSaIhEEC2ERKS1_(ptr noundef nonnull align 4 dereferenceable(12) %post_data, ptr noundef nonnull align 4 dereferenceable(12) %post_data3)
          to label %invoke.cont unwind label %lpad

invoke.cont:                                      ; preds = %entry
  %name = getelementptr inbounds %struct.AddrDataTupleMorpher, ptr %this1, i32 0, i32 2
  %3 = load ptr, ptr %.addr, align 4
  %name4 = getelementptr inbounds %struct.AddrDataTupleMorpher, ptr %3, i32 0, i32 2
  invoke void @_ZNSt7__cxx1112basic_stringIcSt11char_traitsIcESaIcEEC1ERKS4_(ptr noundef nonnull align 4 dereferenceable(24) %name, ptr noundef nonnull align 4 dereferenceable(24) %name4)
          to label %invoke.cont6 unwind label %lpad5

invoke.cont6:                                     ; preds = %invoke.cont
  ret void

lpad:                                             ; preds = %entry
  %4 = landingpad { ptr, i32 }
          cleanup
  %5 = extractvalue { ptr, i32 } %4, 0
  store ptr %5, ptr %exn.slot, align 4
  %6 = extractvalue { ptr, i32 } %4, 1
  store i32 %6, ptr %ehselector.slot, align 4
  br label %ehcleanup

lpad5:                                            ; preds = %invoke.cont
  %7 = landingpad { ptr, i32 }
          cleanup
  %8 = extractvalue { ptr, i32 } %7, 0
  store ptr %8, ptr %exn.slot, align 4
  %9 = extractvalue { ptr, i32 } %7, 1
  store i32 %9, ptr %ehselector.slot, align 4
  call void @_ZNSt6vectorIhSaIhEED2Ev(ptr noundef nonnull align 4 dereferenceable(12) %post_data) #3
  br label %ehcleanup

ehcleanup:                                        ; preds = %lpad5, %lpad
  call void @_ZNSt6vectorIhSaIhEED2Ev(ptr noundef nonnull align 4 dereferenceable(12) %pre_data) #3
  br label %eh.resume

eh.resume:                                        ; preds = %ehcleanup
  %exn = load ptr, ptr %exn.slot, align 4
  %sel = load i32, ptr %ehselector.slot, align 4
  %lpad.val = insertvalue { ptr, i32 } undef, ptr %exn, 0
  %lpad.val7 = insertvalue { ptr, i32 } %lpad.val, i32 %sel, 1
  resume { ptr, i32 } %lpad.val7
}

; Function Attrs: mustprogress noinline nounwind optnone uwtable
define linkonce_odr dso_local noundef i32 @_ZNKSt6vectorIhSaIhEE4sizeEv(ptr noundef nonnull align 4 dereferenceable(12) %this) #6 comdat align 2 {
entry:
  %this.addr = alloca ptr, align 4
  store ptr %this, ptr %this.addr, align 4
  %this1 = load ptr, ptr %this.addr, align 4
  %_M_impl = getelementptr inbounds %"struct.std::_Vector_base.72", ptr %this1, i32 0, i32 0
  %_M_finish = getelementptr inbounds %"struct.std::_Vector_base<unsigned char, std::allocator<unsigned char>>::_Vector_impl_data", ptr %_M_impl, i32 0, i32 1
  %0 = load ptr, ptr %_M_finish, align 4
  %_M_impl2 = getelementptr inbounds %"struct.std::_Vector_base.72", ptr %this1, i32 0, i32 0
  %_M_start = getelementptr inbounds %"struct.std::_Vector_base<unsigned char, std::allocator<unsigned char>>::_Vector_impl_data", ptr %_M_impl2, i32 0, i32 0
  %1 = load ptr, ptr %_M_start, align 4
  %sub.ptr.lhs.cast = ptrtoint ptr %0 to i32
  %sub.ptr.rhs.cast = ptrtoint ptr %1 to i32
  %sub.ptr.sub = sub i32 %sub.ptr.lhs.cast, %sub.ptr.rhs.cast
  ret i32 %sub.ptr.sub
}

; Function Attrs: nounwind
declare noundef ptr @_ZNKSt7__cxx1112basic_stringIcSt11char_traitsIcESaIcEE5c_strEv(ptr noundef nonnull align 4 dereferenceable(24)) #2

; Function Attrs: noinline nounwind optnone uwtable
define linkonce_odr dso_local void @_ZN20AddrDataTupleMorpherD2Ev(ptr noundef nonnull align 4 dereferenceable(48) %this) unnamed_addr #4 comdat align 2 {
entry:
  %this.addr = alloca ptr, align 4
  store ptr %this, ptr %this.addr, align 4
  %this1 = load ptr, ptr %this.addr, align 4
  %name = getelementptr inbounds %struct.AddrDataTupleMorpher, ptr %this1, i32 0, i32 2
  call void @_ZNSt7__cxx1112basic_stringIcSt11char_traitsIcESaIcEED1Ev(ptr noundef nonnull align 4 dereferenceable(24) %name) #3
  %post_data = getelementptr inbounds %struct.AddrDataTupleMorpher, ptr %this1, i32 0, i32 1
  call void @_ZNSt6vectorIhSaIhEED2Ev(ptr noundef nonnull align 4 dereferenceable(12) %post_data) #3
  %pre_data = getelementptr inbounds %struct.AddrDataTupleMorpher, ptr %this1, i32 0, i32 0
  call void @_ZNSt6vectorIhSaIhEED2Ev(ptr noundef nonnull align 4 dereferenceable(12) %pre_data) #3
  ret void
}

; Function Attrs: mustprogress noinline nounwind optnone uwtable
define linkonce_odr dso_local void @_ZNSt17_Rb_tree_iteratorISt4pairIKNSt7__cxx1112basic_stringIcSt11char_traitsIcESaIcEEE20AddrDataTupleMorpherEEppEi(ptr noalias sret(%"struct.std::_Rb_tree_iterator.83") align 4 %agg.result, ptr noundef nonnull align 4 dereferenceable(4) %this, i32 noundef %0) #6 comdat align 2 {
entry:
  %result.ptr = alloca ptr, align 4
  %this.addr = alloca ptr, align 4
  %.addr = alloca i32, align 4
  store ptr %agg.result, ptr %result.ptr, align 4
  store ptr %this, ptr %this.addr, align 4
  store i32 %0, ptr %.addr, align 4
  %this1 = load ptr, ptr %this.addr, align 4
  call void @llvm.memcpy.p0.p0.i32(ptr align 4 %agg.result, ptr align 4 %this1, i32 4, i1 false)
  %_M_node = getelementptr inbounds %"struct.std::_Rb_tree_iterator.83", ptr %this1, i32 0, i32 0
  %1 = load ptr, ptr %_M_node, align 4
  %call = call noundef ptr @_ZSt18_Rb_tree_incrementPSt18_Rb_tree_node_base(ptr noundef %1) #20
  %_M_node2 = getelementptr inbounds %"struct.std::_Rb_tree_iterator.83", ptr %this1, i32 0, i32 0
  store ptr %call, ptr %_M_node2, align 4
  ret void
}

; Function Attrs: mustprogress noinline optnone uwtable
define dso_local void @loopStart(ptr noundef %loopName) #5 personality ptr @__gxx_personality_v0 {
entry:
  %loopName.addr = alloca ptr, align 4
  %ln = alloca %"class.std::__cxx11::basic_string", align 4
  %ref.tmp = alloca %"class.std::allocator.19", align 1
  %exn.slot = alloca ptr, align 4
  %ehselector.slot = alloca i32, align 4
  %ss = alloca %"class.std::__cxx11::basic_stringstream", align 4
  %ref.tmp3 = alloca %"struct.std::_Rb_tree_iterator", align 4
  %ref.tmp6 = alloca %"struct.std::_Rb_tree_iterator", align 4
  %ref.tmp21 = alloca %"class.std::__cxx11::basic_string", align 4
  store ptr %loopName, ptr %loopName.addr, align 4
  %0 = load ptr, ptr %loopName.addr, align 4
  call void @_ZNSaIcEC1Ev(ptr noundef nonnull align 1 dereferenceable(1) %ref.tmp) #3
  invoke void @_ZNSt7__cxx1112basic_stringIcSt11char_traitsIcESaIcEEC1EPKcRKS3_(ptr noundef nonnull align 4 dereferenceable(24) %ln, ptr noundef %0, ptr noundef nonnull align 1 dereferenceable(1) %ref.tmp)
          to label %invoke.cont unwind label %lpad

invoke.cont:                                      ; preds = %entry
  call void @_ZNSaIcED1Ev(ptr noundef nonnull align 1 dereferenceable(1) %ref.tmp) #3
  invoke void @_ZNSt7__cxx1118basic_stringstreamIcSt11char_traitsIcESaIcEEC1Ev(ptr noundef nonnull align 4 dereferenceable(72) %ss)
          to label %invoke.cont2 unwind label %lpad1

invoke.cont2:                                     ; preds = %invoke.cont
  call void @_ZNSt3mapINSt7__cxx1112basic_stringIcSt11char_traitsIcESaIcEEE20AddrDataTupleMorpherSt4lessIS5_ESaISt4pairIKS5_S6_EEE5clearEv(ptr noundef nonnull align 4 dereferenceable(24) @_ZL12data_morpherB5cxx11) #3
  invoke void @_ZNSt3mapINSt7__cxx1112basic_stringIcSt11char_traitsIcESaIcEEEiSt4lessIS5_ESaISt4pairIKS5_iEEE4findERS9_(ptr sret(%"struct.std::_Rb_tree_iterator") align 4 %ref.tmp3, ptr noundef nonnull align 4 dereferenceable(24) @_ZL10loopRunIdxB5cxx11, ptr noundef nonnull align 4 dereferenceable(24) %ln)
          to label %invoke.cont5 unwind label %lpad4

invoke.cont5:                                     ; preds = %invoke.cont2
  call void @_ZNSt3mapINSt7__cxx1112basic_stringIcSt11char_traitsIcESaIcEEEiSt4lessIS5_ESaISt4pairIKS5_iEEE3endEv(ptr sret(%"struct.std::_Rb_tree_iterator") align 4 %ref.tmp6, ptr noundef nonnull align 4 dereferenceable(24) @_ZL10loopRunIdxB5cxx11) #3
  %call = call noundef zeroext i1 @_ZSteqRKSt17_Rb_tree_iteratorISt4pairIKNSt7__cxx1112basic_stringIcSt11char_traitsIcESaIcEEEiEESB_(ptr noundef nonnull align 4 dereferenceable(4) %ref.tmp3, ptr noundef nonnull align 4 dereferenceable(4) %ref.tmp6) #3
  br i1 %call, label %if.then, label %if.end

if.then:                                          ; preds = %invoke.cont5
  %call8 = invoke noundef nonnull align 4 dereferenceable(4) ptr @_ZNSt3mapINSt7__cxx1112basic_stringIcSt11char_traitsIcESaIcEEEiSt4lessIS5_ESaISt4pairIKS5_iEEEixERS9_(ptr noundef nonnull align 4 dereferenceable(24) @_ZL10loopRunIdxB5cxx11, ptr noundef nonnull align 4 dereferenceable(24) %ln)
          to label %invoke.cont7 unwind label %lpad4

invoke.cont7:                                     ; preds = %if.then
  store i32 0, ptr %call8, align 4
  br label %if.end

lpad:                                             ; preds = %entry
  %1 = landingpad { ptr, i32 }
          cleanup
  %2 = extractvalue { ptr, i32 } %1, 0
  store ptr %2, ptr %exn.slot, align 4
  %3 = extractvalue { ptr, i32 } %1, 1
  store i32 %3, ptr %ehselector.slot, align 4
  call void @_ZNSaIcED1Ev(ptr noundef nonnull align 1 dereferenceable(1) %ref.tmp) #3
  br label %eh.resume

lpad1:                                            ; preds = %invoke.cont
  %4 = landingpad { ptr, i32 }
          cleanup
  %5 = extractvalue { ptr, i32 } %4, 0
  store ptr %5, ptr %exn.slot, align 4
  %6 = extractvalue { ptr, i32 } %4, 1
  store i32 %6, ptr %ehselector.slot, align 4
  br label %ehcleanup29

lpad4:                                            ; preds = %invoke.cont19, %invoke.cont17, %invoke.cont15, %invoke.cont13, %invoke.cont11, %invoke.cont9, %if.end, %if.then, %invoke.cont2
  %7 = landingpad { ptr, i32 }
          cleanup
  %8 = extractvalue { ptr, i32 } %7, 0
  store ptr %8, ptr %exn.slot, align 4
  %9 = extractvalue { ptr, i32 } %7, 1
  store i32 %9, ptr %ehselector.slot, align 4
  br label %ehcleanup

if.end:                                           ; preds = %invoke.cont7, %invoke.cont5
  %add.ptr = getelementptr inbounds i8, ptr %ss, i32 8
  %call10 = invoke noundef nonnull align 4 dereferenceable(4) ptr @_ZStlsISt11char_traitsIcEERSt13basic_ostreamIcT_ES5_PKc(ptr noundef nonnull align 4 dereferenceable(4) %add.ptr, ptr noundef @.str.41)
          to label %invoke.cont9 unwind label %lpad4

invoke.cont9:                                     ; preds = %if.end
  %10 = load ptr, ptr %loopName.addr, align 4
  %call12 = invoke noundef nonnull align 4 dereferenceable(4) ptr @_ZStlsISt11char_traitsIcEERSt13basic_ostreamIcT_ES5_PKc(ptr noundef nonnull align 4 dereferenceable(4) %call10, ptr noundef %10)
          to label %invoke.cont11 unwind label %lpad4

invoke.cont11:                                    ; preds = %invoke.cont9
  %call14 = invoke noundef nonnull align 4 dereferenceable(4) ptr @_ZStlsISt11char_traitsIcEERSt13basic_ostreamIcT_ES5_PKc(ptr noundef nonnull align 4 dereferenceable(4) %call12, ptr noundef @.str.42)
          to label %invoke.cont13 unwind label %lpad4

invoke.cont13:                                    ; preds = %invoke.cont11
  %call16 = invoke noundef nonnull align 4 dereferenceable(4) ptr @_ZNSt3mapINSt7__cxx1112basic_stringIcSt11char_traitsIcESaIcEEEiSt4lessIS5_ESaISt4pairIKS5_iEEEixERS9_(ptr noundef nonnull align 4 dereferenceable(24) @_ZL10loopRunIdxB5cxx11, ptr noundef nonnull align 4 dereferenceable(24) %ln)
          to label %invoke.cont15 unwind label %lpad4

invoke.cont15:                                    ; preds = %invoke.cont13
  %11 = load i32, ptr %call16, align 4
  %call18 = invoke noundef nonnull align 4 dereferenceable(4) ptr @_ZNSolsEi(ptr noundef nonnull align 4 dereferenceable(4) %call14, i32 noundef %11)
          to label %invoke.cont17 unwind label %lpad4

invoke.cont17:                                    ; preds = %invoke.cont15
  %call20 = invoke noundef nonnull align 4 dereferenceable(4) ptr @_ZStlsISt11char_traitsIcEERSt13basic_ostreamIcT_ES5_PKc(ptr noundef nonnull align 4 dereferenceable(4) %call18, ptr noundef @.str.43)
          to label %invoke.cont19 unwind label %lpad4

invoke.cont19:                                    ; preds = %invoke.cont17
  invoke void @_ZNKSt7__cxx1118basic_stringstreamIcSt11char_traitsIcESaIcEE3strEv(ptr sret(%"class.std::__cxx11::basic_string") align 4 %ref.tmp21, ptr noundef nonnull align 4 dereferenceable(72) %ss)
          to label %invoke.cont22 unwind label %lpad4

invoke.cont22:                                    ; preds = %invoke.cont19
  %call23 = call noundef ptr @_ZNKSt7__cxx1112basic_stringIcSt11char_traitsIcESaIcEE5c_strEv(ptr noundef nonnull align 4 dereferenceable(24) %ref.tmp21) #3
  %call26 = invoke ptr @fopen(ptr noundef %call23, ptr noundef @.str.44)
          to label %invoke.cont25 unwind label %lpad24

invoke.cont25:                                    ; preds = %invoke.cont22
  %call28 = invoke noundef nonnull align 4 dereferenceable(4) ptr @_ZNSt3mapINSt7__cxx1112basic_stringIcSt11char_traitsIcESaIcEEEP8_IO_FILESt4lessIS5_ESaISt4pairIKS5_S7_EEEixERSB_(ptr noundef nonnull align 4 dereferenceable(24) @_ZL12currentFilesB5cxx11, ptr noundef nonnull align 4 dereferenceable(24) %ln)
          to label %invoke.cont27 unwind label %lpad24

invoke.cont27:                                    ; preds = %invoke.cont25
  store ptr %call26, ptr %call28, align 4
  %tobool = icmp ne ptr %call26, null
  br i1 %tobool, label %cond.true, label %cond.false

cond.true:                                        ; preds = %invoke.cont27
  br label %cond.end

cond.false:                                       ; preds = %invoke.cont27
  call void @__assert_fail(ptr noundef @.str.45, ptr noundef @.str.46, i32 noundef 259, ptr noundef @__PRETTY_FUNCTION__.loopStart) #19
  unreachable

lpad24:                                           ; preds = %invoke.cont25, %invoke.cont22
  %12 = landingpad { ptr, i32 }
          cleanup
  %13 = extractvalue { ptr, i32 } %12, 0
  store ptr %13, ptr %exn.slot, align 4
  %14 = extractvalue { ptr, i32 } %12, 1
  store i32 %14, ptr %ehselector.slot, align 4
  call void @_ZNSt7__cxx1112basic_stringIcSt11char_traitsIcESaIcEED1Ev(ptr noundef nonnull align 4 dereferenceable(24) %ref.tmp21) #3
  br label %ehcleanup

15:                                               ; No predecessors!
  br label %cond.end

cond.end:                                         ; preds = %15, %cond.true
  call void @_ZNSt7__cxx1112basic_stringIcSt11char_traitsIcESaIcEED1Ev(ptr noundef nonnull align 4 dereferenceable(24) %ref.tmp21) #3
  call void @_ZNSt7__cxx1118basic_stringstreamIcSt11char_traitsIcESaIcEED1Ev(ptr noundef nonnull align 4 dereferenceable(72) %ss) #3
  call void @_ZNSt7__cxx1112basic_stringIcSt11char_traitsIcESaIcEED1Ev(ptr noundef nonnull align 4 dereferenceable(24) %ln) #3
  ret void

ehcleanup:                                        ; preds = %lpad24, %lpad4
  call void @_ZNSt7__cxx1118basic_stringstreamIcSt11char_traitsIcESaIcEED1Ev(ptr noundef nonnull align 4 dereferenceable(72) %ss) #3
  br label %ehcleanup29

ehcleanup29:                                      ; preds = %ehcleanup, %lpad1
  call void @_ZNSt7__cxx1112basic_stringIcSt11char_traitsIcESaIcEED1Ev(ptr noundef nonnull align 4 dereferenceable(24) %ln) #3
  br label %eh.resume

eh.resume:                                        ; preds = %ehcleanup29, %lpad
  %exn = load ptr, ptr %exn.slot, align 4
  %sel = load i32, ptr %ehselector.slot, align 4
  %lpad.val = insertvalue { ptr, i32 } undef, ptr %exn, 0
  %lpad.val30 = insertvalue { ptr, i32 } %lpad.val, i32 %sel, 1
  resume { ptr, i32 } %lpad.val30
}

; Function Attrs: mustprogress noinline nounwind optnone uwtable
define linkonce_odr dso_local void @_ZNSt3mapINSt7__cxx1112basic_stringIcSt11char_traitsIcESaIcEEE20AddrDataTupleMorpherSt4lessIS5_ESaISt4pairIKS5_S6_EEE5clearEv(ptr noundef nonnull align 4 dereferenceable(24) %this) #6 comdat align 2 {
entry:
  %this.addr = alloca ptr, align 4
  store ptr %this, ptr %this.addr, align 4
  %this1 = load ptr, ptr %this.addr, align 4
  %_M_t = getelementptr inbounds %"class.std::map.66", ptr %this1, i32 0, i32 0
  call void @_ZNSt8_Rb_treeINSt7__cxx1112basic_stringIcSt11char_traitsIcESaIcEEESt4pairIKS5_20AddrDataTupleMorpherESt10_Select1stIS9_ESt4lessIS5_ESaIS9_EE5clearEv(ptr noundef nonnull align 4 dereferenceable(24) %_M_t) #3
  ret void
}

; Function Attrs: mustprogress noinline nounwind optnone uwtable
define linkonce_odr dso_local noundef zeroext i1 @_ZSteqRKSt17_Rb_tree_iteratorISt4pairIKNSt7__cxx1112basic_stringIcSt11char_traitsIcESaIcEEEiEESB_(ptr noundef nonnull align 4 dereferenceable(4) %__x, ptr noundef nonnull align 4 dereferenceable(4) %__y) #6 comdat {
entry:
  %__x.addr = alloca ptr, align 4
  %__y.addr = alloca ptr, align 4
  store ptr %__x, ptr %__x.addr, align 4
  store ptr %__y, ptr %__y.addr, align 4
  %0 = load ptr, ptr %__x.addr, align 4
  %_M_node = getelementptr inbounds %"struct.std::_Rb_tree_iterator", ptr %0, i32 0, i32 0
  %1 = load ptr, ptr %_M_node, align 4
  %2 = load ptr, ptr %__y.addr, align 4
  %_M_node1 = getelementptr inbounds %"struct.std::_Rb_tree_iterator", ptr %2, i32 0, i32 0
  %3 = load ptr, ptr %_M_node1, align 4
  %cmp = icmp eq ptr %1, %3
  ret i1 %cmp
}

declare ptr @fopen(ptr noundef, ptr noundef) #1

; Function Attrs: noreturn nounwind
declare void @__assert_fail(ptr noundef, ptr noundef, i32 noundef, ptr noundef) #9

; Function Attrs: mustprogress noinline optnone uwtable
define dso_local void @loopEnd(ptr noundef %loopName) #5 personality ptr @__gxx_personality_v0 {
entry:
  %loopName.addr = alloca ptr, align 4
  %ln = alloca %"class.std::__cxx11::basic_string", align 4
  %ref.tmp = alloca %"class.std::allocator.19", align 1
  %exn.slot = alloca ptr, align 4
  %ehselector.slot = alloca i32, align 4
  %agg.tmp = alloca %"class.std::__cxx11::basic_string", align 4
  store ptr %loopName, ptr %loopName.addr, align 4
  %0 = load ptr, ptr %loopName.addr, align 4
  call void @_ZNSaIcEC1Ev(ptr noundef nonnull align 1 dereferenceable(1) %ref.tmp) #3
  invoke void @_ZNSt7__cxx1112basic_stringIcSt11char_traitsIcESaIcEEC1EPKcRKS3_(ptr noundef nonnull align 4 dereferenceable(24) %ln, ptr noundef %0, ptr noundef nonnull align 1 dereferenceable(1) %ref.tmp)
          to label %invoke.cont unwind label %lpad

invoke.cont:                                      ; preds = %entry
  call void @_ZNSaIcED1Ev(ptr noundef nonnull align 1 dereferenceable(1) %ref.tmp) #3
  invoke void @_ZNSt7__cxx1112basic_stringIcSt11char_traitsIcESaIcEEC1ERKS4_(ptr noundef nonnull align 4 dereferenceable(24) %agg.tmp, ptr noundef nonnull align 4 dereferenceable(24) %ln)
          to label %invoke.cont2 unwind label %lpad1

invoke.cont2:                                     ; preds = %invoke.cont
  invoke void @_Z16PrintDataMorpherNSt7__cxx1112basic_stringIcSt11char_traitsIcESaIcEEE(ptr noundef %agg.tmp)
          to label %invoke.cont4 unwind label %lpad3

invoke.cont4:                                     ; preds = %invoke.cont2
  call void @_ZNSt7__cxx1112basic_stringIcSt11char_traitsIcESaIcEED1Ev(ptr noundef nonnull align 4 dereferenceable(24) %agg.tmp) #3
  %call = invoke noundef nonnull align 4 dereferenceable(4) ptr @_ZNSt3mapINSt7__cxx1112basic_stringIcSt11char_traitsIcESaIcEEEP8_IO_FILESt4lessIS5_ESaISt4pairIKS5_S7_EEEixERSB_(ptr noundef nonnull align 4 dereferenceable(24) @_ZL12currentFilesB5cxx11, ptr noundef nonnull align 4 dereferenceable(24) %ln)
          to label %invoke.cont5 unwind label %lpad1

invoke.cont5:                                     ; preds = %invoke.cont4
  %1 = load ptr, ptr %call, align 4
  %call7 = invoke i32 @fclose(ptr noundef %1)
          to label %invoke.cont6 unwind label %lpad1

invoke.cont6:                                     ; preds = %invoke.cont5
  %call9 = invoke noundef nonnull align 4 dereferenceable(4) ptr @_ZNSt3mapINSt7__cxx1112basic_stringIcSt11char_traitsIcESaIcEEEiSt4lessIS5_ESaISt4pairIKS5_iEEEixERS9_(ptr noundef nonnull align 4 dereferenceable(24) @_ZL10loopRunIdxB5cxx11, ptr noundef nonnull align 4 dereferenceable(24) %ln)
          to label %invoke.cont8 unwind label %lpad1

invoke.cont8:                                     ; preds = %invoke.cont6
  %2 = load i32, ptr %call9, align 4
  %inc = add nsw i32 %2, 1
  store i32 %inc, ptr %call9, align 4
  call void @_ZNSt7__cxx1112basic_stringIcSt11char_traitsIcESaIcEED1Ev(ptr noundef nonnull align 4 dereferenceable(24) %ln) #3
  ret void

lpad:                                             ; preds = %entry
  %3 = landingpad { ptr, i32 }
          cleanup
  %4 = extractvalue { ptr, i32 } %3, 0
  store ptr %4, ptr %exn.slot, align 4
  %5 = extractvalue { ptr, i32 } %3, 1
  store i32 %5, ptr %ehselector.slot, align 4
  call void @_ZNSaIcED1Ev(ptr noundef nonnull align 1 dereferenceable(1) %ref.tmp) #3
  br label %eh.resume

lpad1:                                            ; preds = %invoke.cont6, %invoke.cont5, %invoke.cont4, %invoke.cont
  %6 = landingpad { ptr, i32 }
          cleanup
  %7 = extractvalue { ptr, i32 } %6, 0
  store ptr %7, ptr %exn.slot, align 4
  %8 = extractvalue { ptr, i32 } %6, 1
  store i32 %8, ptr %ehselector.slot, align 4
  br label %ehcleanup

lpad3:                                            ; preds = %invoke.cont2
  %9 = landingpad { ptr, i32 }
          cleanup
  %10 = extractvalue { ptr, i32 } %9, 0
  store ptr %10, ptr %exn.slot, align 4
  %11 = extractvalue { ptr, i32 } %9, 1
  store i32 %11, ptr %ehselector.slot, align 4
  call void @_ZNSt7__cxx1112basic_stringIcSt11char_traitsIcESaIcEED1Ev(ptr noundef nonnull align 4 dereferenceable(24) %agg.tmp) #3
  br label %ehcleanup

ehcleanup:                                        ; preds = %lpad3, %lpad1
  call void @_ZNSt7__cxx1112basic_stringIcSt11char_traitsIcESaIcEED1Ev(ptr noundef nonnull align 4 dereferenceable(24) %ln) #3
  br label %eh.resume

eh.resume:                                        ; preds = %ehcleanup, %lpad
  %exn = load ptr, ptr %exn.slot, align 4
  %sel = load i32, ptr %ehselector.slot, align 4
  %lpad.val = insertvalue { ptr, i32 } undef, ptr %exn, 0
  %lpad.val10 = insertvalue { ptr, i32 } %lpad.val, i32 %sel, 1
  resume { ptr, i32 } %lpad.val10
}

declare i32 @fclose(ptr noundef) #1

; Function Attrs: mustprogress noinline optnone uwtable
define dso_local void @loopTraceOpen(ptr noundef %fnName) #5 personality ptr @__gxx_personality_v0 {
entry:
  %fnName.addr = alloca ptr, align 4
  %fnNameStr = alloca %"class.std::__cxx11::basic_string", align 4
  %ref.tmp = alloca %"class.std::allocator.19", align 1
  %exn.slot = alloca ptr, align 4
  %ehselector.slot = alloca i32, align 4
  %ref.tmp3 = alloca %"class.std::__cxx11::basic_string", align 4
  %MUnitInvTraceFileName = alloca %"class.std::__cxx11::basic_string", align 4
  store ptr %fnName, ptr %fnName.addr, align 4
  %0 = load ptr, ptr %fnName.addr, align 4
  call void @_ZNSaIcEC1Ev(ptr noundef nonnull align 1 dereferenceable(1) %ref.tmp) #3
  invoke void @_ZNSt7__cxx1112basic_stringIcSt11char_traitsIcESaIcEEC1EPKcRKS3_(ptr noundef nonnull align 4 dereferenceable(24) %fnNameStr, ptr noundef %0, ptr noundef nonnull align 1 dereferenceable(1) %ref.tmp)
          to label %invoke.cont unwind label %lpad

invoke.cont:                                      ; preds = %entry
  call void @_ZNSaIcED1Ev(ptr noundef nonnull align 1 dereferenceable(1) %ref.tmp) #3
  %call = invoke noundef nonnull align 4 dereferenceable(24) ptr @_ZNSt7__cxx1112basic_stringIcSt11char_traitsIcESaIcEEaSERKS4_(ptr noundef nonnull align 4 dereferenceable(24) @_ZL10currFnNameB5cxx11, ptr noundef nonnull align 4 dereferenceable(24) %fnNameStr)
          to label %invoke.cont2 unwind label %lpad1

invoke.cont2:                                     ; preds = %invoke.cont
  invoke void @_ZStplIcSt11char_traitsIcESaIcEENSt7__cxx1112basic_stringIT_T0_T1_EERKS8_PKS5_(ptr sret(%"class.std::__cxx11::basic_string") align 4 %ref.tmp3, ptr noundef nonnull align 4 dereferenceable(24) %fnNameStr, ptr noundef @.str.47)
          to label %invoke.cont4 unwind label %lpad1

invoke.cont4:                                     ; preds = %invoke.cont2
  %call5 = call noundef nonnull align 4 dereferenceable(24) ptr @_ZNSt7__cxx1112basic_stringIcSt11char_traitsIcESaIcEEaSEOS4_(ptr noundef nonnull align 4 dereferenceable(24) %fnNameStr, ptr noundef nonnull align 4 dereferenceable(24) %ref.tmp3) #3
  call void @_ZNSt7__cxx1112basic_stringIcSt11char_traitsIcESaIcEED1Ev(ptr noundef nonnull align 4 dereferenceable(24) %ref.tmp3) #3
  %call6 = call noundef ptr @_ZNKSt7__cxx1112basic_stringIcSt11char_traitsIcESaIcEE5c_strEv(ptr noundef nonnull align 4 dereferenceable(24) %fnNameStr) #3
  %call8 = invoke ptr @fopen(ptr noundef %call6, ptr noundef @.str.48)
          to label %invoke.cont7 unwind label %lpad1

invoke.cont7:                                     ; preds = %invoke.cont4
  store ptr %call8, ptr @_ZL16loopInvTraceFile, align 4
  %1 = load ptr, ptr @_ZL16loopInvTraceFile, align 4
  %cmp = icmp ne ptr %1, null
  br i1 %cmp, label %cond.true, label %cond.false

cond.true:                                        ; preds = %invoke.cont7
  br label %cond.end

cond.false:                                       ; preds = %invoke.cont7
  call void @__assert_fail(ptr noundef @.str.49, ptr noundef @.str.46, i32 noundef 276, ptr noundef @__PRETTY_FUNCTION__.loopTraceOpen) #19
  unreachable

lpad:                                             ; preds = %entry
  %2 = landingpad { ptr, i32 }
          cleanup
  %3 = extractvalue { ptr, i32 } %2, 0
  store ptr %3, ptr %exn.slot, align 4
  %4 = extractvalue { ptr, i32 } %2, 1
  store i32 %4, ptr %ehselector.slot, align 4
  call void @_ZNSaIcED1Ev(ptr noundef nonnull align 1 dereferenceable(1) %ref.tmp) #3
  br label %eh.resume

lpad1:                                            ; preds = %cond.end, %invoke.cont4, %invoke.cont2, %invoke.cont
  %5 = landingpad { ptr, i32 }
          cleanup
  %6 = extractvalue { ptr, i32 } %5, 0
  store ptr %6, ptr %exn.slot, align 4
  %7 = extractvalue { ptr, i32 } %5, 1
  store i32 %7, ptr %ehselector.slot, align 4
  br label %ehcleanup

8:                                                ; No predecessors!
  br label %cond.end

cond.end:                                         ; preds = %8, %cond.true
  invoke void @_ZStplIcSt11char_traitsIcESaIcEENSt7__cxx1112basic_stringIT_T0_T1_EERKS8_PKS5_(ptr sret(%"class.std::__cxx11::basic_string") align 4 %MUnitInvTraceFileName, ptr noundef nonnull align 4 dereferenceable(24) @_ZL10currFnNameB5cxx11, ptr noundef @.str.50)
          to label %invoke.cont9 unwind label %lpad1

invoke.cont9:                                     ; preds = %cond.end
  %call10 = call noundef ptr @_ZNKSt7__cxx1112basic_stringIcSt11char_traitsIcESaIcEE5c_strEv(ptr noundef nonnull align 4 dereferenceable(24) %MUnitInvTraceFileName) #3
  %call13 = invoke ptr @fopen(ptr noundef %call10, ptr noundef @.str.48)
          to label %invoke.cont12 unwind label %lpad11

invoke.cont12:                                    ; preds = %invoke.cont9
  store ptr %call13, ptr @_ZL17MUnitInvTraceFile, align 4
  %9 = load ptr, ptr @_ZL17MUnitInvTraceFile, align 4
  %10 = load ptr, ptr %fnName.addr, align 4
  %call15 = invoke i32 (ptr, ptr, ...) @fprintf(ptr noundef %9, ptr noundef @.str.51, ptr noundef %10)
          to label %invoke.cont14 unwind label %lpad11

invoke.cont14:                                    ; preds = %invoke.cont12
  %11 = load ptr, ptr @_ZL16loopInvTraceFile, align 4
  %12 = load ptr, ptr %fnName.addr, align 4
  %call17 = invoke i32 (ptr, ptr, ...) @fprintf(ptr noundef %11, ptr noundef @.str.51, ptr noundef %12)
          to label %invoke.cont16 unwind label %lpad11

invoke.cont16:                                    ; preds = %invoke.cont14
  call void @_ZNSt7__cxx1112basic_stringIcSt11char_traitsIcESaIcEED1Ev(ptr noundef nonnull align 4 dereferenceable(24) %MUnitInvTraceFileName) #3
  call void @_ZNSt7__cxx1112basic_stringIcSt11char_traitsIcESaIcEED1Ev(ptr noundef nonnull align 4 dereferenceable(24) %fnNameStr) #3
  ret void

lpad11:                                           ; preds = %invoke.cont14, %invoke.cont12, %invoke.cont9
  %13 = landingpad { ptr, i32 }
          cleanup
  %14 = extractvalue { ptr, i32 } %13, 0
  store ptr %14, ptr %exn.slot, align 4
  %15 = extractvalue { ptr, i32 } %13, 1
  store i32 %15, ptr %ehselector.slot, align 4
  call void @_ZNSt7__cxx1112basic_stringIcSt11char_traitsIcESaIcEED1Ev(ptr noundef nonnull align 4 dereferenceable(24) %MUnitInvTraceFileName) #3
  br label %ehcleanup

ehcleanup:                                        ; preds = %lpad11, %lpad1
  call void @_ZNSt7__cxx1112basic_stringIcSt11char_traitsIcESaIcEED1Ev(ptr noundef nonnull align 4 dereferenceable(24) %fnNameStr) #3
  br label %eh.resume

eh.resume:                                        ; preds = %ehcleanup, %lpad
  %exn = load ptr, ptr %exn.slot, align 4
  %sel = load i32, ptr %ehselector.slot, align 4
  %lpad.val = insertvalue { ptr, i32 } undef, ptr %exn, 0
  %lpad.val18 = insertvalue { ptr, i32 } %lpad.val, i32 %sel, 1
  resume { ptr, i32 } %lpad.val18
}

; Function Attrs: mustprogress noinline optnone uwtable
define linkonce_odr dso_local void @_ZStplIcSt11char_traitsIcESaIcEENSt7__cxx1112basic_stringIT_T0_T1_EERKS8_PKS5_(ptr noalias sret(%"class.std::__cxx11::basic_string") align 4 %agg.result, ptr noundef nonnull align 4 dereferenceable(24) %__lhs, ptr noundef %__rhs) #5 comdat personality ptr @__gxx_personality_v0 {
entry:
  %result.ptr = alloca ptr, align 4
  %__lhs.addr = alloca ptr, align 4
  %__rhs.addr = alloca ptr, align 4
  %nrvo = alloca i1, align 1
  %exn.slot = alloca ptr, align 4
  %ehselector.slot = alloca i32, align 4
  store ptr %agg.result, ptr %result.ptr, align 4
  store ptr %__lhs, ptr %__lhs.addr, align 4
  store ptr %__rhs, ptr %__rhs.addr, align 4
  store i1 false, ptr %nrvo, align 1
  %0 = load ptr, ptr %__lhs.addr, align 4
  call void @_ZNSt7__cxx1112basic_stringIcSt11char_traitsIcESaIcEEC1ERKS4_(ptr noundef nonnull align 4 dereferenceable(24) %agg.result, ptr noundef nonnull align 4 dereferenceable(24) %0)
  %1 = load ptr, ptr %__rhs.addr, align 4
  %call = invoke noundef nonnull align 4 dereferenceable(24) ptr @_ZNSt7__cxx1112basic_stringIcSt11char_traitsIcESaIcEE6appendEPKc(ptr noundef nonnull align 4 dereferenceable(24) %agg.result, ptr noundef %1)
          to label %invoke.cont unwind label %lpad

invoke.cont:                                      ; preds = %entry
  store i1 true, ptr %nrvo, align 1
  %nrvo.val = load i1, ptr %nrvo, align 1
  br i1 %nrvo.val, label %nrvo.skipdtor, label %nrvo.unused

lpad:                                             ; preds = %entry
  %2 = landingpad { ptr, i32 }
          cleanup
  %3 = extractvalue { ptr, i32 } %2, 0
  store ptr %3, ptr %exn.slot, align 4
  %4 = extractvalue { ptr, i32 } %2, 1
  store i32 %4, ptr %ehselector.slot, align 4
  call void @_ZNSt7__cxx1112basic_stringIcSt11char_traitsIcESaIcEED1Ev(ptr noundef nonnull align 4 dereferenceable(24) %agg.result) #3
  br label %eh.resume

nrvo.unused:                                      ; preds = %invoke.cont
  call void @_ZNSt7__cxx1112basic_stringIcSt11char_traitsIcESaIcEED1Ev(ptr noundef nonnull align 4 dereferenceable(24) %agg.result) #3
  br label %nrvo.skipdtor

nrvo.skipdtor:                                    ; preds = %nrvo.unused, %invoke.cont
  ret void

eh.resume:                                        ; preds = %lpad
  %exn = load ptr, ptr %exn.slot, align 4
  %sel = load i32, ptr %ehselector.slot, align 4
  %lpad.val = insertvalue { ptr, i32 } undef, ptr %exn, 0
  %lpad.val1 = insertvalue { ptr, i32 } %lpad.val, i32 %sel, 1
  resume { ptr, i32 } %lpad.val1
}

; Function Attrs: mustprogress noinline optnone uwtable
define dso_local void @loopTraceClose() #5 personality ptr @__gxx_personality_v0 {
entry:
  %looptraceinfoFile = alloca ptr, align 4
  %looptraceinfoFileName = alloca %"class.std::__cxx11::basic_string", align 4
  %exn.slot = alloca ptr, align 4
  %ehselector.slot = alloca i32, align 4
  %__range1 = alloca ptr, align 4
  %__begin1 = alloca %"struct.std::_Rb_tree_iterator", align 4
  %__end1 = alloca %"struct.std::_Rb_tree_iterator", align 4
  %pair = alloca %"struct.std::pair.87", align 4
  %__range116 = alloca ptr, align 4
  %__begin117 = alloca %"struct.std::_Rb_tree_iterator.90", align 4
  %__end118 = alloca %"struct.std::_Rb_tree_iterator.90", align 4
  %pair22 = alloca %"struct.std::pair.91", align 4
  %loopName = alloca %"class.std::__cxx11::basic_string", align 4
  %BBInvCount = alloca i32, align 4
  %__range2 = alloca ptr, align 4
  %__begin2 = alloca %"struct.std::_Rb_tree_const_iterator", align 4
  %__end2 = alloca %"struct.std::_Rb_tree_const_iterator", align 4
  %BBName = alloca %"class.std::__cxx11::basic_string", align 4
  %maxInvBB = alloca i32, align 4
  %__range247 = alloca ptr, align 4
  %__begin249 = alloca %"struct.std::_Rb_tree_const_iterator", align 4
  %__end250 = alloca %"struct.std::_Rb_tree_const_iterator", align 4
  %BBName54 = alloca %"class.std::__cxx11::basic_string", align 4
  %BBInvCountFloat = alloca float, align 4
  %BBInsCountFloat = alloca float, align 4
  %estimatedIterations = alloca i32, align 4
  %avgLpInstructions = alloca float, align 4
  %__range277 = alloca ptr, align 4
  %__begin279 = alloca %"struct.std::_Rb_tree_const_iterator", align 4
  %__end280 = alloca %"struct.std::_Rb_tree_const_iterator", align 4
  %BBName84 = alloca %"class.std::__cxx11::basic_string", align 4
  %invWeight = alloca float, align 4
  %preHeaderBBName = alloca %"class.std::__cxx11::basic_string", align 4
  %__range1117 = alloca ptr, align 4
  %__begin1118 = alloca %"struct.std::_Rb_tree_iterator.90", align 4
  %__end1119 = alloca %"struct.std::_Rb_tree_iterator.90", align 4
  %pair123 = alloca %"struct.std::pair.91", align 4
  %loopName126 = alloca %"class.std::__cxx11::basic_string", align 4
  %__range1147 = alloca ptr, align 4
  %__begin1148 = alloca %"struct.std::_Rb_tree_iterator.90", align 4
  %__end1149 = alloca %"struct.std::_Rb_tree_iterator.90", align 4
  %pair153 = alloca %"struct.std::pair.91", align 4
  %__range2156 = alloca ptr, align 4
  %__begin2158 = alloca %"struct.std::_Rb_tree_const_iterator", align 4
  %__end2159 = alloca %"struct.std::_Rb_tree_const_iterator", align 4
  %BBName163 = alloca %"class.std::__cxx11::basic_string", align 4
  %__range1186 = alloca ptr, align 4
  %__begin1187 = alloca %"struct.std::_Rb_tree_iterator.97", align 4
  %__end1188 = alloca %"struct.std::_Rb_tree_iterator.97", align 4
  %pair1 = alloca %"struct.std::pair.98", align 4
  %__range2194 = alloca ptr, align 4
  %__begin2196 = alloca %"struct.std::_Rb_tree_iterator", align 4
  %__end2197 = alloca %"struct.std::_Rb_tree_iterator", align 4
  %pair2 = alloca %"struct.std::pair.87", align 4
  call void @_ZStplIcSt11char_traitsIcESaIcEENSt7__cxx1112basic_stringIT_T0_T1_EERKS8_PKS5_(ptr sret(%"class.std::__cxx11::basic_string") align 4 %looptraceinfoFileName, ptr noundef nonnull align 4 dereferenceable(24) @_ZL10currFnNameB5cxx11, ptr noundef @.str.52)
  %call = call noundef ptr @_ZNKSt7__cxx1112basic_stringIcSt11char_traitsIcESaIcEE5c_strEv(ptr noundef nonnull align 4 dereferenceable(24) %looptraceinfoFileName) #3
  %call1 = invoke ptr @fopen(ptr noundef %call, ptr noundef @.str.48)
          to label %invoke.cont unwind label %lpad

invoke.cont:                                      ; preds = %entry
  store ptr %call1, ptr %looptraceinfoFile, align 4
  %0 = load ptr, ptr %looptraceinfoFile, align 4
  %call3 = invoke i32 (ptr, ptr, ...) @fprintf(ptr noundef %0, ptr noundef @.str.53)
          to label %invoke.cont2 unwind label %lpad

invoke.cont2:                                     ; preds = %invoke.cont
  store ptr @_ZL10BBInsCountB5cxx11, ptr %__range1, align 4
  call void @_ZNSt3mapINSt7__cxx1112basic_stringIcSt11char_traitsIcESaIcEEEiSt4lessIS5_ESaISt4pairIKS5_iEEE5beginEv(ptr sret(%"struct.std::_Rb_tree_iterator") align 4 %__begin1, ptr noundef nonnull align 4 dereferenceable(24) @_ZL10BBInsCountB5cxx11) #3
  call void @_ZNSt3mapINSt7__cxx1112basic_stringIcSt11char_traitsIcESaIcEEEiSt4lessIS5_ESaISt4pairIKS5_iEEE3endEv(ptr sret(%"struct.std::_Rb_tree_iterator") align 4 %__end1, ptr noundef nonnull align 4 dereferenceable(24) @_ZL10BBInsCountB5cxx11) #3
  br label %for.cond

for.cond:                                         ; preds = %for.inc, %invoke.cont2
  %call4 = call noundef zeroext i1 @_ZStneRKSt17_Rb_tree_iteratorISt4pairIKNSt7__cxx1112basic_stringIcSt11char_traitsIcESaIcEEEiEESB_(ptr noundef nonnull align 4 dereferenceable(4) %__begin1, ptr noundef nonnull align 4 dereferenceable(4) %__end1) #3
  br i1 %call4, label %for.body, label %for.end

for.body:                                         ; preds = %for.cond
  %call5 = call noundef nonnull align 4 dereferenceable(28) ptr @_ZNKSt17_Rb_tree_iteratorISt4pairIKNSt7__cxx1112basic_stringIcSt11char_traitsIcESaIcEEEiEEdeEv(ptr noundef nonnull align 4 dereferenceable(4) %__begin1) #3
  invoke void @_ZNSt4pairINSt7__cxx1112basic_stringIcSt11char_traitsIcESaIcEEEiEC2IKS5_iLb1EEERKS_IT_T0_E(ptr noundef nonnull align 4 dereferenceable(28) %pair, ptr noundef nonnull align 4 dereferenceable(28) %call5)
          to label %invoke.cont6 unwind label %lpad

invoke.cont6:                                     ; preds = %for.body
  %1 = load ptr, ptr %looptraceinfoFile, align 4
  %first = getelementptr inbounds %"struct.std::pair.87", ptr %pair, i32 0, i32 0
  %call7 = call noundef ptr @_ZNKSt7__cxx1112basic_stringIcSt11char_traitsIcESaIcEE5c_strEv(ptr noundef nonnull align 4 dereferenceable(24) %first) #3
  %second = getelementptr inbounds %"struct.std::pair.87", ptr %pair, i32 0, i32 1
  %2 = load i32, ptr %second, align 4
  %call10 = invoke i32 (ptr, ptr, ...) @fprintf(ptr noundef %1, ptr noundef @.str.54, ptr noundef %call7, i32 noundef %2)
          to label %invoke.cont9 unwind label %lpad8

invoke.cont9:                                     ; preds = %invoke.cont6
  call void @_ZNSt4pairINSt7__cxx1112basic_stringIcSt11char_traitsIcESaIcEEEiED2Ev(ptr noundef nonnull align 4 dereferenceable(28) %pair) #3
  br label %for.inc

for.inc:                                          ; preds = %invoke.cont9
  %call11 = call noundef nonnull align 4 dereferenceable(4) ptr @_ZNSt17_Rb_tree_iteratorISt4pairIKNSt7__cxx1112basic_stringIcSt11char_traitsIcESaIcEEEiEEppEv(ptr noundef nonnull align 4 dereferenceable(4) %__begin1) #3
  br label %for.cond

lpad:                                             ; preds = %invoke.cont230, %invoke.cont228, %invoke.cont226, %invoke.cont224, %invoke.cont222, %invoke.cont220, %for.end219, %for.body191, %for.body152, %invoke.cont143, %for.end142, %for.body122, %for.end114, %for.body21, %invoke.cont12, %for.end, %for.body, %invoke.cont, %entry
  %3 = landingpad { ptr, i32 }
          cleanup
  %4 = extractvalue { ptr, i32 } %3, 0
  store ptr %4, ptr %exn.slot, align 4
  %5 = extractvalue { ptr, i32 } %3, 1
  store i32 %5, ptr %ehselector.slot, align 4
  br label %ehcleanup234

lpad8:                                            ; preds = %invoke.cont6
  %6 = landingpad { ptr, i32 }
          cleanup
  %7 = extractvalue { ptr, i32 } %6, 0
  store ptr %7, ptr %exn.slot, align 4
  %8 = extractvalue { ptr, i32 } %6, 1
  store i32 %8, ptr %ehselector.slot, align 4
  call void @_ZNSt4pairINSt7__cxx1112basic_stringIcSt11char_traitsIcESaIcEEEiED2Ev(ptr noundef nonnull align 4 dereferenceable(28) %pair) #3
  br label %ehcleanup234

for.end:                                          ; preds = %for.cond
  %9 = load ptr, ptr %looptraceinfoFile, align 4
  %call13 = invoke i32 (ptr, ptr, ...) @fprintf(ptr noundef %9, ptr noundef @.str.55)
          to label %invoke.cont12 unwind label %lpad

invoke.cont12:                                    ; preds = %for.end
  %10 = load ptr, ptr %looptraceinfoFile, align 4
  %call15 = invoke i32 (ptr, ptr, ...) @fprintf(ptr noundef %10, ptr noundef @.str.56)
          to label %invoke.cont14 unwind label %lpad

invoke.cont14:                                    ; preds = %invoke.cont12
  store ptr @_ZL15loopBasicBlocksB5cxx11, ptr %__range116, align 4
  call void @_ZNSt3mapINSt7__cxx1112basic_stringIcSt11char_traitsIcESaIcEEESt3setIS5_St4lessIS5_ESaIS5_EES8_SaISt4pairIKS5_SA_EEE5beginEv(ptr sret(%"struct.std::_Rb_tree_iterator.90") align 4 %__begin117, ptr noundef nonnull align 4 dereferenceable(24) @_ZL15loopBasicBlocksB5cxx11) #3
  call void @_ZNSt3mapINSt7__cxx1112basic_stringIcSt11char_traitsIcESaIcEEESt3setIS5_St4lessIS5_ESaIS5_EES8_SaISt4pairIKS5_SA_EEE3endEv(ptr sret(%"struct.std::_Rb_tree_iterator.90") align 4 %__end118, ptr noundef nonnull align 4 dereferenceable(24) @_ZL15loopBasicBlocksB5cxx11) #3
  br label %for.cond19

for.cond19:                                       ; preds = %for.inc112, %invoke.cont14
  %call20 = call noundef zeroext i1 @_ZStneRKSt17_Rb_tree_iteratorISt4pairIKNSt7__cxx1112basic_stringIcSt11char_traitsIcESaIcEEESt3setIS6_St4lessIS6_ESaIS6_EEEESG_(ptr noundef nonnull align 4 dereferenceable(4) %__begin117, ptr noundef nonnull align 4 dereferenceable(4) %__end118) #3
  br i1 %call20, label %for.body21, label %for.end114

for.body21:                                       ; preds = %for.cond19
  %call23 = call noundef nonnull align 4 dereferenceable(48) ptr @_ZNKSt17_Rb_tree_iteratorISt4pairIKNSt7__cxx1112basic_stringIcSt11char_traitsIcESaIcEEESt3setIS6_St4lessIS6_ESaIS6_EEEEdeEv(ptr noundef nonnull align 4 dereferenceable(4) %__begin117) #3
  invoke void @_ZNSt4pairINSt7__cxx1112basic_stringIcSt11char_traitsIcESaIcEEESt3setIS5_St4lessIS5_ESaIS5_EEEC2IKS5_SA_Lb1EEERKS_IT_T0_E(ptr noundef nonnull align 4 dereferenceable(48) %pair22, ptr noundef nonnull align 4 dereferenceable(48) %call23)
          to label %invoke.cont24 unwind label %lpad

invoke.cont24:                                    ; preds = %for.body21
  %first25 = getelementptr inbounds %"struct.std::pair.91", ptr %pair22, i32 0, i32 0
  invoke void @_ZNSt7__cxx1112basic_stringIcSt11char_traitsIcESaIcEEC1ERKS4_(ptr noundef nonnull align 4 dereferenceable(24) %loopName, ptr noundef nonnull align 4 dereferenceable(24) %first25)
          to label %invoke.cont27 unwind label %lpad26

invoke.cont27:                                    ; preds = %invoke.cont24
  %11 = load ptr, ptr %looptraceinfoFile, align 4
  %first28 = getelementptr inbounds %"struct.std::pair.91", ptr %pair22, i32 0, i32 0
  %call29 = call noundef ptr @_ZNKSt7__cxx1112basic_stringIcSt11char_traitsIcESaIcEE5c_strEv(ptr noundef nonnull align 4 dereferenceable(24) %first28) #3
  %call32 = invoke i32 (ptr, ptr, ...) @fprintf(ptr noundef %11, ptr noundef @.str.57, ptr noundef %call29)
          to label %invoke.cont31 unwind label %lpad30

invoke.cont31:                                    ; preds = %invoke.cont27
  store i32 0, ptr %BBInvCount, align 4
  %second33 = getelementptr inbounds %"struct.std::pair.91", ptr %pair22, i32 0, i32 1
  store ptr %second33, ptr %__range2, align 4
  %12 = load ptr, ptr %__range2, align 4
  call void @_ZNKSt3setINSt7__cxx1112basic_stringIcSt11char_traitsIcESaIcEEESt4lessIS5_ESaIS5_EE5beginEv(ptr sret(%"struct.std::_Rb_tree_const_iterator") align 4 %__begin2, ptr noundef nonnull align 4 dereferenceable(24) %12) #3
  %13 = load ptr, ptr %__range2, align 4
  call void @_ZNKSt3setINSt7__cxx1112basic_stringIcSt11char_traitsIcESaIcEEESt4lessIS5_ESaIS5_EE3endEv(ptr sret(%"struct.std::_Rb_tree_const_iterator") align 4 %__end2, ptr noundef nonnull align 4 dereferenceable(24) %13) #3
  br label %for.cond34

for.cond34:                                       ; preds = %for.inc42, %invoke.cont31
  %call35 = call noundef zeroext i1 @_ZStneRKSt23_Rb_tree_const_iteratorINSt7__cxx1112basic_stringIcSt11char_traitsIcESaIcEEEES8_(ptr noundef nonnull align 4 dereferenceable(4) %__begin2, ptr noundef nonnull align 4 dereferenceable(4) %__end2) #3
  br i1 %call35, label %for.body36, label %for.end44

for.body36:                                       ; preds = %for.cond34
  %call37 = call noundef nonnull align 4 dereferenceable(24) ptr @_ZNKSt23_Rb_tree_const_iteratorINSt7__cxx1112basic_stringIcSt11char_traitsIcESaIcEEEEdeEv(ptr noundef nonnull align 4 dereferenceable(4) %__begin2) #3
  invoke void @_ZNSt7__cxx1112basic_stringIcSt11char_traitsIcESaIcEEC1ERKS4_(ptr noundef nonnull align 4 dereferenceable(24) %BBName, ptr noundef nonnull align 4 dereferenceable(24) %call37)
          to label %invoke.cont38 unwind label %lpad30

invoke.cont38:                                    ; preds = %for.body36
  %call41 = invoke noundef nonnull align 4 dereferenceable(4) ptr @_ZNSt3mapINSt7__cxx1112basic_stringIcSt11char_traitsIcESaIcEEEiSt4lessIS5_ESaISt4pairIKS5_iEEEixERS9_(ptr noundef nonnull align 4 dereferenceable(24) @_ZL10BBInsCountB5cxx11, ptr noundef nonnull align 4 dereferenceable(24) %BBName)
          to label %invoke.cont40 unwind label %lpad39

invoke.cont40:                                    ; preds = %invoke.cont38
  %14 = load i32, ptr %call41, align 4
  %15 = load i32, ptr %BBInvCount, align 4
  %add = add nsw i32 %15, %14
  store i32 %add, ptr %BBInvCount, align 4
  call void @_ZNSt7__cxx1112basic_stringIcSt11char_traitsIcESaIcEED1Ev(ptr noundef nonnull align 4 dereferenceable(24) %BBName) #3
  br label %for.inc42

for.inc42:                                        ; preds = %invoke.cont40
  %call43 = call noundef nonnull align 4 dereferenceable(4) ptr @_ZNSt23_Rb_tree_const_iteratorINSt7__cxx1112basic_stringIcSt11char_traitsIcESaIcEEEEppEv(ptr noundef nonnull align 4 dereferenceable(4) %__begin2) #3
  br label %for.cond34

lpad26:                                           ; preds = %invoke.cont24
  %16 = landingpad { ptr, i32 }
          cleanup
  %17 = extractvalue { ptr, i32 } %16, 0
  store ptr %17, ptr %exn.slot, align 4
  %18 = extractvalue { ptr, i32 } %16, 1
  store i32 %18, ptr %ehselector.slot, align 4
  br label %ehcleanup111

lpad30:                                           ; preds = %invoke.cont102, %invoke.cont100, %for.end98, %for.body83, %for.body53, %for.end44, %for.body36, %invoke.cont27
  %19 = landingpad { ptr, i32 }
          cleanup
  %20 = extractvalue { ptr, i32 } %19, 0
  store ptr %20, ptr %exn.slot, align 4
  %21 = extractvalue { ptr, i32 } %19, 1
  store i32 %21, ptr %ehselector.slot, align 4
  br label %ehcleanup

lpad39:                                           ; preds = %invoke.cont38
  %22 = landingpad { ptr, i32 }
          cleanup
  %23 = extractvalue { ptr, i32 } %22, 0
  store ptr %23, ptr %exn.slot, align 4
  %24 = extractvalue { ptr, i32 } %22, 1
  store i32 %24, ptr %ehselector.slot, align 4
  call void @_ZNSt7__cxx1112basic_stringIcSt11char_traitsIcESaIcEED1Ev(ptr noundef nonnull align 4 dereferenceable(24) %BBName) #3
  br label %ehcleanup

for.end44:                                        ; preds = %for.cond34
  %25 = load ptr, ptr %looptraceinfoFile, align 4
  %26 = load i32, ptr %BBInvCount, align 4
  %call46 = invoke i32 (ptr, ptr, ...) @fprintf(ptr noundef %25, ptr noundef @.str.58, i32 noundef %26)
          to label %invoke.cont45 unwind label %lpad30

invoke.cont45:                                    ; preds = %for.end44
  store i32 0, ptr %maxInvBB, align 4
  %second48 = getelementptr inbounds %"struct.std::pair.91", ptr %pair22, i32 0, i32 1
  store ptr %second48, ptr %__range247, align 4
  %27 = load ptr, ptr %__range247, align 4
  call void @_ZNKSt3setINSt7__cxx1112basic_stringIcSt11char_traitsIcESaIcEEESt4lessIS5_ESaIS5_EE5beginEv(ptr sret(%"struct.std::_Rb_tree_const_iterator") align 4 %__begin249, ptr noundef nonnull align 4 dereferenceable(24) %27) #3
  %28 = load ptr, ptr %__range247, align 4
  call void @_ZNKSt3setINSt7__cxx1112basic_stringIcSt11char_traitsIcESaIcEEESt4lessIS5_ESaIS5_EE3endEv(ptr sret(%"struct.std::_Rb_tree_const_iterator") align 4 %__end250, ptr noundef nonnull align 4 dereferenceable(24) %28) #3
  br label %for.cond51

for.cond51:                                       ; preds = %for.inc73, %invoke.cont45
  %call52 = call noundef zeroext i1 @_ZStneRKSt23_Rb_tree_const_iteratorINSt7__cxx1112basic_stringIcSt11char_traitsIcESaIcEEEES8_(ptr noundef nonnull align 4 dereferenceable(4) %__begin249, ptr noundef nonnull align 4 dereferenceable(4) %__end250) #3
  br i1 %call52, label %for.body53, label %for.end75

for.body53:                                       ; preds = %for.cond51
  %call55 = call noundef nonnull align 4 dereferenceable(24) ptr @_ZNKSt23_Rb_tree_const_iteratorINSt7__cxx1112basic_stringIcSt11char_traitsIcESaIcEEEEdeEv(ptr noundef nonnull align 4 dereferenceable(4) %__begin249) #3
  invoke void @_ZNSt7__cxx1112basic_stringIcSt11char_traitsIcESaIcEEC1ERKS4_(ptr noundef nonnull align 4 dereferenceable(24) %BBName54, ptr noundef nonnull align 4 dereferenceable(24) %call55)
          to label %invoke.cont56 unwind label %lpad30

invoke.cont56:                                    ; preds = %for.body53
  %29 = load i32, ptr %BBInvCount, align 4
  %conv = sitofp i32 %29 to float
  store float %conv, ptr %BBInvCountFloat, align 4
  %call59 = invoke noundef nonnull align 4 dereferenceable(4) ptr @_ZNSt3mapINSt7__cxx1112basic_stringIcSt11char_traitsIcESaIcEEEiSt4lessIS5_ESaISt4pairIKS5_iEEEixERS9_(ptr noundef nonnull align 4 dereferenceable(24) @_ZL10BBInsCountB5cxx11, ptr noundef nonnull align 4 dereferenceable(24) %BBName54)
          to label %invoke.cont58 unwind label %lpad57

invoke.cont58:                                    ; preds = %invoke.cont56
  %30 = load i32, ptr %call59, align 4
  %conv60 = sitofp i32 %30 to float
  store float %conv60, ptr %BBInsCountFloat, align 4
  %31 = load ptr, ptr %looptraceinfoFile, align 4
  %call61 = call noundef ptr @_ZNKSt7__cxx1112basic_stringIcSt11char_traitsIcESaIcEE5c_strEv(ptr noundef nonnull align 4 dereferenceable(24) %BBName54) #3
  %call63 = invoke noundef nonnull align 4 dereferenceable(4) ptr @_ZNSt3mapINSt7__cxx1112basic_stringIcSt11char_traitsIcESaIcEEEiSt4lessIS5_ESaISt4pairIKS5_iEEEixERS9_(ptr noundef nonnull align 4 dereferenceable(24) @_ZL7InsInBBB5cxx11, ptr noundef nonnull align 4 dereferenceable(24) %BBName54)
          to label %invoke.cont62 unwind label %lpad57

invoke.cont62:                                    ; preds = %invoke.cont58
  %32 = load i32, ptr %call63, align 4
  %call65 = invoke noundef nonnull align 4 dereferenceable(4) ptr @_ZNSt3mapINSt7__cxx1112basic_stringIcSt11char_traitsIcESaIcEEEiSt4lessIS5_ESaISt4pairIKS5_iEEEixERS9_(ptr noundef nonnull align 4 dereferenceable(24) @_ZL10BBInsCountB5cxx11, ptr noundef nonnull align 4 dereferenceable(24) %BBName54)
          to label %invoke.cont64 unwind label %lpad57

invoke.cont64:                                    ; preds = %invoke.cont62
  %33 = load i32, ptr %call65, align 4
  %34 = load float, ptr %BBInsCountFloat, align 4
  %35 = load float, ptr %BBInvCountFloat, align 4
  %div = fdiv float %34, %35
  %conv66 = fpext float %div to double
  %call68 = invoke i32 (ptr, ptr, ...) @fprintf(ptr noundef %31, ptr noundef @.str.59, ptr noundef %call61, i32 noundef %32, i32 noundef %33, double noundef %conv66)
          to label %invoke.cont67 unwind label %lpad57

invoke.cont67:                                    ; preds = %invoke.cont64
  %call70 = invoke noundef nonnull align 4 dereferenceable(4) ptr @_ZNSt3mapINSt7__cxx1112basic_stringIcSt11char_traitsIcESaIcEEEiSt4lessIS5_ESaISt4pairIKS5_iEEEixERS9_(ptr noundef nonnull align 4 dereferenceable(24) @_ZL10BBInsCountB5cxx11, ptr noundef nonnull align 4 dereferenceable(24) %BBName54)
          to label %invoke.cont69 unwind label %lpad57

invoke.cont69:                                    ; preds = %invoke.cont67
  %call72 = invoke noundef nonnull align 4 dereferenceable(4) ptr @_ZSt3maxIiERKT_S2_S2_(ptr noundef nonnull align 4 dereferenceable(4) %maxInvBB, ptr noundef nonnull align 4 dereferenceable(4) %call70)
          to label %invoke.cont71 unwind label %lpad57

invoke.cont71:                                    ; preds = %invoke.cont69
  %36 = load i32, ptr %call72, align 4
  store i32 %36, ptr %maxInvBB, align 4
  call void @_ZNSt7__cxx1112basic_stringIcSt11char_traitsIcESaIcEED1Ev(ptr noundef nonnull align 4 dereferenceable(24) %BBName54) #3
  br label %for.inc73

for.inc73:                                        ; preds = %invoke.cont71
  %call74 = call noundef nonnull align 4 dereferenceable(4) ptr @_ZNSt23_Rb_tree_const_iteratorINSt7__cxx1112basic_stringIcSt11char_traitsIcESaIcEEEEppEv(ptr noundef nonnull align 4 dereferenceable(4) %__begin249) #3
  br label %for.cond51

lpad57:                                           ; preds = %invoke.cont69, %invoke.cont67, %invoke.cont64, %invoke.cont62, %invoke.cont58, %invoke.cont56
  %37 = landingpad { ptr, i32 }
          cleanup
  %38 = extractvalue { ptr, i32 } %37, 0
  store ptr %38, ptr %exn.slot, align 4
  %39 = extractvalue { ptr, i32 } %37, 1
  store i32 %39, ptr %ehselector.slot, align 4
  call void @_ZNSt7__cxx1112basic_stringIcSt11char_traitsIcESaIcEED1Ev(ptr noundef nonnull align 4 dereferenceable(24) %BBName54) #3
  br label %ehcleanup

for.end75:                                        ; preds = %for.cond51
  %40 = load i32, ptr %BBInvCount, align 4
  %41 = load i32, ptr %maxInvBB, align 4
  %div76 = sdiv i32 %40, %41
  store i32 %div76, ptr %estimatedIterations, align 4
  store float 0.000000e+00, ptr %avgLpInstructions, align 4
  %second78 = getelementptr inbounds %"struct.std::pair.91", ptr %pair22, i32 0, i32 1
  store ptr %second78, ptr %__range277, align 4
  %42 = load ptr, ptr %__range277, align 4
  call void @_ZNKSt3setINSt7__cxx1112basic_stringIcSt11char_traitsIcESaIcEEESt4lessIS5_ESaIS5_EE5beginEv(ptr sret(%"struct.std::_Rb_tree_const_iterator") align 4 %__begin279, ptr noundef nonnull align 4 dereferenceable(24) %42) #3
  %43 = load ptr, ptr %__range277, align 4
  call void @_ZNKSt3setINSt7__cxx1112basic_stringIcSt11char_traitsIcESaIcEEESt4lessIS5_ESaIS5_EE3endEv(ptr sret(%"struct.std::_Rb_tree_const_iterator") align 4 %__end280, ptr noundef nonnull align 4 dereferenceable(24) %43) #3
  br label %for.cond81

for.cond81:                                       ; preds = %for.inc96, %for.end75
  %call82 = call noundef zeroext i1 @_ZStneRKSt23_Rb_tree_const_iteratorINSt7__cxx1112basic_stringIcSt11char_traitsIcESaIcEEEES8_(ptr noundef nonnull align 4 dereferenceable(4) %__begin279, ptr noundef nonnull align 4 dereferenceable(4) %__end280) #3
  br i1 %call82, label %for.body83, label %for.end98

for.body83:                                       ; preds = %for.cond81
  %call85 = call noundef nonnull align 4 dereferenceable(24) ptr @_ZNKSt23_Rb_tree_const_iteratorINSt7__cxx1112basic_stringIcSt11char_traitsIcESaIcEEEEdeEv(ptr noundef nonnull align 4 dereferenceable(4) %__begin279) #3
  invoke void @_ZNSt7__cxx1112basic_stringIcSt11char_traitsIcESaIcEEC1ERKS4_(ptr noundef nonnull align 4 dereferenceable(24) %BBName84, ptr noundef nonnull align 4 dereferenceable(24) %call85)
          to label %invoke.cont86 unwind label %lpad30

invoke.cont86:                                    ; preds = %for.body83
  %call89 = invoke noundef nonnull align 4 dereferenceable(4) ptr @_ZNSt3mapINSt7__cxx1112basic_stringIcSt11char_traitsIcESaIcEEEiSt4lessIS5_ESaISt4pairIKS5_iEEEixERS9_(ptr noundef nonnull align 4 dereferenceable(24) @_ZL10BBInsCountB5cxx11, ptr noundef nonnull align 4 dereferenceable(24) %BBName84)
          to label %invoke.cont88 unwind label %lpad87

invoke.cont88:                                    ; preds = %invoke.cont86
  %44 = load i32, ptr %call89, align 4
  %conv90 = sitofp i32 %44 to float
  %45 = load i32, ptr %maxInvBB, align 4
  %conv91 = sitofp i32 %45 to float
  %div92 = fdiv float %conv90, %conv91
  store float %div92, ptr %invWeight, align 4
  %46 = load float, ptr %invWeight, align 4
  %call94 = invoke noundef nonnull align 4 dereferenceable(4) ptr @_ZNSt3mapINSt7__cxx1112basic_stringIcSt11char_traitsIcESaIcEEEiSt4lessIS5_ESaISt4pairIKS5_iEEEixERS9_(ptr noundef nonnull align 4 dereferenceable(24) @_ZL7InsInBBB5cxx11, ptr noundef nonnull align 4 dereferenceable(24) %BBName84)
          to label %invoke.cont93 unwind label %lpad87

invoke.cont93:                                    ; preds = %invoke.cont88
  %47 = load i32, ptr %call94, align 4
  %conv95 = sitofp i32 %47 to float
  %48 = load float, ptr %avgLpInstructions, align 4
  %49 = call float @llvm.fmuladd.f32(float %46, float %conv95, float %48)
  store float %49, ptr %avgLpInstructions, align 4
  call void @_ZNSt7__cxx1112basic_stringIcSt11char_traitsIcESaIcEED1Ev(ptr noundef nonnull align 4 dereferenceable(24) %BBName84) #3
  br label %for.inc96

for.inc96:                                        ; preds = %invoke.cont93
  %call97 = call noundef nonnull align 4 dereferenceable(4) ptr @_ZNSt23_Rb_tree_const_iteratorINSt7__cxx1112basic_stringIcSt11char_traitsIcESaIcEEEEppEv(ptr noundef nonnull align 4 dereferenceable(4) %__begin279) #3
  br label %for.cond81

lpad87:                                           ; preds = %invoke.cont88, %invoke.cont86
  %50 = landingpad { ptr, i32 }
          cleanup
  %51 = extractvalue { ptr, i32 } %50, 0
  store ptr %51, ptr %exn.slot, align 4
  %52 = extractvalue { ptr, i32 } %50, 1
  store i32 %52, ptr %ehselector.slot, align 4
  call void @_ZNSt7__cxx1112basic_stringIcSt11char_traitsIcESaIcEED1Ev(ptr noundef nonnull align 4 dereferenceable(24) %BBName84) #3
  br label %ehcleanup

for.end98:                                        ; preds = %for.cond81
  %53 = load ptr, ptr %looptraceinfoFile, align 4
  %54 = load float, ptr %avgLpInstructions, align 4
  %conv99 = fpext float %54 to double
  %call101 = invoke i32 (ptr, ptr, ...) @fprintf(ptr noundef %53, ptr noundef @.str.60, double noundef %conv99)
          to label %invoke.cont100 unwind label %lpad30

invoke.cont100:                                   ; preds = %for.end98
  %call103 = invoke noundef nonnull align 4 dereferenceable(24) ptr @_ZNSt3mapINSt7__cxx1112basic_stringIcSt11char_traitsIcESaIcEEES5_St4lessIS5_ESaISt4pairIKS5_S5_EEEixERS9_(ptr noundef nonnull align 4 dereferenceable(24) @_ZL18loopPreHeaderBBMapB5cxx11, ptr noundef nonnull align 4 dereferenceable(24) %loopName)
          to label %invoke.cont102 unwind label %lpad30

invoke.cont102:                                   ; preds = %invoke.cont100
  invoke void @_ZNSt7__cxx1112basic_stringIcSt11char_traitsIcESaIcEEC1ERKS4_(ptr noundef nonnull align 4 dereferenceable(24) %preHeaderBBName, ptr noundef nonnull align 4 dereferenceable(24) %call103)
          to label %invoke.cont104 unwind label %lpad30

invoke.cont104:                                   ; preds = %invoke.cont102
  %55 = load ptr, ptr %looptraceinfoFile, align 4
  %call105 = call noundef ptr @_ZNKSt7__cxx1112basic_stringIcSt11char_traitsIcESaIcEE5c_strEv(ptr noundef nonnull align 4 dereferenceable(24) %preHeaderBBName) #3
  %call108 = invoke noundef nonnull align 4 dereferenceable(4) ptr @_ZNSt3mapINSt7__cxx1112basic_stringIcSt11char_traitsIcESaIcEEEiSt4lessIS5_ESaISt4pairIKS5_iEEEixERS9_(ptr noundef nonnull align 4 dereferenceable(24) @_ZL10BBInsCountB5cxx11, ptr noundef nonnull align 4 dereferenceable(24) %preHeaderBBName)
          to label %invoke.cont107 unwind label %lpad106

invoke.cont107:                                   ; preds = %invoke.cont104
  %56 = load i32, ptr %call108, align 4
  %call110 = invoke i32 (ptr, ptr, ...) @fprintf(ptr noundef %55, ptr noundef @.str.61, ptr noundef %call105, i32 noundef %56)
          to label %invoke.cont109 unwind label %lpad106

invoke.cont109:                                   ; preds = %invoke.cont107
  call void @_ZNSt7__cxx1112basic_stringIcSt11char_traitsIcESaIcEED1Ev(ptr noundef nonnull align 4 dereferenceable(24) %preHeaderBBName) #3
  call void @_ZNSt7__cxx1112basic_stringIcSt11char_traitsIcESaIcEED1Ev(ptr noundef nonnull align 4 dereferenceable(24) %loopName) #3
  call void @_ZNSt4pairINSt7__cxx1112basic_stringIcSt11char_traitsIcESaIcEEESt3setIS5_St4lessIS5_ESaIS5_EEED2Ev(ptr noundef nonnull align 4 dereferenceable(48) %pair22) #3
  br label %for.inc112

for.inc112:                                       ; preds = %invoke.cont109
  %call113 = call noundef nonnull align 4 dereferenceable(4) ptr @_ZNSt17_Rb_tree_iteratorISt4pairIKNSt7__cxx1112basic_stringIcSt11char_traitsIcESaIcEEESt3setIS6_St4lessIS6_ESaIS6_EEEEppEv(ptr noundef nonnull align 4 dereferenceable(4) %__begin117) #3
  br label %for.cond19

lpad106:                                          ; preds = %invoke.cont107, %invoke.cont104
  %57 = landingpad { ptr, i32 }
          cleanup
  %58 = extractvalue { ptr, i32 } %57, 0
  store ptr %58, ptr %exn.slot, align 4
  %59 = extractvalue { ptr, i32 } %57, 1
  store i32 %59, ptr %ehselector.slot, align 4
  call void @_ZNSt7__cxx1112basic_stringIcSt11char_traitsIcESaIcEED1Ev(ptr noundef nonnull align 4 dereferenceable(24) %preHeaderBBName) #3
  br label %ehcleanup

ehcleanup:                                        ; preds = %lpad106, %lpad87, %lpad57, %lpad39, %lpad30
  call void @_ZNSt7__cxx1112basic_stringIcSt11char_traitsIcESaIcEED1Ev(ptr noundef nonnull align 4 dereferenceable(24) %loopName) #3
  br label %ehcleanup111

ehcleanup111:                                     ; preds = %ehcleanup, %lpad26
  call void @_ZNSt4pairINSt7__cxx1112basic_stringIcSt11char_traitsIcESaIcEEESt3setIS5_St4lessIS5_ESaIS5_EEED2Ev(ptr noundef nonnull align 4 dereferenceable(48) %pair22) #3
  br label %ehcleanup234

for.end114:                                       ; preds = %for.cond19
  %60 = load ptr, ptr %looptraceinfoFile, align 4
  %call116 = invoke i32 (ptr, ptr, ...) @fprintf(ptr noundef %60, ptr noundef @.str.62)
          to label %invoke.cont115 unwind label %lpad

invoke.cont115:                                   ; preds = %for.end114
  store ptr @_ZL15loopBasicBlocksB5cxx11, ptr %__range1117, align 4
  call void @_ZNSt3mapINSt7__cxx1112basic_stringIcSt11char_traitsIcESaIcEEESt3setIS5_St4lessIS5_ESaIS5_EES8_SaISt4pairIKS5_SA_EEE5beginEv(ptr sret(%"struct.std::_Rb_tree_iterator.90") align 4 %__begin1118, ptr noundef nonnull align 4 dereferenceable(24) @_ZL15loopBasicBlocksB5cxx11) #3
  call void @_ZNSt3mapINSt7__cxx1112basic_stringIcSt11char_traitsIcESaIcEEESt3setIS5_St4lessIS5_ESaIS5_EES8_SaISt4pairIKS5_SA_EEE3endEv(ptr sret(%"struct.std::_Rb_tree_iterator.90") align 4 %__end1119, ptr noundef nonnull align 4 dereferenceable(24) @_ZL15loopBasicBlocksB5cxx11) #3
  br label %for.cond120

for.cond120:                                      ; preds = %for.inc140, %invoke.cont115
  %call121 = call noundef zeroext i1 @_ZStneRKSt17_Rb_tree_iteratorISt4pairIKNSt7__cxx1112basic_stringIcSt11char_traitsIcESaIcEEESt3setIS6_St4lessIS6_ESaIS6_EEEESG_(ptr noundef nonnull align 4 dereferenceable(4) %__begin1118, ptr noundef nonnull align 4 dereferenceable(4) %__end1119) #3
  br i1 %call121, label %for.body122, label %for.end142

for.body122:                                      ; preds = %for.cond120
  %call124 = call noundef nonnull align 4 dereferenceable(48) ptr @_ZNKSt17_Rb_tree_iteratorISt4pairIKNSt7__cxx1112basic_stringIcSt11char_traitsIcESaIcEEESt3setIS6_St4lessIS6_ESaIS6_EEEEdeEv(ptr noundef nonnull align 4 dereferenceable(4) %__begin1118) #3
  invoke void @_ZNSt4pairINSt7__cxx1112basic_stringIcSt11char_traitsIcESaIcEEESt3setIS5_St4lessIS5_ESaIS5_EEEC2IKS5_SA_Lb1EEERKS_IT_T0_E(ptr noundef nonnull align 4 dereferenceable(48) %pair123, ptr noundef nonnull align 4 dereferenceable(48) %call124)
          to label %invoke.cont125 unwind label %lpad

invoke.cont125:                                   ; preds = %for.body122
  %first127 = getelementptr inbounds %"struct.std::pair.91", ptr %pair123, i32 0, i32 0
  invoke void @_ZNSt7__cxx1112basic_stringIcSt11char_traitsIcESaIcEEC1ERKS4_(ptr noundef nonnull align 4 dereferenceable(24) %loopName126, ptr noundef nonnull align 4 dereferenceable(24) %first127)
          to label %invoke.cont129 unwind label %lpad128

invoke.cont129:                                   ; preds = %invoke.cont125
  %61 = load ptr, ptr %looptraceinfoFile, align 4
  %call130 = call noundef ptr @_ZNKSt7__cxx1112basic_stringIcSt11char_traitsIcESaIcEE5c_strEv(ptr noundef nonnull align 4 dereferenceable(24) %loopName126) #3
  %call133 = invoke noundef nonnull align 4 dereferenceable(24) ptr @_ZNSt3mapINSt7__cxx1112basic_stringIcSt11char_traitsIcESaIcEEES5_St4lessIS5_ESaISt4pairIKS5_S5_EEEixERS9_(ptr noundef nonnull align 4 dereferenceable(24) @_ZL18loopPreHeaderBBMapB5cxx11, ptr noundef nonnull align 4 dereferenceable(24) %loopName126)
          to label %invoke.cont132 unwind label %lpad131

invoke.cont132:                                   ; preds = %invoke.cont129
  %call135 = invoke noundef nonnull align 4 dereferenceable(4) ptr @_ZNSt3mapINSt7__cxx1112basic_stringIcSt11char_traitsIcESaIcEEEiSt4lessIS5_ESaISt4pairIKS5_iEEEixERS9_(ptr noundef nonnull align 4 dereferenceable(24) @_ZL10BBInsCountB5cxx11, ptr noundef nonnull align 4 dereferenceable(24) %call133)
          to label %invoke.cont134 unwind label %lpad131

invoke.cont134:                                   ; preds = %invoke.cont132
  %62 = load i32, ptr %call135, align 4
  %call137 = invoke i32 (ptr, ptr, ...) @fprintf(ptr noundef %61, ptr noundef @.str.63, ptr noundef %call130, i32 noundef %62)
          to label %invoke.cont136 unwind label %lpad131

invoke.cont136:                                   ; preds = %invoke.cont134
  call void @_ZNSt7__cxx1112basic_stringIcSt11char_traitsIcESaIcEED1Ev(ptr noundef nonnull align 4 dereferenceable(24) %loopName126) #3
  call void @_ZNSt4pairINSt7__cxx1112basic_stringIcSt11char_traitsIcESaIcEEESt3setIS5_St4lessIS5_ESaIS5_EEED2Ev(ptr noundef nonnull align 4 dereferenceable(48) %pair123) #3
  br label %for.inc140

for.inc140:                                       ; preds = %invoke.cont136
  %call141 = call noundef nonnull align 4 dereferenceable(4) ptr @_ZNSt17_Rb_tree_iteratorISt4pairIKNSt7__cxx1112basic_stringIcSt11char_traitsIcESaIcEEESt3setIS6_St4lessIS6_ESaIS6_EEEEppEv(ptr noundef nonnull align 4 dereferenceable(4) %__begin1118) #3
  br label %for.cond120

lpad128:                                          ; preds = %invoke.cont125
  %63 = landingpad { ptr, i32 }
          cleanup
  %64 = extractvalue { ptr, i32 } %63, 0
  store ptr %64, ptr %exn.slot, align 4
  %65 = extractvalue { ptr, i32 } %63, 1
  store i32 %65, ptr %ehselector.slot, align 4
  br label %ehcleanup139

lpad131:                                          ; preds = %invoke.cont134, %invoke.cont132, %invoke.cont129
  %66 = landingpad { ptr, i32 }
          cleanup
  %67 = extractvalue { ptr, i32 } %66, 0
  store ptr %67, ptr %exn.slot, align 4
  %68 = extractvalue { ptr, i32 } %66, 1
  store i32 %68, ptr %ehselector.slot, align 4
  call void @_ZNSt7__cxx1112basic_stringIcSt11char_traitsIcESaIcEED1Ev(ptr noundef nonnull align 4 dereferenceable(24) %loopName126) #3
  br label %ehcleanup139

ehcleanup139:                                     ; preds = %lpad131, %lpad128
  call void @_ZNSt4pairINSt7__cxx1112basic_stringIcSt11char_traitsIcESaIcEEESt3setIS5_St4lessIS5_ESaIS5_EEED2Ev(ptr noundef nonnull align 4 dereferenceable(48) %pair123) #3
  br label %ehcleanup234

for.end142:                                       ; preds = %for.cond120
  %69 = load ptr, ptr %looptraceinfoFile, align 4
  %call144 = invoke i32 (ptr, ptr, ...) @fprintf(ptr noundef %69, ptr noundef @.str.64)
          to label %invoke.cont143 unwind label %lpad

invoke.cont143:                                   ; preds = %for.end142
  %70 = load ptr, ptr %looptraceinfoFile, align 4
  %call146 = invoke i32 (ptr, ptr, ...) @fprintf(ptr noundef %70, ptr noundef @.str.65)
          to label %invoke.cont145 unwind label %lpad

invoke.cont145:                                   ; preds = %invoke.cont143
  store ptr @_ZL15loopBasicBlocksB5cxx11, ptr %__range1147, align 4
  call void @_ZNSt3mapINSt7__cxx1112basic_stringIcSt11char_traitsIcESaIcEEESt3setIS5_St4lessIS5_ESaIS5_EES8_SaISt4pairIKS5_SA_EEE5beginEv(ptr sret(%"struct.std::_Rb_tree_iterator.90") align 4 %__begin1148, ptr noundef nonnull align 4 dereferenceable(24) @_ZL15loopBasicBlocksB5cxx11) #3
  call void @_ZNSt3mapINSt7__cxx1112basic_stringIcSt11char_traitsIcESaIcEEESt3setIS5_St4lessIS5_ESaIS5_EES8_SaISt4pairIKS5_SA_EEE3endEv(ptr sret(%"struct.std::_Rb_tree_iterator.90") align 4 %__end1149, ptr noundef nonnull align 4 dereferenceable(24) @_ZL15loopBasicBlocksB5cxx11) #3
  br label %for.cond150

for.cond150:                                      ; preds = %for.inc183, %invoke.cont145
  %call151 = call noundef zeroext i1 @_ZStneRKSt17_Rb_tree_iteratorISt4pairIKNSt7__cxx1112basic_stringIcSt11char_traitsIcESaIcEEESt3setIS6_St4lessIS6_ESaIS6_EEEESG_(ptr noundef nonnull align 4 dereferenceable(4) %__begin1148, ptr noundef nonnull align 4 dereferenceable(4) %__end1149) #3
  br i1 %call151, label %for.body152, label %for.end185

for.body152:                                      ; preds = %for.cond150
  %call154 = call noundef nonnull align 4 dereferenceable(48) ptr @_ZNKSt17_Rb_tree_iteratorISt4pairIKNSt7__cxx1112basic_stringIcSt11char_traitsIcESaIcEEESt3setIS6_St4lessIS6_ESaIS6_EEEEdeEv(ptr noundef nonnull align 4 dereferenceable(4) %__begin1148) #3
  invoke void @_ZNSt4pairINSt7__cxx1112basic_stringIcSt11char_traitsIcESaIcEEESt3setIS5_St4lessIS5_ESaIS5_EEEC2IKS5_SA_Lb1EEERKS_IT_T0_E(ptr noundef nonnull align 4 dereferenceable(48) %pair153, ptr noundef nonnull align 4 dereferenceable(48) %call154)
          to label %invoke.cont155 unwind label %lpad

invoke.cont155:                                   ; preds = %for.body152
  %second157 = getelementptr inbounds %"struct.std::pair.91", ptr %pair153, i32 0, i32 1
  store ptr %second157, ptr %__range2156, align 4
  %71 = load ptr, ptr %__range2156, align 4
  call void @_ZNKSt3setINSt7__cxx1112basic_stringIcSt11char_traitsIcESaIcEEESt4lessIS5_ESaIS5_EE5beginEv(ptr sret(%"struct.std::_Rb_tree_const_iterator") align 4 %__begin2158, ptr noundef nonnull align 4 dereferenceable(24) %71) #3
  %72 = load ptr, ptr %__range2156, align 4
  call void @_ZNKSt3setINSt7__cxx1112basic_stringIcSt11char_traitsIcESaIcEEESt4lessIS5_ESaIS5_EE3endEv(ptr sret(%"struct.std::_Rb_tree_const_iterator") align 4 %__end2159, ptr noundef nonnull align 4 dereferenceable(24) %72) #3
  br label %for.cond160

for.cond160:                                      ; preds = %for.inc179, %invoke.cont155
  %call161 = call noundef zeroext i1 @_ZStneRKSt23_Rb_tree_const_iteratorINSt7__cxx1112basic_stringIcSt11char_traitsIcESaIcEEEES8_(ptr noundef nonnull align 4 dereferenceable(4) %__begin2158, ptr noundef nonnull align 4 dereferenceable(4) %__end2159) #3
  br i1 %call161, label %for.body162, label %for.end181

for.body162:                                      ; preds = %for.cond160
  %call164 = call noundef nonnull align 4 dereferenceable(24) ptr @_ZNKSt23_Rb_tree_const_iteratorINSt7__cxx1112basic_stringIcSt11char_traitsIcESaIcEEEEdeEv(ptr noundef nonnull align 4 dereferenceable(4) %__begin2158) #3
  invoke void @_ZNSt7__cxx1112basic_stringIcSt11char_traitsIcESaIcEEC1ERKS4_(ptr noundef nonnull align 4 dereferenceable(24) %BBName163, ptr noundef nonnull align 4 dereferenceable(24) %call164)
          to label %invoke.cont166 unwind label %lpad165

invoke.cont166:                                   ; preds = %for.body162
  %73 = load ptr, ptr %looptraceinfoFile, align 4
  %call167 = call noundef ptr @_ZNKSt7__cxx1112basic_stringIcSt11char_traitsIcESaIcEE5c_strEv(ptr noundef nonnull align 4 dereferenceable(24) %BBName163) #3
  %call170 = invoke noundef nonnull align 4 dereferenceable(4) ptr @_ZNSt3mapINSt7__cxx1112basic_stringIcSt11char_traitsIcESaIcEEEiSt4lessIS5_ESaISt4pairIKS5_iEEEixERS9_(ptr noundef nonnull align 4 dereferenceable(24) @_ZL10BBInsCountB5cxx11, ptr noundef nonnull align 4 dereferenceable(24) %BBName163)
          to label %invoke.cont169 unwind label %lpad168

invoke.cont169:                                   ; preds = %invoke.cont166
  %74 = load i32, ptr %call170, align 4
  %call172 = invoke noundef nonnull align 4 dereferenceable(24) ptr @_ZNSt3mapINSt7__cxx1112basic_stringIcSt11char_traitsIcESaIcEEES5_St4lessIS5_ESaISt4pairIKS5_S5_EEEixERS9_(ptr noundef nonnull align 4 dereferenceable(24) @_ZL16BBMappingUnitMapB5cxx11, ptr noundef nonnull align 4 dereferenceable(24) %BBName163)
          to label %invoke.cont171 unwind label %lpad168

invoke.cont171:                                   ; preds = %invoke.cont169
  %call173 = call noundef ptr @_ZNKSt7__cxx1112basic_stringIcSt11char_traitsIcESaIcEE5c_strEv(ptr noundef nonnull align 4 dereferenceable(24) %call172) #3
  %first174 = getelementptr inbounds %"struct.std::pair.91", ptr %pair153, i32 0, i32 0
  %call175 = call noundef ptr @_ZNKSt7__cxx1112basic_stringIcSt11char_traitsIcESaIcEE5c_strEv(ptr noundef nonnull align 4 dereferenceable(24) %first174) #3
  %call177 = invoke i32 (ptr, ptr, ...) @fprintf(ptr noundef %73, ptr noundef @.str.66, ptr noundef %call167, i32 noundef %74, ptr noundef %call173, ptr noundef %call175)
          to label %invoke.cont176 unwind label %lpad168

invoke.cont176:                                   ; preds = %invoke.cont171
  call void @_ZNSt7__cxx1112basic_stringIcSt11char_traitsIcESaIcEED1Ev(ptr noundef nonnull align 4 dereferenceable(24) %BBName163) #3
  br label %for.inc179

for.inc179:                                       ; preds = %invoke.cont176
  %call180 = call noundef nonnull align 4 dereferenceable(4) ptr @_ZNSt23_Rb_tree_const_iteratorINSt7__cxx1112basic_stringIcSt11char_traitsIcESaIcEEEEppEv(ptr noundef nonnull align 4 dereferenceable(4) %__begin2158) #3
  br label %for.cond160

lpad165:                                          ; preds = %for.body162
  %75 = landingpad { ptr, i32 }
          cleanup
  %76 = extractvalue { ptr, i32 } %75, 0
  store ptr %76, ptr %exn.slot, align 4
  %77 = extractvalue { ptr, i32 } %75, 1
  store i32 %77, ptr %ehselector.slot, align 4
  br label %ehcleanup182

lpad168:                                          ; preds = %invoke.cont171, %invoke.cont169, %invoke.cont166
  %78 = landingpad { ptr, i32 }
          cleanup
  %79 = extractvalue { ptr, i32 } %78, 0
  store ptr %79, ptr %exn.slot, align 4
  %80 = extractvalue { ptr, i32 } %78, 1
  store i32 %80, ptr %ehselector.slot, align 4
  call void @_ZNSt7__cxx1112basic_stringIcSt11char_traitsIcESaIcEED1Ev(ptr noundef nonnull align 4 dereferenceable(24) %BBName163) #3
  br label %ehcleanup182

for.end181:                                       ; preds = %for.cond160
  call void @_ZNSt4pairINSt7__cxx1112basic_stringIcSt11char_traitsIcESaIcEEESt3setIS5_St4lessIS5_ESaIS5_EEED2Ev(ptr noundef nonnull align 4 dereferenceable(48) %pair153) #3
  br label %for.inc183

for.inc183:                                       ; preds = %for.end181
  %call184 = call noundef nonnull align 4 dereferenceable(4) ptr @_ZNSt17_Rb_tree_iteratorISt4pairIKNSt7__cxx1112basic_stringIcSt11char_traitsIcESaIcEEESt3setIS6_St4lessIS6_ESaIS6_EEEEppEv(ptr noundef nonnull align 4 dereferenceable(4) %__begin1148) #3
  br label %for.cond150

ehcleanup182:                                     ; preds = %lpad168, %lpad165
  call void @_ZNSt4pairINSt7__cxx1112basic_stringIcSt11char_traitsIcESaIcEEESt3setIS5_St4lessIS5_ESaIS5_EEED2Ev(ptr noundef nonnull align 4 dereferenceable(48) %pair153) #3
  br label %ehcleanup234

for.end185:                                       ; preds = %for.cond150
  store ptr @_ZL17munitTransProfileB5cxx11, ptr %__range1186, align 4
  call void @_ZNSt3mapINSt7__cxx1112basic_stringIcSt11char_traitsIcESaIcEEES_IS5_iSt4lessIS5_ESaISt4pairIKS5_iEEES7_SaIS8_IS9_SC_EEE5beginEv(ptr sret(%"struct.std::_Rb_tree_iterator.97") align 4 %__begin1187, ptr noundef nonnull align 4 dereferenceable(24) @_ZL17munitTransProfileB5cxx11) #3
  call void @_ZNSt3mapINSt7__cxx1112basic_stringIcSt11char_traitsIcESaIcEEES_IS5_iSt4lessIS5_ESaISt4pairIKS5_iEEES7_SaIS8_IS9_SC_EEE3endEv(ptr sret(%"struct.std::_Rb_tree_iterator.97") align 4 %__end1188, ptr noundef nonnull align 4 dereferenceable(24) @_ZL17munitTransProfileB5cxx11) #3
  br label %for.cond189

for.cond189:                                      ; preds = %for.inc217, %for.end185
  %call190 = call noundef zeroext i1 @_ZStneRKSt17_Rb_tree_iteratorISt4pairIKNSt7__cxx1112basic_stringIcSt11char_traitsIcESaIcEEESt3mapIS6_iSt4lessIS6_ESaIS0_IS7_iEEEEESH_(ptr noundef nonnull align 4 dereferenceable(4) %__begin1187, ptr noundef nonnull align 4 dereferenceable(4) %__end1188) #3
  br i1 %call190, label %for.body191, label %for.end219

for.body191:                                      ; preds = %for.cond189
  %call192 = call noundef nonnull align 4 dereferenceable(48) ptr @_ZNKSt17_Rb_tree_iteratorISt4pairIKNSt7__cxx1112basic_stringIcSt11char_traitsIcESaIcEEESt3mapIS6_iSt4lessIS6_ESaIS0_IS7_iEEEEEdeEv(ptr noundef nonnull align 4 dereferenceable(4) %__begin1187) #3
  invoke void @_ZNSt4pairINSt7__cxx1112basic_stringIcSt11char_traitsIcESaIcEEESt3mapIS5_iSt4lessIS5_ESaIS_IKS5_iEEEEC2IS9_SC_Lb1EEERKS_IT_T0_E(ptr noundef nonnull align 4 dereferenceable(48) %pair1, ptr noundef nonnull align 4 dereferenceable(48) %call192)
          to label %invoke.cont193 unwind label %lpad

invoke.cont193:                                   ; preds = %for.body191
  %second195 = getelementptr inbounds %"struct.std::pair.98", ptr %pair1, i32 0, i32 1
  store ptr %second195, ptr %__range2194, align 4
  %81 = load ptr, ptr %__range2194, align 4
  call void @_ZNSt3mapINSt7__cxx1112basic_stringIcSt11char_traitsIcESaIcEEEiSt4lessIS5_ESaISt4pairIKS5_iEEE5beginEv(ptr sret(%"struct.std::_Rb_tree_iterator") align 4 %__begin2196, ptr noundef nonnull align 4 dereferenceable(24) %81) #3
  %82 = load ptr, ptr %__range2194, align 4
  call void @_ZNSt3mapINSt7__cxx1112basic_stringIcSt11char_traitsIcESaIcEEEiSt4lessIS5_ESaISt4pairIKS5_iEEE3endEv(ptr sret(%"struct.std::_Rb_tree_iterator") align 4 %__end2197, ptr noundef nonnull align 4 dereferenceable(24) %82) #3
  br label %for.cond198

for.cond198:                                      ; preds = %for.inc213, %invoke.cont193
  %call199 = call noundef zeroext i1 @_ZStneRKSt17_Rb_tree_iteratorISt4pairIKNSt7__cxx1112basic_stringIcSt11char_traitsIcESaIcEEEiEESB_(ptr noundef nonnull align 4 dereferenceable(4) %__begin2196, ptr noundef nonnull align 4 dereferenceable(4) %__end2197) #3
  br i1 %call199, label %for.body200, label %for.end215

for.body200:                                      ; preds = %for.cond198
  %call201 = call noundef nonnull align 4 dereferenceable(28) ptr @_ZNKSt17_Rb_tree_iteratorISt4pairIKNSt7__cxx1112basic_stringIcSt11char_traitsIcESaIcEEEiEEdeEv(ptr noundef nonnull align 4 dereferenceable(4) %__begin2196) #3
  invoke void @_ZNSt4pairINSt7__cxx1112basic_stringIcSt11char_traitsIcESaIcEEEiEC2IKS5_iLb1EEERKS_IT_T0_E(ptr noundef nonnull align 4 dereferenceable(28) %pair2, ptr noundef nonnull align 4 dereferenceable(28) %call201)
          to label %invoke.cont203 unwind label %lpad202

invoke.cont203:                                   ; preds = %for.body200
  %83 = load ptr, ptr %looptraceinfoFile, align 4
  %first204 = getelementptr inbounds %"struct.std::pair.98", ptr %pair1, i32 0, i32 0
  %call205 = call noundef ptr @_ZNKSt7__cxx1112basic_stringIcSt11char_traitsIcESaIcEE5c_strEv(ptr noundef nonnull align 4 dereferenceable(24) %first204) #3
  %first206 = getelementptr inbounds %"struct.std::pair.87", ptr %pair2, i32 0, i32 0
  %call207 = call noundef ptr @_ZNKSt7__cxx1112basic_stringIcSt11char_traitsIcESaIcEE5c_strEv(ptr noundef nonnull align 4 dereferenceable(24) %first206) #3
  %second208 = getelementptr inbounds %"struct.std::pair.87", ptr %pair2, i32 0, i32 1
  %84 = load i32, ptr %second208, align 4
  %call211 = invoke i32 (ptr, ptr, ...) @fprintf(ptr noundef %83, ptr noundef @.str.67, ptr noundef %call205, ptr noundef %call207, i32 noundef %84)
          to label %invoke.cont210 unwind label %lpad209

invoke.cont210:                                   ; preds = %invoke.cont203
  call void @_ZNSt4pairINSt7__cxx1112basic_stringIcSt11char_traitsIcESaIcEEEiED2Ev(ptr noundef nonnull align 4 dereferenceable(28) %pair2) #3
  br label %for.inc213

for.inc213:                                       ; preds = %invoke.cont210
  %call214 = call noundef nonnull align 4 dereferenceable(4) ptr @_ZNSt17_Rb_tree_iteratorISt4pairIKNSt7__cxx1112basic_stringIcSt11char_traitsIcESaIcEEEiEEppEv(ptr noundef nonnull align 4 dereferenceable(4) %__begin2196) #3
  br label %for.cond198

lpad202:                                          ; preds = %for.body200
  %85 = landingpad { ptr, i32 }
          cleanup
  %86 = extractvalue { ptr, i32 } %85, 0
  store ptr %86, ptr %exn.slot, align 4
  %87 = extractvalue { ptr, i32 } %85, 1
  store i32 %87, ptr %ehselector.slot, align 4
  br label %ehcleanup216

lpad209:                                          ; preds = %invoke.cont203
  %88 = landingpad { ptr, i32 }
          cleanup
  %89 = extractvalue { ptr, i32 } %88, 0
  store ptr %89, ptr %exn.slot, align 4
  %90 = extractvalue { ptr, i32 } %88, 1
  store i32 %90, ptr %ehselector.slot, align 4
  call void @_ZNSt4pairINSt7__cxx1112basic_stringIcSt11char_traitsIcESaIcEEEiED2Ev(ptr noundef nonnull align 4 dereferenceable(28) %pair2) #3
  br label %ehcleanup216

for.end215:                                       ; preds = %for.cond198
  call void @_ZNSt4pairINSt7__cxx1112basic_stringIcSt11char_traitsIcESaIcEEESt3mapIS5_iSt4lessIS5_ESaIS_IKS5_iEEEED2Ev(ptr noundef nonnull align 4 dereferenceable(48) %pair1) #3
  br label %for.inc217

for.inc217:                                       ; preds = %for.end215
  %call218 = call noundef nonnull align 4 dereferenceable(4) ptr @_ZNSt17_Rb_tree_iteratorISt4pairIKNSt7__cxx1112basic_stringIcSt11char_traitsIcESaIcEEESt3mapIS6_iSt4lessIS6_ESaIS0_IS7_iEEEEEppEv(ptr noundef nonnull align 4 dereferenceable(4) %__begin1187) #3
  br label %for.cond189

ehcleanup216:                                     ; preds = %lpad209, %lpad202
  call void @_ZNSt4pairINSt7__cxx1112basic_stringIcSt11char_traitsIcESaIcEEESt3mapIS5_iSt4lessIS5_ESaIS_IKS5_iEEEED2Ev(ptr noundef nonnull align 4 dereferenceable(48) %pair1) #3
  br label %ehcleanup234

for.end219:                                       ; preds = %for.cond189
  %91 = load ptr, ptr @_ZL17MUnitInvTraceFile, align 4
  %call221 = invoke i32 (ptr, ptr, ...) @fprintf(ptr noundef %91, ptr noundef @.str.68)
          to label %invoke.cont220 unwind label %lpad

invoke.cont220:                                   ; preds = %for.end219
  %92 = load ptr, ptr @_ZL16loopInvTraceFile, align 4
  %call223 = invoke i32 (ptr, ptr, ...) @fprintf(ptr noundef %92, ptr noundef @.str.68)
          to label %invoke.cont222 unwind label %lpad

invoke.cont222:                                   ; preds = %invoke.cont220
  %93 = load ptr, ptr %looptraceinfoFile, align 4
  %call225 = invoke i32 (ptr, ptr, ...) @fprintf(ptr noundef %93, ptr noundef @.str.68)
          to label %invoke.cont224 unwind label %lpad

invoke.cont224:                                   ; preds = %invoke.cont222
  %94 = load ptr, ptr %looptraceinfoFile, align 4
  %call227 = invoke i32 (ptr, ptr, ...) @fprintf(ptr noundef %94, ptr noundef @.str.69)
          to label %invoke.cont226 unwind label %lpad

invoke.cont226:                                   ; preds = %invoke.cont224
  %95 = load ptr, ptr @_ZL17MUnitInvTraceFile, align 4
  %call229 = invoke i32 @fclose(ptr noundef %95)
          to label %invoke.cont228 unwind label %lpad

invoke.cont228:                                   ; preds = %invoke.cont226
  %96 = load ptr, ptr @_ZL16loopInvTraceFile, align 4
  %call231 = invoke i32 @fclose(ptr noundef %96)
          to label %invoke.cont230 unwind label %lpad

invoke.cont230:                                   ; preds = %invoke.cont228
  %97 = load ptr, ptr %looptraceinfoFile, align 4
  %call233 = invoke i32 @fclose(ptr noundef %97)
          to label %invoke.cont232 unwind label %lpad

invoke.cont232:                                   ; preds = %invoke.cont230
  call void @_ZNSt7__cxx1112basic_stringIcSt11char_traitsIcESaIcEED1Ev(ptr noundef nonnull align 4 dereferenceable(24) %looptraceinfoFileName) #3
  ret void

ehcleanup234:                                     ; preds = %ehcleanup216, %ehcleanup182, %ehcleanup139, %ehcleanup111, %lpad8, %lpad
  call void @_ZNSt7__cxx1112basic_stringIcSt11char_traitsIcESaIcEED1Ev(ptr noundef nonnull align 4 dereferenceable(24) %looptraceinfoFileName) #3
  br label %eh.resume

eh.resume:                                        ; preds = %ehcleanup234
  %exn = load ptr, ptr %exn.slot, align 4
  %sel = load i32, ptr %ehselector.slot, align 4
  %lpad.val = insertvalue { ptr, i32 } undef, ptr %exn, 0
  %lpad.val235 = insertvalue { ptr, i32 } %lpad.val, i32 %sel, 1
  resume { ptr, i32 } %lpad.val235
}

; Function Attrs: mustprogress noinline nounwind optnone uwtable
define linkonce_odr dso_local noundef nonnull align 4 dereferenceable(28) ptr @_ZNKSt17_Rb_tree_iteratorISt4pairIKNSt7__cxx1112basic_stringIcSt11char_traitsIcESaIcEEEiEEdeEv(ptr noundef nonnull align 4 dereferenceable(4) %this) #6 comdat align 2 {
entry:
  %this.addr = alloca ptr, align 4
  store ptr %this, ptr %this.addr, align 4
  %this1 = load ptr, ptr %this.addr, align 4
  %_M_node = getelementptr inbounds %"struct.std::_Rb_tree_iterator", ptr %this1, i32 0, i32 0
  %0 = load ptr, ptr %_M_node, align 4
  %call = call noundef ptr @_ZNSt13_Rb_tree_nodeISt4pairIKNSt7__cxx1112basic_stringIcSt11char_traitsIcESaIcEEEiEE9_M_valptrEv(ptr noundef nonnull align 4 dereferenceable(44) %0)
  ret ptr %call
}

; Function Attrs: noinline optnone uwtable
define linkonce_odr dso_local void @_ZNSt4pairINSt7__cxx1112basic_stringIcSt11char_traitsIcESaIcEEEiEC2IKS5_iLb1EEERKS_IT_T0_E(ptr noundef nonnull align 4 dereferenceable(28) %this, ptr noundef nonnull align 4 dereferenceable(28) %__p) unnamed_addr #7 comdat align 2 {
entry:
  %this.addr = alloca ptr, align 4
  %__p.addr = alloca ptr, align 4
  store ptr %this, ptr %this.addr, align 4
  store ptr %__p, ptr %__p.addr, align 4
  %this1 = load ptr, ptr %this.addr, align 4
  %first = getelementptr inbounds %"struct.std::pair.87", ptr %this1, i32 0, i32 0
  %0 = load ptr, ptr %__p.addr, align 4
  %first2 = getelementptr inbounds %"struct.std::pair.76", ptr %0, i32 0, i32 0
  call void @_ZNSt7__cxx1112basic_stringIcSt11char_traitsIcESaIcEEC1ERKS4_(ptr noundef nonnull align 4 dereferenceable(24) %first, ptr noundef nonnull align 4 dereferenceable(24) %first2)
  %second = getelementptr inbounds %"struct.std::pair.87", ptr %this1, i32 0, i32 1
  %1 = load ptr, ptr %__p.addr, align 4
  %second3 = getelementptr inbounds %"struct.std::pair.76", ptr %1, i32 0, i32 1
  %2 = load i32, ptr %second3, align 4
  store i32 %2, ptr %second, align 4
  ret void
}

; Function Attrs: noinline nounwind optnone uwtable
define linkonce_odr dso_local void @_ZNSt4pairINSt7__cxx1112basic_stringIcSt11char_traitsIcESaIcEEEiED2Ev(ptr noundef nonnull align 4 dereferenceable(28) %this) unnamed_addr #4 comdat align 2 {
entry:
  %this.addr = alloca ptr, align 4
  store ptr %this, ptr %this.addr, align 4
  %this1 = load ptr, ptr %this.addr, align 4
  %first = getelementptr inbounds %"struct.std::pair.87", ptr %this1, i32 0, i32 0
  call void @_ZNSt7__cxx1112basic_stringIcSt11char_traitsIcESaIcEED1Ev(ptr noundef nonnull align 4 dereferenceable(24) %first) #3
  ret void
}

; Function Attrs: mustprogress noinline nounwind optnone uwtable
define linkonce_odr dso_local noundef nonnull align 4 dereferenceable(4) ptr @_ZNSt17_Rb_tree_iteratorISt4pairIKNSt7__cxx1112basic_stringIcSt11char_traitsIcESaIcEEEiEEppEv(ptr noundef nonnull align 4 dereferenceable(4) %this) #6 comdat align 2 {
entry:
  %this.addr = alloca ptr, align 4
  store ptr %this, ptr %this.addr, align 4
  %this1 = load ptr, ptr %this.addr, align 4
  %_M_node = getelementptr inbounds %"struct.std::_Rb_tree_iterator", ptr %this1, i32 0, i32 0
  %0 = load ptr, ptr %_M_node, align 4
  %call = call noundef ptr @_ZSt18_Rb_tree_incrementPSt18_Rb_tree_node_base(ptr noundef %0) #20
  %_M_node2 = getelementptr inbounds %"struct.std::_Rb_tree_iterator", ptr %this1, i32 0, i32 0
  store ptr %call, ptr %_M_node2, align 4
  ret ptr %this1
}

; Function Attrs: mustprogress noinline nounwind optnone uwtable
define linkonce_odr dso_local void @_ZNSt3mapINSt7__cxx1112basic_stringIcSt11char_traitsIcESaIcEEESt3setIS5_St4lessIS5_ESaIS5_EES8_SaISt4pairIKS5_SA_EEE5beginEv(ptr noalias sret(%"struct.std::_Rb_tree_iterator.90") align 4 %agg.result, ptr noundef nonnull align 4 dereferenceable(24) %this) #6 comdat align 2 {
entry:
  %result.ptr = alloca ptr, align 4
  %this.addr = alloca ptr, align 4
  store ptr %agg.result, ptr %result.ptr, align 4
  store ptr %this, ptr %this.addr, align 4
  %this1 = load ptr, ptr %this.addr, align 4
  %_M_t = getelementptr inbounds %"class.std::map.22", ptr %this1, i32 0, i32 0
  call void @_ZNSt8_Rb_treeINSt7__cxx1112basic_stringIcSt11char_traitsIcESaIcEEESt4pairIKS5_St3setIS5_St4lessIS5_ESaIS5_EEESt10_Select1stISD_ESA_SaISD_EE5beginEv(ptr sret(%"struct.std::_Rb_tree_iterator.90") align 4 %agg.result, ptr noundef nonnull align 4 dereferenceable(24) %_M_t) #3
  ret void
}

; Function Attrs: mustprogress noinline nounwind optnone uwtable
define linkonce_odr dso_local void @_ZNSt3mapINSt7__cxx1112basic_stringIcSt11char_traitsIcESaIcEEESt3setIS5_St4lessIS5_ESaIS5_EES8_SaISt4pairIKS5_SA_EEE3endEv(ptr noalias sret(%"struct.std::_Rb_tree_iterator.90") align 4 %agg.result, ptr noundef nonnull align 4 dereferenceable(24) %this) #6 comdat align 2 {
entry:
  %result.ptr = alloca ptr, align 4
  %this.addr = alloca ptr, align 4
  store ptr %agg.result, ptr %result.ptr, align 4
  store ptr %this, ptr %this.addr, align 4
  %this1 = load ptr, ptr %this.addr, align 4
  %_M_t = getelementptr inbounds %"class.std::map.22", ptr %this1, i32 0, i32 0
  call void @_ZNSt8_Rb_treeINSt7__cxx1112basic_stringIcSt11char_traitsIcESaIcEEESt4pairIKS5_St3setIS5_St4lessIS5_ESaIS5_EEESt10_Select1stISD_ESA_SaISD_EE3endEv(ptr sret(%"struct.std::_Rb_tree_iterator.90") align 4 %agg.result, ptr noundef nonnull align 4 dereferenceable(24) %_M_t) #3
  ret void
}

; Function Attrs: mustprogress noinline nounwind optnone uwtable
define linkonce_odr dso_local noundef zeroext i1 @_ZStneRKSt17_Rb_tree_iteratorISt4pairIKNSt7__cxx1112basic_stringIcSt11char_traitsIcESaIcEEESt3setIS6_St4lessIS6_ESaIS6_EEEESG_(ptr noundef nonnull align 4 dereferenceable(4) %__x, ptr noundef nonnull align 4 dereferenceable(4) %__y) #6 comdat {
entry:
  %__x.addr = alloca ptr, align 4
  %__y.addr = alloca ptr, align 4
  store ptr %__x, ptr %__x.addr, align 4
  store ptr %__y, ptr %__y.addr, align 4
  %0 = load ptr, ptr %__x.addr, align 4
  %_M_node = getelementptr inbounds %"struct.std::_Rb_tree_iterator.90", ptr %0, i32 0, i32 0
  %1 = load ptr, ptr %_M_node, align 4
  %2 = load ptr, ptr %__y.addr, align 4
  %_M_node1 = getelementptr inbounds %"struct.std::_Rb_tree_iterator.90", ptr %2, i32 0, i32 0
  %3 = load ptr, ptr %_M_node1, align 4
  %cmp = icmp ne ptr %1, %3
  ret i1 %cmp
}

; Function Attrs: mustprogress noinline nounwind optnone uwtable
define linkonce_odr dso_local noundef nonnull align 4 dereferenceable(48) ptr @_ZNKSt17_Rb_tree_iteratorISt4pairIKNSt7__cxx1112basic_stringIcSt11char_traitsIcESaIcEEESt3setIS6_St4lessIS6_ESaIS6_EEEEdeEv(ptr noundef nonnull align 4 dereferenceable(4) %this) #6 comdat align 2 {
entry:
  %this.addr = alloca ptr, align 4
  store ptr %this, ptr %this.addr, align 4
  %this1 = load ptr, ptr %this.addr, align 4
  %_M_node = getelementptr inbounds %"struct.std::_Rb_tree_iterator.90", ptr %this1, i32 0, i32 0
  %0 = load ptr, ptr %_M_node, align 4
  %call = call noundef ptr @_ZNSt13_Rb_tree_nodeISt4pairIKNSt7__cxx1112basic_stringIcSt11char_traitsIcESaIcEEESt3setIS6_St4lessIS6_ESaIS6_EEEE9_M_valptrEv(ptr noundef nonnull align 4 dereferenceable(64) %0)
  ret ptr %call
}

; Function Attrs: noinline optnone uwtable
define linkonce_odr dso_local void @_ZNSt4pairINSt7__cxx1112basic_stringIcSt11char_traitsIcESaIcEEESt3setIS5_St4lessIS5_ESaIS5_EEEC2IKS5_SA_Lb1EEERKS_IT_T0_E(ptr noundef nonnull align 4 dereferenceable(48) %this, ptr noundef nonnull align 4 dereferenceable(48) %__p) unnamed_addr #7 comdat align 2 personality ptr @__gxx_personality_v0 {
entry:
  %this.addr = alloca ptr, align 4
  %__p.addr = alloca ptr, align 4
  %exn.slot = alloca ptr, align 4
  %ehselector.slot = alloca i32, align 4
  store ptr %this, ptr %this.addr, align 4
  store ptr %__p, ptr %__p.addr, align 4
  %this1 = load ptr, ptr %this.addr, align 4
  %first = getelementptr inbounds %"struct.std::pair.91", ptr %this1, i32 0, i32 0
  %0 = load ptr, ptr %__p.addr, align 4
  %first2 = getelementptr inbounds %"struct.std::pair.94", ptr %0, i32 0, i32 0
  call void @_ZNSt7__cxx1112basic_stringIcSt11char_traitsIcESaIcEEC1ERKS4_(ptr noundef nonnull align 4 dereferenceable(24) %first, ptr noundef nonnull align 4 dereferenceable(24) %first2)
  %second = getelementptr inbounds %"struct.std::pair.91", ptr %this1, i32 0, i32 1
  %1 = load ptr, ptr %__p.addr, align 4
  %second3 = getelementptr inbounds %"struct.std::pair.94", ptr %1, i32 0, i32 1
  invoke void @_ZNSt3setINSt7__cxx1112basic_stringIcSt11char_traitsIcESaIcEEESt4lessIS5_ESaIS5_EEC2ERKS9_(ptr noundef nonnull align 4 dereferenceable(24) %second, ptr noundef nonnull align 4 dereferenceable(24) %second3)
          to label %invoke.cont unwind label %lpad

invoke.cont:                                      ; preds = %entry
  ret void

lpad:                                             ; preds = %entry
  %2 = landingpad { ptr, i32 }
          cleanup
  %3 = extractvalue { ptr, i32 } %2, 0
  store ptr %3, ptr %exn.slot, align 4
  %4 = extractvalue { ptr, i32 } %2, 1
  store i32 %4, ptr %ehselector.slot, align 4
  call void @_ZNSt7__cxx1112basic_stringIcSt11char_traitsIcESaIcEED1Ev(ptr noundef nonnull align 4 dereferenceable(24) %first) #3
  br label %eh.resume

eh.resume:                                        ; preds = %lpad
  %exn = load ptr, ptr %exn.slot, align 4
  %sel = load i32, ptr %ehselector.slot, align 4
  %lpad.val = insertvalue { ptr, i32 } undef, ptr %exn, 0
  %lpad.val4 = insertvalue { ptr, i32 } %lpad.val, i32 %sel, 1
  resume { ptr, i32 } %lpad.val4
}

; Function Attrs: mustprogress noinline nounwind optnone uwtable
define linkonce_odr dso_local void @_ZNKSt3setINSt7__cxx1112basic_stringIcSt11char_traitsIcESaIcEEESt4lessIS5_ESaIS5_EE5beginEv(ptr noalias sret(%"struct.std::_Rb_tree_const_iterator") align 4 %agg.result, ptr noundef nonnull align 4 dereferenceable(24) %this) #6 comdat align 2 {
entry:
  %result.ptr = alloca ptr, align 4
  %this.addr = alloca ptr, align 4
  store ptr %agg.result, ptr %result.ptr, align 4
  store ptr %this, ptr %this.addr, align 4
  %this1 = load ptr, ptr %this.addr, align 4
  %_M_t = getelementptr inbounds %"class.std::set", ptr %this1, i32 0, i32 0
  call void @_ZNKSt8_Rb_treeINSt7__cxx1112basic_stringIcSt11char_traitsIcESaIcEEES5_St9_IdentityIS5_ESt4lessIS5_ESaIS5_EE5beginEv(ptr sret(%"struct.std::_Rb_tree_const_iterator") align 4 %agg.result, ptr noundef nonnull align 4 dereferenceable(24) %_M_t) #3
  ret void
}

; Function Attrs: mustprogress noinline nounwind optnone uwtable
define linkonce_odr dso_local noundef nonnull align 4 dereferenceable(24) ptr @_ZNKSt23_Rb_tree_const_iteratorINSt7__cxx1112basic_stringIcSt11char_traitsIcESaIcEEEEdeEv(ptr noundef nonnull align 4 dereferenceable(4) %this) #6 comdat align 2 {
entry:
  %this.addr = alloca ptr, align 4
  store ptr %this, ptr %this.addr, align 4
  %this1 = load ptr, ptr %this.addr, align 4
  %_M_node = getelementptr inbounds %"struct.std::_Rb_tree_const_iterator", ptr %this1, i32 0, i32 0
  %0 = load ptr, ptr %_M_node, align 4
  %call = call noundef ptr @_ZNKSt13_Rb_tree_nodeINSt7__cxx1112basic_stringIcSt11char_traitsIcESaIcEEEE9_M_valptrEv(ptr noundef nonnull align 4 dereferenceable(40) %0)
  ret ptr %call
}

; Function Attrs: mustprogress noinline nounwind optnone uwtable
define linkonce_odr dso_local noundef nonnull align 4 dereferenceable(4) ptr @_ZNSt23_Rb_tree_const_iteratorINSt7__cxx1112basic_stringIcSt11char_traitsIcESaIcEEEEppEv(ptr noundef nonnull align 4 dereferenceable(4) %this) #6 comdat align 2 {
entry:
  %this.addr = alloca ptr, align 4
  store ptr %this, ptr %this.addr, align 4
  %this1 = load ptr, ptr %this.addr, align 4
  %_M_node = getelementptr inbounds %"struct.std::_Rb_tree_const_iterator", ptr %this1, i32 0, i32 0
  %0 = load ptr, ptr %_M_node, align 4
  %call = call noundef ptr @_ZSt18_Rb_tree_incrementPKSt18_Rb_tree_node_base(ptr noundef %0) #20
  %_M_node2 = getelementptr inbounds %"struct.std::_Rb_tree_const_iterator", ptr %this1, i32 0, i32 0
  store ptr %call, ptr %_M_node2, align 4
  ret ptr %this1
}

; Function Attrs: mustprogress noinline nounwind optnone uwtable
define linkonce_odr dso_local noundef nonnull align 4 dereferenceable(4) ptr @_ZSt3maxIiERKT_S2_S2_(ptr noundef nonnull align 4 dereferenceable(4) %__a, ptr noundef nonnull align 4 dereferenceable(4) %__b) #6 comdat {
entry:
  %retval = alloca ptr, align 4
  %__a.addr = alloca ptr, align 4
  %__b.addr = alloca ptr, align 4
  store ptr %__a, ptr %__a.addr, align 4
  store ptr %__b, ptr %__b.addr, align 4
  %0 = load ptr, ptr %__a.addr, align 4
  %1 = load i32, ptr %0, align 4
  %2 = load ptr, ptr %__b.addr, align 4
  %3 = load i32, ptr %2, align 4
  %cmp = icmp slt i32 %1, %3
  br i1 %cmp, label %if.then, label %if.end

if.then:                                          ; preds = %entry
  %4 = load ptr, ptr %__b.addr, align 4
  store ptr %4, ptr %retval, align 4
  br label %return

if.end:                                           ; preds = %entry
  %5 = load ptr, ptr %__a.addr, align 4
  store ptr %5, ptr %retval, align 4
  br label %return

return:                                           ; preds = %if.end, %if.then
  %6 = load ptr, ptr %retval, align 4
  ret ptr %6
}

; Function Attrs: nocallback nofree nosync nounwind readnone speculatable willreturn
declare float @llvm.fmuladd.f32(float, float, float) #10

; Function Attrs: mustprogress noinline optnone uwtable
define linkonce_odr dso_local noundef nonnull align 4 dereferenceable(24) ptr @_ZNSt3mapINSt7__cxx1112basic_stringIcSt11char_traitsIcESaIcEEES5_St4lessIS5_ESaISt4pairIKS5_S5_EEEixERS9_(ptr noundef nonnull align 4 dereferenceable(24) %this, ptr noundef nonnull align 4 dereferenceable(24) %__k) #5 comdat align 2 {
entry:
  %this.addr = alloca ptr, align 4
  %__k.addr = alloca ptr, align 4
  %__i = alloca %"struct.std::_Rb_tree_iterator.105", align 4
  %ref.tmp = alloca %"struct.std::_Rb_tree_iterator.105", align 4
  %ref.tmp2 = alloca %"struct.std::less", align 1
  %ref.tmp5 = alloca %"struct.std::_Rb_tree_iterator.105", align 4
  %agg.tmp = alloca %"struct.std::_Rb_tree_const_iterator.188", align 4
  %ref.tmp6 = alloca %"class.std::tuple.170", align 4
  %ref.tmp7 = alloca %"class.std::tuple.158", align 1
  store ptr %this, ptr %this.addr, align 4
  store ptr %__k, ptr %__k.addr, align 4
  %this1 = load ptr, ptr %this.addr, align 4
  %0 = load ptr, ptr %__k.addr, align 4
  call void @_ZNSt3mapINSt7__cxx1112basic_stringIcSt11char_traitsIcESaIcEEES5_St4lessIS5_ESaISt4pairIKS5_S5_EEE11lower_boundERS9_(ptr sret(%"struct.std::_Rb_tree_iterator.105") align 4 %__i, ptr noundef nonnull align 4 dereferenceable(24) %this1, ptr noundef nonnull align 4 dereferenceable(24) %0)
  call void @_ZNSt3mapINSt7__cxx1112basic_stringIcSt11char_traitsIcESaIcEEES5_St4lessIS5_ESaISt4pairIKS5_S5_EEE3endEv(ptr sret(%"struct.std::_Rb_tree_iterator.105") align 4 %ref.tmp, ptr noundef nonnull align 4 dereferenceable(24) %this1) #3
  %call = call noundef zeroext i1 @_ZSteqRKSt17_Rb_tree_iteratorISt4pairIKNSt7__cxx1112basic_stringIcSt11char_traitsIcESaIcEEES6_EESB_(ptr noundef nonnull align 4 dereferenceable(4) %__i, ptr noundef nonnull align 4 dereferenceable(4) %ref.tmp) #3
  br i1 %call, label %lor.end, label %lor.rhs

lor.rhs:                                          ; preds = %entry
  call void @_ZNKSt3mapINSt7__cxx1112basic_stringIcSt11char_traitsIcESaIcEEES5_St4lessIS5_ESaISt4pairIKS5_S5_EEE8key_compEv(ptr sret(%"struct.std::less") align 1 %ref.tmp2, ptr noundef nonnull align 4 dereferenceable(24) %this1)
  %1 = load ptr, ptr %__k.addr, align 4
  %call3 = call noundef nonnull align 4 dereferenceable(48) ptr @_ZNKSt17_Rb_tree_iteratorISt4pairIKNSt7__cxx1112basic_stringIcSt11char_traitsIcESaIcEEES6_EEdeEv(ptr noundef nonnull align 4 dereferenceable(4) %__i) #3
  %first = getelementptr inbounds %"struct.std::pair.135", ptr %call3, i32 0, i32 0
  %call4 = call noundef zeroext i1 @_ZNKSt4lessINSt7__cxx1112basic_stringIcSt11char_traitsIcESaIcEEEEclERKS5_S8_(ptr noundef nonnull align 1 dereferenceable(1) %ref.tmp2, ptr noundef nonnull align 4 dereferenceable(24) %1, ptr noundef nonnull align 4 dereferenceable(24) %first)
  br label %lor.end

lor.end:                                          ; preds = %lor.rhs, %entry
  %2 = phi i1 [ true, %entry ], [ %call4, %lor.rhs ]
  br i1 %2, label %if.then, label %if.end

if.then:                                          ; preds = %lor.end
  %_M_t = getelementptr inbounds %"class.std::map.27", ptr %this1, i32 0, i32 0
  call void @_ZNSt23_Rb_tree_const_iteratorISt4pairIKNSt7__cxx1112basic_stringIcSt11char_traitsIcESaIcEEES6_EEC2ERKSt17_Rb_tree_iteratorIS8_E(ptr noundef nonnull align 4 dereferenceable(4) %agg.tmp, ptr noundef nonnull align 4 dereferenceable(4) %__i) #3
  %3 = load ptr, ptr %__k.addr, align 4
  call void @_ZNSt5tupleIJRKNSt7__cxx1112basic_stringIcSt11char_traitsIcESaIcEEEEEC2IvLb1EEES7_(ptr noundef nonnull align 4 dereferenceable(4) %ref.tmp6, ptr noundef nonnull align 4 dereferenceable(24) %3)
  call void @_ZNSt8_Rb_treeINSt7__cxx1112basic_stringIcSt11char_traitsIcESaIcEEESt4pairIKS5_S5_ESt10_Select1stIS8_ESt4lessIS5_ESaIS8_EE22_M_emplace_hint_uniqueIJRKSt21piecewise_construct_tSt5tupleIJRS7_EESJ_IJEEEEESt17_Rb_tree_iteratorIS8_ESt23_Rb_tree_const_iteratorIS8_EDpOT_(ptr sret(%"struct.std::_Rb_tree_iterator.105") align 4 %ref.tmp5, ptr noundef nonnull align 4 dereferenceable(24) %_M_t, ptr noundef byval(%"struct.std::_Rb_tree_const_iterator.188") align 4 %agg.tmp, ptr noundef nonnull align 1 dereferenceable(1) @_ZStL19piecewise_construct, ptr noundef nonnull align 4 dereferenceable(4) %ref.tmp6, ptr noundef nonnull align 1 dereferenceable(1) %ref.tmp7)
  call void @llvm.memcpy.p0.p0.i32(ptr align 4 %__i, ptr align 4 %ref.tmp5, i32 4, i1 false)
  br label %if.end

if.end:                                           ; preds = %if.then, %lor.end
  %call8 = call noundef nonnull align 4 dereferenceable(48) ptr @_ZNKSt17_Rb_tree_iteratorISt4pairIKNSt7__cxx1112basic_stringIcSt11char_traitsIcESaIcEEES6_EEdeEv(ptr noundef nonnull align 4 dereferenceable(4) %__i) #3
  %second = getelementptr inbounds %"struct.std::pair.135", ptr %call8, i32 0, i32 1
  ret ptr %second
}

; Function Attrs: noinline nounwind optnone uwtable
define linkonce_odr dso_local void @_ZNSt4pairINSt7__cxx1112basic_stringIcSt11char_traitsIcESaIcEEESt3setIS5_St4lessIS5_ESaIS5_EEED2Ev(ptr noundef nonnull align 4 dereferenceable(48) %this) unnamed_addr #4 comdat align 2 {
entry:
  %this.addr = alloca ptr, align 4
  store ptr %this, ptr %this.addr, align 4
  %this1 = load ptr, ptr %this.addr, align 4
  %second = getelementptr inbounds %"struct.std::pair.91", ptr %this1, i32 0, i32 1
  call void @_ZNSt3setINSt7__cxx1112basic_stringIcSt11char_traitsIcESaIcEEESt4lessIS5_ESaIS5_EED2Ev(ptr noundef nonnull align 4 dereferenceable(24) %second) #3
  %first = getelementptr inbounds %"struct.std::pair.91", ptr %this1, i32 0, i32 0
  call void @_ZNSt7__cxx1112basic_stringIcSt11char_traitsIcESaIcEED1Ev(ptr noundef nonnull align 4 dereferenceable(24) %first) #3
  ret void
}

; Function Attrs: mustprogress noinline nounwind optnone uwtable
define linkonce_odr dso_local noundef nonnull align 4 dereferenceable(4) ptr @_ZNSt17_Rb_tree_iteratorISt4pairIKNSt7__cxx1112basic_stringIcSt11char_traitsIcESaIcEEESt3setIS6_St4lessIS6_ESaIS6_EEEEppEv(ptr noundef nonnull align 4 dereferenceable(4) %this) #6 comdat align 2 {
entry:
  %this.addr = alloca ptr, align 4
  store ptr %this, ptr %this.addr, align 4
  %this1 = load ptr, ptr %this.addr, align 4
  %_M_node = getelementptr inbounds %"struct.std::_Rb_tree_iterator.90", ptr %this1, i32 0, i32 0
  %0 = load ptr, ptr %_M_node, align 4
  %call = call noundef ptr @_ZSt18_Rb_tree_incrementPSt18_Rb_tree_node_base(ptr noundef %0) #20
  %_M_node2 = getelementptr inbounds %"struct.std::_Rb_tree_iterator.90", ptr %this1, i32 0, i32 0
  store ptr %call, ptr %_M_node2, align 4
  ret ptr %this1
}

; Function Attrs: mustprogress noinline nounwind optnone uwtable
define linkonce_odr dso_local void @_ZNSt3mapINSt7__cxx1112basic_stringIcSt11char_traitsIcESaIcEEES_IS5_iSt4lessIS5_ESaISt4pairIKS5_iEEES7_SaIS8_IS9_SC_EEE5beginEv(ptr noalias sret(%"struct.std::_Rb_tree_iterator.97") align 4 %agg.result, ptr noundef nonnull align 4 dereferenceable(24) %this) #6 comdat align 2 {
entry:
  %result.ptr = alloca ptr, align 4
  %this.addr = alloca ptr, align 4
  store ptr %agg.result, ptr %result.ptr, align 4
  store ptr %this, ptr %this.addr, align 4
  %this1 = load ptr, ptr %this.addr, align 4
  %_M_t = getelementptr inbounds %"class.std::map.32", ptr %this1, i32 0, i32 0
  call void @_ZNSt8_Rb_treeINSt7__cxx1112basic_stringIcSt11char_traitsIcESaIcEEESt4pairIKS5_St3mapIS5_iSt4lessIS5_ESaIS6_IS7_iEEEESt10_Select1stISE_ESA_SaISE_EE5beginEv(ptr sret(%"struct.std::_Rb_tree_iterator.97") align 4 %agg.result, ptr noundef nonnull align 4 dereferenceable(24) %_M_t) #3
  ret void
}

; Function Attrs: mustprogress noinline nounwind optnone uwtable
define linkonce_odr dso_local void @_ZNSt3mapINSt7__cxx1112basic_stringIcSt11char_traitsIcESaIcEEES_IS5_iSt4lessIS5_ESaISt4pairIKS5_iEEES7_SaIS8_IS9_SC_EEE3endEv(ptr noalias sret(%"struct.std::_Rb_tree_iterator.97") align 4 %agg.result, ptr noundef nonnull align 4 dereferenceable(24) %this) #6 comdat align 2 {
entry:
  %result.ptr = alloca ptr, align 4
  %this.addr = alloca ptr, align 4
  store ptr %agg.result, ptr %result.ptr, align 4
  store ptr %this, ptr %this.addr, align 4
  %this1 = load ptr, ptr %this.addr, align 4
  %_M_t = getelementptr inbounds %"class.std::map.32", ptr %this1, i32 0, i32 0
  call void @_ZNSt8_Rb_treeINSt7__cxx1112basic_stringIcSt11char_traitsIcESaIcEEESt4pairIKS5_St3mapIS5_iSt4lessIS5_ESaIS6_IS7_iEEEESt10_Select1stISE_ESA_SaISE_EE3endEv(ptr sret(%"struct.std::_Rb_tree_iterator.97") align 4 %agg.result, ptr noundef nonnull align 4 dereferenceable(24) %_M_t) #3
  ret void
}

; Function Attrs: mustprogress noinline nounwind optnone uwtable
define linkonce_odr dso_local noundef zeroext i1 @_ZStneRKSt17_Rb_tree_iteratorISt4pairIKNSt7__cxx1112basic_stringIcSt11char_traitsIcESaIcEEESt3mapIS6_iSt4lessIS6_ESaIS0_IS7_iEEEEESH_(ptr noundef nonnull align 4 dereferenceable(4) %__x, ptr noundef nonnull align 4 dereferenceable(4) %__y) #6 comdat {
entry:
  %__x.addr = alloca ptr, align 4
  %__y.addr = alloca ptr, align 4
  store ptr %__x, ptr %__x.addr, align 4
  store ptr %__y, ptr %__y.addr, align 4
  %0 = load ptr, ptr %__x.addr, align 4
  %_M_node = getelementptr inbounds %"struct.std::_Rb_tree_iterator.97", ptr %0, i32 0, i32 0
  %1 = load ptr, ptr %_M_node, align 4
  %2 = load ptr, ptr %__y.addr, align 4
  %_M_node1 = getelementptr inbounds %"struct.std::_Rb_tree_iterator.97", ptr %2, i32 0, i32 0
  %3 = load ptr, ptr %_M_node1, align 4
  %cmp = icmp ne ptr %1, %3
  ret i1 %cmp
}

; Function Attrs: mustprogress noinline nounwind optnone uwtable
define linkonce_odr dso_local noundef nonnull align 4 dereferenceable(48) ptr @_ZNKSt17_Rb_tree_iteratorISt4pairIKNSt7__cxx1112basic_stringIcSt11char_traitsIcESaIcEEESt3mapIS6_iSt4lessIS6_ESaIS0_IS7_iEEEEEdeEv(ptr noundef nonnull align 4 dereferenceable(4) %this) #6 comdat align 2 {
entry:
  %this.addr = alloca ptr, align 4
  store ptr %this, ptr %this.addr, align 4
  %this1 = load ptr, ptr %this.addr, align 4
  %_M_node = getelementptr inbounds %"struct.std::_Rb_tree_iterator.97", ptr %this1, i32 0, i32 0
  %0 = load ptr, ptr %_M_node, align 4
  %call = call noundef ptr @_ZNSt13_Rb_tree_nodeISt4pairIKNSt7__cxx1112basic_stringIcSt11char_traitsIcESaIcEEESt3mapIS6_iSt4lessIS6_ESaIS0_IS7_iEEEEE9_M_valptrEv(ptr noundef nonnull align 4 dereferenceable(64) %0)
  ret ptr %call
}

; Function Attrs: noinline optnone uwtable
define linkonce_odr dso_local void @_ZNSt4pairINSt7__cxx1112basic_stringIcSt11char_traitsIcESaIcEEESt3mapIS5_iSt4lessIS5_ESaIS_IKS5_iEEEEC2IS9_SC_Lb1EEERKS_IT_T0_E(ptr noundef nonnull align 4 dereferenceable(48) %this, ptr noundef nonnull align 4 dereferenceable(48) %__p) unnamed_addr #7 comdat align 2 personality ptr @__gxx_personality_v0 {
entry:
  %this.addr = alloca ptr, align 4
  %__p.addr = alloca ptr, align 4
  %exn.slot = alloca ptr, align 4
  %ehselector.slot = alloca i32, align 4
  store ptr %this, ptr %this.addr, align 4
  store ptr %__p, ptr %__p.addr, align 4
  %this1 = load ptr, ptr %this.addr, align 4
  %first = getelementptr inbounds %"struct.std::pair.98", ptr %this1, i32 0, i32 0
  %0 = load ptr, ptr %__p.addr, align 4
  %first2 = getelementptr inbounds %"struct.std::pair.101", ptr %0, i32 0, i32 0
  call void @_ZNSt7__cxx1112basic_stringIcSt11char_traitsIcESaIcEEC1ERKS4_(ptr noundef nonnull align 4 dereferenceable(24) %first, ptr noundef nonnull align 4 dereferenceable(24) %first2)
  %second = getelementptr inbounds %"struct.std::pair.98", ptr %this1, i32 0, i32 1
  %1 = load ptr, ptr %__p.addr, align 4
  %second3 = getelementptr inbounds %"struct.std::pair.101", ptr %1, i32 0, i32 1
  invoke void @_ZNSt3mapINSt7__cxx1112basic_stringIcSt11char_traitsIcESaIcEEEiSt4lessIS5_ESaISt4pairIKS5_iEEEC2ERKSC_(ptr noundef nonnull align 4 dereferenceable(24) %second, ptr noundef nonnull align 4 dereferenceable(24) %second3)
          to label %invoke.cont unwind label %lpad

invoke.cont:                                      ; preds = %entry
  ret void

lpad:                                             ; preds = %entry
  %2 = landingpad { ptr, i32 }
          cleanup
  %3 = extractvalue { ptr, i32 } %2, 0
  store ptr %3, ptr %exn.slot, align 4
  %4 = extractvalue { ptr, i32 } %2, 1
  store i32 %4, ptr %ehselector.slot, align 4
  call void @_ZNSt7__cxx1112basic_stringIcSt11char_traitsIcESaIcEED1Ev(ptr noundef nonnull align 4 dereferenceable(24) %first) #3
  br label %eh.resume

eh.resume:                                        ; preds = %lpad
  %exn = load ptr, ptr %exn.slot, align 4
  %sel = load i32, ptr %ehselector.slot, align 4
  %lpad.val = insertvalue { ptr, i32 } undef, ptr %exn, 0
  %lpad.val4 = insertvalue { ptr, i32 } %lpad.val, i32 %sel, 1
  resume { ptr, i32 } %lpad.val4
}

; Function Attrs: noinline nounwind optnone uwtable
define linkonce_odr dso_local void @_ZNSt4pairINSt7__cxx1112basic_stringIcSt11char_traitsIcESaIcEEESt3mapIS5_iSt4lessIS5_ESaIS_IKS5_iEEEED2Ev(ptr noundef nonnull align 4 dereferenceable(48) %this) unnamed_addr #4 comdat align 2 {
entry:
  %this.addr = alloca ptr, align 4
  store ptr %this, ptr %this.addr, align 4
  %this1 = load ptr, ptr %this.addr, align 4
  %second = getelementptr inbounds %"struct.std::pair.98", ptr %this1, i32 0, i32 1
  call void @_ZNSt3mapINSt7__cxx1112basic_stringIcSt11char_traitsIcESaIcEEEiSt4lessIS5_ESaISt4pairIKS5_iEEED2Ev(ptr noundef nonnull align 4 dereferenceable(24) %second) #3
  %first = getelementptr inbounds %"struct.std::pair.98", ptr %this1, i32 0, i32 0
  call void @_ZNSt7__cxx1112basic_stringIcSt11char_traitsIcESaIcEED1Ev(ptr noundef nonnull align 4 dereferenceable(24) %first) #3
  ret void
}

; Function Attrs: mustprogress noinline nounwind optnone uwtable
define linkonce_odr dso_local noundef nonnull align 4 dereferenceable(4) ptr @_ZNSt17_Rb_tree_iteratorISt4pairIKNSt7__cxx1112basic_stringIcSt11char_traitsIcESaIcEEESt3mapIS6_iSt4lessIS6_ESaIS0_IS7_iEEEEEppEv(ptr noundef nonnull align 4 dereferenceable(4) %this) #6 comdat align 2 {
entry:
  %this.addr = alloca ptr, align 4
  store ptr %this, ptr %this.addr, align 4
  %this1 = load ptr, ptr %this.addr, align 4
  %_M_node = getelementptr inbounds %"struct.std::_Rb_tree_iterator.97", ptr %this1, i32 0, i32 0
  %0 = load ptr, ptr %_M_node, align 4
  %call = call noundef ptr @_ZSt18_Rb_tree_incrementPSt18_Rb_tree_node_base(ptr noundef %0) #20
  %_M_node2 = getelementptr inbounds %"struct.std::_Rb_tree_iterator.97", ptr %this1, i32 0, i32 0
  store ptr %call, ptr %_M_node2, align 4
  ret ptr %this1
}

; Function Attrs: mustprogress noinline nounwind optnone uwtable
define dso_local void @reportExecInsCount(i32 noundef %count) #6 {
entry:
  %count.addr = alloca i32, align 4
  store i32 %count, ptr %count.addr, align 4
  %0 = load i32, ptr %count.addr, align 4
  %1 = load i32, ptr @_ZL18currentExecutedIns, align 4
  %add = add nsw i32 %1, %0
  store i32 %add, ptr @_ZL18currentExecutedIns, align 4
  ret void
}

; Function Attrs: mustprogress noinline optnone uwtable
define dso_local void @loopInvoke(ptr noundef %loopName) #5 personality ptr @__gxx_personality_v0 {
entry:
  %loopName.addr = alloca ptr, align 4
  %ln = alloca %"class.std::__cxx11::basic_string", align 4
  %ref.tmp = alloca %"class.std::allocator.19", align 1
  %exn.slot = alloca ptr, align 4
  %ehselector.slot = alloca i32, align 4
  %loopNumber = alloca %"class.std::__cxx11::basic_string", align 4
  %loopNumberInt = alloca i32, align 4
  %ss = alloca %"class.std::__cxx11::basic_stringstream", align 4
  %i = alloca i32, align 4
  store ptr %loopName, ptr %loopName.addr, align 4
  %0 = load ptr, ptr %loopName.addr, align 4
  call void @_ZNSaIcEC1Ev(ptr noundef nonnull align 1 dereferenceable(1) %ref.tmp) #3
  invoke void @_ZNSt7__cxx1112basic_stringIcSt11char_traitsIcESaIcEEC1EPKcRKS3_(ptr noundef nonnull align 4 dereferenceable(24) %ln, ptr noundef %0, ptr noundef nonnull align 1 dereferenceable(1) %ref.tmp)
          to label %invoke.cont unwind label %lpad

invoke.cont:                                      ; preds = %entry
  call void @_ZNSaIcED1Ev(ptr noundef nonnull align 1 dereferenceable(1) %ref.tmp) #3
  invoke void @_ZNKSt7__cxx1112basic_stringIcSt11char_traitsIcESaIcEE6substrEjj(ptr sret(%"class.std::__cxx11::basic_string") align 4 %loopNumber, ptr noundef nonnull align 4 dereferenceable(24) %ln, i32 noundef 2, i32 noundef -1)
          to label %invoke.cont2 unwind label %lpad1

invoke.cont2:                                     ; preds = %invoke.cont
  %call = call noundef ptr @_ZNKSt7__cxx1112basic_stringIcSt11char_traitsIcESaIcEE5c_strEv(ptr noundef nonnull align 4 dereferenceable(24) %loopNumber) #3
  %call3 = call i32 @atoi(ptr noundef %call) #20
  store i32 %call3, ptr %loopNumberInt, align 4
  invoke void @_ZNSt7__cxx1118basic_stringstreamIcSt11char_traitsIcESaIcEEC1Ev(ptr noundef nonnull align 4 dereferenceable(72) %ss)
          to label %invoke.cont5 unwind label %lpad4

invoke.cont5:                                     ; preds = %invoke.cont2
  %call6 = call noundef i32 @_ZNKSt7__cxx1112basic_stringIcSt11char_traitsIcESaIcEE4sizeEv(ptr noundef nonnull align 4 dereferenceable(24) %loopNumber) #3
  store i32 %call6, ptr %i, align 4
  br label %for.cond

for.cond:                                         ; preds = %for.inc, %invoke.cont5
  %1 = load i32, ptr %i, align 4
  %cmp = icmp slt i32 %1, 3
  br i1 %cmp, label %for.body, label %for.end

for.body:                                         ; preds = %for.cond
  %2 = load i32, ptr %loopNumberInt, align 4
  %mul = mul nsw i32 %2, 10
  store i32 %mul, ptr %loopNumberInt, align 4
  br label %for.inc

for.inc:                                          ; preds = %for.body
  %3 = load i32, ptr %i, align 4
  %inc = add nsw i32 %3, 1
  store i32 %inc, ptr %i, align 4
  br label %for.cond, !llvm.loop !17

lpad:                                             ; preds = %entry
  %4 = landingpad { ptr, i32 }
          cleanup
  %5 = extractvalue { ptr, i32 } %4, 0
  store ptr %5, ptr %exn.slot, align 4
  %6 = extractvalue { ptr, i32 } %4, 1
  store i32 %6, ptr %ehselector.slot, align 4
  call void @_ZNSaIcED1Ev(ptr noundef nonnull align 1 dereferenceable(1) %ref.tmp) #3
  br label %eh.resume

lpad1:                                            ; preds = %invoke.cont
  %7 = landingpad { ptr, i32 }
          cleanup
  %8 = extractvalue { ptr, i32 } %7, 0
  store ptr %8, ptr %exn.slot, align 4
  %9 = extractvalue { ptr, i32 } %7, 1
  store i32 %9, ptr %ehselector.slot, align 4
  br label %ehcleanup11

lpad4:                                            ; preds = %invoke.cont2
  %10 = landingpad { ptr, i32 }
          cleanup
  %11 = extractvalue { ptr, i32 } %10, 0
  store ptr %11, ptr %exn.slot, align 4
  %12 = extractvalue { ptr, i32 } %10, 1
  store i32 %12, ptr %ehselector.slot, align 4
  br label %ehcleanup

for.end:                                          ; preds = %for.cond
  %add.ptr = getelementptr inbounds i8, ptr %ss, i32 8
  %call9 = invoke noundef nonnull align 4 dereferenceable(4) ptr @_ZStlsIcSt11char_traitsIcESaIcEERSt13basic_ostreamIT_T0_ES7_RKNSt7__cxx1112basic_stringIS4_S5_T1_EE(ptr noundef nonnull align 4 dereferenceable(4) %add.ptr, ptr noundef nonnull align 4 dereferenceable(24) %loopNumber)
          to label %invoke.cont8 unwind label %lpad7

invoke.cont8:                                     ; preds = %for.end
  %13 = load ptr, ptr @_ZL16loopInvTraceFile, align 4
  %cmp10 = icmp ne ptr %13, null
  br i1 %cmp10, label %cond.true, label %cond.false

cond.true:                                        ; preds = %invoke.cont8
  br label %cond.end

cond.false:                                       ; preds = %invoke.cont8
  call void @__assert_fail(ptr noundef @.str.49, ptr noundef @.str.46, i32 noundef 387, ptr noundef @__PRETTY_FUNCTION__.loopInvoke) #19
  unreachable

lpad7:                                            ; preds = %for.end
  %14 = landingpad { ptr, i32 }
          cleanup
  %15 = extractvalue { ptr, i32 } %14, 0
  store ptr %15, ptr %exn.slot, align 4
  %16 = extractvalue { ptr, i32 } %14, 1
  store i32 %16, ptr %ehselector.slot, align 4
  call void @_ZNSt7__cxx1118basic_stringstreamIcSt11char_traitsIcESaIcEED1Ev(ptr noundef nonnull align 4 dereferenceable(72) %ss) #3
  br label %ehcleanup

17:                                               ; No predecessors!
  br label %cond.end

cond.end:                                         ; preds = %17, %cond.true
  call void @_ZNSt7__cxx1118basic_stringstreamIcSt11char_traitsIcESaIcEED1Ev(ptr noundef nonnull align 4 dereferenceable(72) %ss) #3
  call void @_ZNSt7__cxx1112basic_stringIcSt11char_traitsIcESaIcEED1Ev(ptr noundef nonnull align 4 dereferenceable(24) %loopNumber) #3
  call void @_ZNSt7__cxx1112basic_stringIcSt11char_traitsIcESaIcEED1Ev(ptr noundef nonnull align 4 dereferenceable(24) %ln) #3
  ret void

ehcleanup:                                        ; preds = %lpad7, %lpad4
  call void @_ZNSt7__cxx1112basic_stringIcSt11char_traitsIcESaIcEED1Ev(ptr noundef nonnull align 4 dereferenceable(24) %loopNumber) #3
  br label %ehcleanup11

ehcleanup11:                                      ; preds = %ehcleanup, %lpad1
  call void @_ZNSt7__cxx1112basic_stringIcSt11char_traitsIcESaIcEED1Ev(ptr noundef nonnull align 4 dereferenceable(24) %ln) #3
  br label %eh.resume

eh.resume:                                        ; preds = %ehcleanup11, %lpad
  %exn = load ptr, ptr %exn.slot, align 4
  %sel = load i32, ptr %ehselector.slot, align 4
  %lpad.val = insertvalue { ptr, i32 } undef, ptr %exn, 0
  %lpad.val12 = insertvalue { ptr, i32 } %lpad.val, i32 %sel, 1
  resume { ptr, i32 } %lpad.val12
}

declare void @_ZNKSt7__cxx1112basic_stringIcSt11char_traitsIcESaIcEE6substrEjj(ptr sret(%"class.std::__cxx11::basic_string") align 4, ptr noundef nonnull align 4 dereferenceable(24), i32 noundef, i32 noundef) #1

; Function Attrs: nounwind readonly willreturn
declare i32 @atoi(ptr noundef) #11

; Function Attrs: nounwind
declare noundef i32 @_ZNKSt7__cxx1112basic_stringIcSt11char_traitsIcESaIcEE4sizeEv(ptr noundef nonnull align 4 dereferenceable(24)) #2

; Function Attrs: mustprogress noinline optnone uwtable
define dso_local void @loopInvokeEnd(ptr noundef %loopName) #5 personality ptr @__gxx_personality_v0 {
entry:
  %loopName.addr = alloca ptr, align 4
  %ln = alloca %"class.std::__cxx11::basic_string", align 4
  %ref.tmp = alloca %"class.std::allocator.19", align 1
  %exn.slot = alloca ptr, align 4
  %ehselector.slot = alloca i32, align 4
  %loopNumber = alloca %"class.std::__cxx11::basic_string", align 4
  %loopNumberInt = alloca i32, align 4
  %ss = alloca %"class.std::__cxx11::basic_stringstream", align 4
  %i = alloca i32, align 4
  %sstrig = alloca %"class.std::__cxx11::basic_stringstream", align 4
  %__range1 = alloca ptr, align 4
  %__begin1 = alloca %"class.__gnu_cxx::__normal_iterator", align 4
  %__end1 = alloca %"class.__gnu_cxx::__normal_iterator", align 4
  %pi = alloca %struct.pathInfo, align 4
  %__range2 = alloca ptr, align 4
  %ref.tmp24 = alloca %"class.std::vector", align 4
  %__begin2 = alloca %"class.__gnu_cxx::__normal_iterator.104", align 4
  %__end2 = alloca %"class.__gnu_cxx::__normal_iterator.104", align 4
  %bbName = alloca %"class.std::__cxx11::basic_string", align 4
  store ptr %loopName, ptr %loopName.addr, align 4
  %0 = load ptr, ptr %loopName.addr, align 4
  call void @_ZNSaIcEC1Ev(ptr noundef nonnull align 1 dereferenceable(1) %ref.tmp) #3
  invoke void @_ZNSt7__cxx1112basic_stringIcSt11char_traitsIcESaIcEEC1EPKcRKS3_(ptr noundef nonnull align 4 dereferenceable(24) %ln, ptr noundef %0, ptr noundef nonnull align 1 dereferenceable(1) %ref.tmp)
          to label %invoke.cont unwind label %lpad

invoke.cont:                                      ; preds = %entry
  call void @_ZNSaIcED1Ev(ptr noundef nonnull align 1 dereferenceable(1) %ref.tmp) #3
  invoke void @_ZNKSt7__cxx1112basic_stringIcSt11char_traitsIcESaIcEE6substrEjj(ptr sret(%"class.std::__cxx11::basic_string") align 4 %loopNumber, ptr noundef nonnull align 4 dereferenceable(24) %ln, i32 noundef 2, i32 noundef -1)
          to label %invoke.cont2 unwind label %lpad1

invoke.cont2:                                     ; preds = %invoke.cont
  %call = call noundef ptr @_ZNKSt7__cxx1112basic_stringIcSt11char_traitsIcESaIcEE5c_strEv(ptr noundef nonnull align 4 dereferenceable(24) %loopNumber) #3
  %call3 = call i32 @atoi(ptr noundef %call) #20
  store i32 %call3, ptr %loopNumberInt, align 4
  invoke void @_ZNSt7__cxx1118basic_stringstreamIcSt11char_traitsIcESaIcEEC1Ev(ptr noundef nonnull align 4 dereferenceable(72) %ss)
          to label %invoke.cont5 unwind label %lpad4

invoke.cont5:                                     ; preds = %invoke.cont2
  %call6 = call noundef i32 @_ZNKSt7__cxx1112basic_stringIcSt11char_traitsIcESaIcEE4sizeEv(ptr noundef nonnull align 4 dereferenceable(24) %loopNumber) #3
  store i32 %call6, ptr %i, align 4
  br label %for.cond

for.cond:                                         ; preds = %for.inc, %invoke.cont5
  %1 = load i32, ptr %i, align 4
  %cmp = icmp slt i32 %1, 3
  br i1 %cmp, label %for.body, label %for.end

for.body:                                         ; preds = %for.cond
  %2 = load i32, ptr %loopNumberInt, align 4
  %mul = mul nsw i32 %2, 10
  store i32 %mul, ptr %loopNumberInt, align 4
  br label %for.inc

for.inc:                                          ; preds = %for.body
  %3 = load i32, ptr %i, align 4
  %inc = add nsw i32 %3, 1
  store i32 %inc, ptr %i, align 4
  br label %for.cond, !llvm.loop !18

lpad:                                             ; preds = %entry
  %4 = landingpad { ptr, i32 }
          cleanup
  %5 = extractvalue { ptr, i32 } %4, 0
  store ptr %5, ptr %exn.slot, align 4
  %6 = extractvalue { ptr, i32 } %4, 1
  store i32 %6, ptr %ehselector.slot, align 4
  call void @_ZNSaIcED1Ev(ptr noundef nonnull align 1 dereferenceable(1) %ref.tmp) #3
  br label %eh.resume

lpad1:                                            ; preds = %invoke.cont
  %7 = landingpad { ptr, i32 }
          cleanup
  %8 = extractvalue { ptr, i32 } %7, 0
  store ptr %8, ptr %exn.slot, align 4
  %9 = extractvalue { ptr, i32 } %7, 1
  store i32 %9, ptr %ehselector.slot, align 4
  br label %ehcleanup57

lpad4:                                            ; preds = %invoke.cont2
  %10 = landingpad { ptr, i32 }
          cleanup
  %11 = extractvalue { ptr, i32 } %10, 0
  store ptr %11, ptr %exn.slot, align 4
  %12 = extractvalue { ptr, i32 } %10, 1
  store i32 %12, ptr %ehselector.slot, align 4
  br label %ehcleanup56

for.end:                                          ; preds = %for.cond
  %add.ptr = getelementptr inbounds i8, ptr %ss, i32 8
  %call9 = invoke noundef nonnull align 4 dereferenceable(4) ptr @_ZStlsIcSt11char_traitsIcESaIcEERSt13basic_ostreamIT_T0_ES7_RKNSt7__cxx1112basic_stringIS4_S5_T1_EE(ptr noundef nonnull align 4 dereferenceable(4) %add.ptr, ptr noundef nonnull align 4 dereferenceable(24) %loopNumber)
          to label %invoke.cont8 unwind label %lpad7

invoke.cont8:                                     ; preds = %for.end
  invoke void @_ZNSt7__cxx1118basic_stringstreamIcSt11char_traitsIcESaIcEEC1Ev(ptr noundef nonnull align 4 dereferenceable(72) %sstrig)
          to label %invoke.cont10 unwind label %lpad7

invoke.cont10:                                    ; preds = %invoke.cont8
  %13 = load ptr, ptr %loopName.addr, align 4
  invoke void @reportLoopEnd(ptr noundef %13)
          to label %invoke.cont12 unwind label %lpad11

invoke.cont12:                                    ; preds = %invoke.cont10
  store ptr @pathTrace, ptr %__range1, align 4
  call void @_ZNSt6vectorI8pathInfoSaIS0_EE5beginEv(ptr sret(%"class.__gnu_cxx::__normal_iterator") align 4 %__begin1, ptr noundef nonnull align 4 dereferenceable(12) @pathTrace) #3
  call void @_ZNSt6vectorI8pathInfoSaIS0_EE3endEv(ptr sret(%"class.__gnu_cxx::__normal_iterator") align 4 %__end1, ptr noundef nonnull align 4 dereferenceable(12) @pathTrace) #3
  br label %for.cond13

for.cond13:                                       ; preds = %for.inc51, %invoke.cont12
  %call14 = call noundef zeroext i1 @_ZN9__gnu_cxxneIP8pathInfoSt6vectorIS1_SaIS1_EEEEbRKNS_17__normal_iteratorIT_T0_EESB_(ptr noundef nonnull align 4 dereferenceable(4) %__begin1, ptr noundef nonnull align 4 dereferenceable(4) %__end1) #3
  br i1 %call14, label %for.body15, label %for.end53

for.body15:                                       ; preds = %for.cond13
  %call16 = call noundef nonnull align 4 dereferenceable(16) ptr @_ZNK9__gnu_cxx17__normal_iteratorIP8pathInfoSt6vectorIS1_SaIS1_EEEdeEv(ptr noundef nonnull align 4 dereferenceable(4) %__begin1) #3
  invoke void @_ZN8pathInfoC2ERKS_(ptr noundef nonnull align 4 dereferenceable(16) %pi, ptr noundef nonnull align 4 dereferenceable(16) %call16)
          to label %invoke.cont17 unwind label %lpad11

invoke.cont17:                                    ; preds = %for.body15
  %add.ptr18 = getelementptr inbounds i8, ptr %sstrig, i32 8
  %call21 = invoke noundef nonnull align 4 dereferenceable(4) ptr @_ZStlsIcSt11char_traitsIcESaIcEERSt13basic_ostreamIT_T0_ES7_RKNSt7__cxx1112basic_stringIS4_S5_T1_EE(ptr noundef nonnull align 4 dereferenceable(4) %add.ptr18, ptr noundef nonnull align 4 dereferenceable(24) %ln)
          to label %invoke.cont20 unwind label %lpad19

invoke.cont20:                                    ; preds = %invoke.cont17
  %call23 = invoke noundef nonnull align 4 dereferenceable(4) ptr @_ZStlsISt11char_traitsIcEERSt13basic_ostreamIcT_ES5_PKc(ptr noundef nonnull align 4 dereferenceable(4) %call21, ptr noundef @.str.27)
          to label %invoke.cont22 unwind label %lpad19

invoke.cont22:                                    ; preds = %invoke.cont20
  invoke void @_ZN8pathInfo12getBBStrArryB5cxx11Ev(ptr sret(%"class.std::vector") align 4 %ref.tmp24, ptr noundef nonnull align 4 dereferenceable(16) %pi)
          to label %invoke.cont25 unwind label %lpad19

invoke.cont25:                                    ; preds = %invoke.cont22
  store ptr %ref.tmp24, ptr %__range2, align 4
  %14 = load ptr, ptr %__range2, align 4
  call void @_ZNSt6vectorINSt7__cxx1112basic_stringIcSt11char_traitsIcESaIcEEESaIS5_EE5beginEv(ptr sret(%"class.__gnu_cxx::__normal_iterator.104") align 4 %__begin2, ptr noundef nonnull align 4 dereferenceable(12) %14) #3
  %15 = load ptr, ptr %__range2, align 4
  call void @_ZNSt6vectorINSt7__cxx1112basic_stringIcSt11char_traitsIcESaIcEEESaIS5_EE3endEv(ptr sret(%"class.__gnu_cxx::__normal_iterator.104") align 4 %__end2, ptr noundef nonnull align 4 dereferenceable(12) %15) #3
  br label %for.cond26

for.cond26:                                       ; preds = %for.inc38, %invoke.cont25
  %call27 = call noundef zeroext i1 @_ZN9__gnu_cxxneIPNSt7__cxx1112basic_stringIcSt11char_traitsIcESaIcEEESt6vectorIS6_SaIS6_EEEEbRKNS_17__normal_iteratorIT_T0_EESG_(ptr noundef nonnull align 4 dereferenceable(4) %__begin2, ptr noundef nonnull align 4 dereferenceable(4) %__end2) #3
  br i1 %call27, label %for.body28, label %for.cond.cleanup

for.cond.cleanup:                                 ; preds = %for.cond26
  call void @_ZNSt6vectorINSt7__cxx1112basic_stringIcSt11char_traitsIcESaIcEEESaIS5_EED2Ev(ptr noundef nonnull align 4 dereferenceable(12) %ref.tmp24) #3
  br label %for.end40

lpad7:                                            ; preds = %invoke.cont8, %for.end
  %16 = landingpad { ptr, i32 }
          cleanup
  %17 = extractvalue { ptr, i32 } %16, 0
  store ptr %17, ptr %exn.slot, align 4
  %18 = extractvalue { ptr, i32 } %16, 1
  store i32 %18, ptr %ehselector.slot, align 4
  br label %ehcleanup55

lpad11:                                           ; preds = %for.body15, %invoke.cont10
  %19 = landingpad { ptr, i32 }
          cleanup
  %20 = extractvalue { ptr, i32 } %19, 0
  store ptr %20, ptr %exn.slot, align 4
  %21 = extractvalue { ptr, i32 } %19, 1
  store i32 %21, ptr %ehselector.slot, align 4
  br label %ehcleanup54

lpad19:                                           ; preds = %invoke.cont46, %invoke.cont44, %invoke.cont42, %for.end40, %invoke.cont22, %invoke.cont20, %invoke.cont17
  %22 = landingpad { ptr, i32 }
          cleanup
  %23 = extractvalue { ptr, i32 } %22, 0
  store ptr %23, ptr %exn.slot, align 4
  %24 = extractvalue { ptr, i32 } %22, 1
  store i32 %24, ptr %ehselector.slot, align 4
  br label %ehcleanup50

for.body28:                                       ; preds = %for.cond26
  %call29 = call noundef nonnull align 4 dereferenceable(24) ptr @_ZNK9__gnu_cxx17__normal_iteratorIPNSt7__cxx1112basic_stringIcSt11char_traitsIcESaIcEEESt6vectorIS6_SaIS6_EEEdeEv(ptr noundef nonnull align 4 dereferenceable(4) %__begin2) #3
  invoke void @_ZNSt7__cxx1112basic_stringIcSt11char_traitsIcESaIcEEC1ERKS4_(ptr noundef nonnull align 4 dereferenceable(24) %bbName, ptr noundef nonnull align 4 dereferenceable(24) %call29)
          to label %invoke.cont31 unwind label %lpad30

invoke.cont31:                                    ; preds = %for.body28
  %add.ptr32 = getelementptr inbounds i8, ptr %sstrig, i32 8
  %call35 = invoke noundef nonnull align 4 dereferenceable(4) ptr @_ZStlsIcSt11char_traitsIcESaIcEERSt13basic_ostreamIT_T0_ES7_RKNSt7__cxx1112basic_stringIS4_S5_T1_EE(ptr noundef nonnull align 4 dereferenceable(4) %add.ptr32, ptr noundef nonnull align 4 dereferenceable(24) %bbName)
          to label %invoke.cont34 unwind label %lpad33

invoke.cont34:                                    ; preds = %invoke.cont31
  %call37 = invoke noundef nonnull align 4 dereferenceable(4) ptr @_ZStlsISt11char_traitsIcEERSt13basic_ostreamIcT_ES5_PKc(ptr noundef nonnull align 4 dereferenceable(4) %call35, ptr noundef @.str.70)
          to label %invoke.cont36 unwind label %lpad33

invoke.cont36:                                    ; preds = %invoke.cont34
  call void @_ZNSt7__cxx1112basic_stringIcSt11char_traitsIcESaIcEED1Ev(ptr noundef nonnull align 4 dereferenceable(24) %bbName) #3
  br label %for.inc38

for.inc38:                                        ; preds = %invoke.cont36
  %call39 = call noundef nonnull align 4 dereferenceable(4) ptr @_ZN9__gnu_cxx17__normal_iteratorIPNSt7__cxx1112basic_stringIcSt11char_traitsIcESaIcEEESt6vectorIS6_SaIS6_EEEppEv(ptr noundef nonnull align 4 dereferenceable(4) %__begin2) #3
  br label %for.cond26

lpad30:                                           ; preds = %for.body28
  %25 = landingpad { ptr, i32 }
          cleanup
  %26 = extractvalue { ptr, i32 } %25, 0
  store ptr %26, ptr %exn.slot, align 4
  %27 = extractvalue { ptr, i32 } %25, 1
  store i32 %27, ptr %ehselector.slot, align 4
  br label %ehcleanup

lpad33:                                           ; preds = %invoke.cont34, %invoke.cont31
  %28 = landingpad { ptr, i32 }
          cleanup
  %29 = extractvalue { ptr, i32 } %28, 0
  store ptr %29, ptr %exn.slot, align 4
  %30 = extractvalue { ptr, i32 } %28, 1
  store i32 %30, ptr %ehselector.slot, align 4
  call void @_ZNSt7__cxx1112basic_stringIcSt11char_traitsIcESaIcEED1Ev(ptr noundef nonnull align 4 dereferenceable(24) %bbName) #3
  br label %ehcleanup

ehcleanup:                                        ; preds = %lpad33, %lpad30
  call void @_ZNSt6vectorINSt7__cxx1112basic_stringIcSt11char_traitsIcESaIcEEESaIS5_EED2Ev(ptr noundef nonnull align 4 dereferenceable(12) %ref.tmp24) #3
  br label %ehcleanup50

for.end40:                                        ; preds = %for.cond.cleanup
  %add.ptr41 = getelementptr inbounds i8, ptr %sstrig, i32 8
  %call43 = invoke noundef nonnull align 4 dereferenceable(4) ptr @_ZStlsISt11char_traitsIcEERSt13basic_ostreamIcT_ES5_PKc(ptr noundef nonnull align 4 dereferenceable(4) %add.ptr41, ptr noundef @.str.27)
          to label %invoke.cont42 unwind label %lpad19

invoke.cont42:                                    ; preds = %for.end40
  %call45 = invoke noundef i32 @_ZN8pathInfo12getPathCountEv(ptr noundef nonnull align 4 dereferenceable(16) %pi)
          to label %invoke.cont44 unwind label %lpad19

invoke.cont44:                                    ; preds = %invoke.cont42
  %call47 = invoke noundef nonnull align 4 dereferenceable(4) ptr @_ZNSolsEi(ptr noundef nonnull align 4 dereferenceable(4) %call43, i32 noundef %call45)
          to label %invoke.cont46 unwind label %lpad19

invoke.cont46:                                    ; preds = %invoke.cont44
  %call49 = invoke noundef nonnull align 4 dereferenceable(4) ptr @_ZStlsISt11char_traitsIcEERSt13basic_ostreamIcT_ES5_PKc(ptr noundef nonnull align 4 dereferenceable(4) %call47, ptr noundef @.str.26)
          to label %invoke.cont48 unwind label %lpad19

invoke.cont48:                                    ; preds = %invoke.cont46
  call void @_ZN8pathInfoD2Ev(ptr noundef nonnull align 4 dereferenceable(16) %pi) #3
  br label %for.inc51

for.inc51:                                        ; preds = %invoke.cont48
  %call52 = call noundef nonnull align 4 dereferenceable(4) ptr @_ZN9__gnu_cxx17__normal_iteratorIP8pathInfoSt6vectorIS1_SaIS1_EEEppEv(ptr noundef nonnull align 4 dereferenceable(4) %__begin1) #3
  br label %for.cond13

ehcleanup50:                                      ; preds = %ehcleanup, %lpad19
  call void @_ZN8pathInfoD2Ev(ptr noundef nonnull align 4 dereferenceable(16) %pi) #3
  br label %ehcleanup54

for.end53:                                        ; preds = %for.cond13
  call void @_ZNSt7__cxx1118basic_stringstreamIcSt11char_traitsIcESaIcEED1Ev(ptr noundef nonnull align 4 dereferenceable(72) %sstrig) #3
  call void @_ZNSt7__cxx1118basic_stringstreamIcSt11char_traitsIcESaIcEED1Ev(ptr noundef nonnull align 4 dereferenceable(72) %ss) #3
  call void @_ZNSt7__cxx1112basic_stringIcSt11char_traitsIcESaIcEED1Ev(ptr noundef nonnull align 4 dereferenceable(24) %loopNumber) #3
  call void @_ZNSt7__cxx1112basic_stringIcSt11char_traitsIcESaIcEED1Ev(ptr noundef nonnull align 4 dereferenceable(24) %ln) #3
  ret void

ehcleanup54:                                      ; preds = %ehcleanup50, %lpad11
  call void @_ZNSt7__cxx1118basic_stringstreamIcSt11char_traitsIcESaIcEED1Ev(ptr noundef nonnull align 4 dereferenceable(72) %sstrig) #3
  br label %ehcleanup55

ehcleanup55:                                      ; preds = %ehcleanup54, %lpad7
  call void @_ZNSt7__cxx1118basic_stringstreamIcSt11char_traitsIcESaIcEED1Ev(ptr noundef nonnull align 4 dereferenceable(72) %ss) #3
  br label %ehcleanup56

ehcleanup56:                                      ; preds = %ehcleanup55, %lpad4
  call void @_ZNSt7__cxx1112basic_stringIcSt11char_traitsIcESaIcEED1Ev(ptr noundef nonnull align 4 dereferenceable(24) %loopNumber) #3
  br label %ehcleanup57

ehcleanup57:                                      ; preds = %ehcleanup56, %lpad1
  call void @_ZNSt7__cxx1112basic_stringIcSt11char_traitsIcESaIcEED1Ev(ptr noundef nonnull align 4 dereferenceable(24) %ln) #3
  br label %eh.resume

eh.resume:                                        ; preds = %ehcleanup57, %lpad
  %exn = load ptr, ptr %exn.slot, align 4
  %sel = load i32, ptr %ehselector.slot, align 4
  %lpad.val = insertvalue { ptr, i32 } undef, ptr %exn, 0
  %lpad.val58 = insertvalue { ptr, i32 } %lpad.val, i32 %sel, 1
  resume { ptr, i32 } %lpad.val58
}

; Function Attrs: mustprogress noinline optnone uwtable
define dso_local void @reportLoopEnd(ptr noundef %loopName) #5 personality ptr @__gxx_personality_v0 {
entry:
  %loopName.addr = alloca ptr, align 4
  %agg.tmp = alloca %struct.pathInfo, align 4
  %exn.slot = alloca ptr, align 4
  %ehselector.slot = alloca i32, align 4
  %loopNameStr = alloca %"class.std::__cxx11::basic_string", align 4
  %ref.tmp = alloca %"class.std::allocator.19", align 1
  store ptr %loopName, ptr %loopName.addr, align 4
  call void @_ZN8pathInfoC2ERKS_(ptr noundef nonnull align 4 dereferenceable(16) %agg.tmp, ptr noundef nonnull align 4 dereferenceable(16) @currentPath)
  %0 = load ptr, ptr %loopName.addr, align 4
  invoke void @_Z15addPath2Profile8pathInfoPKc(ptr noundef %agg.tmp, ptr noundef %0)
          to label %invoke.cont unwind label %lpad

invoke.cont:                                      ; preds = %entry
  call void @_ZN8pathInfoD2Ev(ptr noundef nonnull align 4 dereferenceable(16) %agg.tmp) #3
  call void @_ZN8pathInfo5clearEv(ptr noundef nonnull align 4 dereferenceable(16) @currentPath)
  %1 = load ptr, ptr %loopName.addr, align 4
  call void @_ZNSaIcEC1Ev(ptr noundef nonnull align 1 dereferenceable(1) %ref.tmp) #3
  invoke void @_ZNSt7__cxx1112basic_stringIcSt11char_traitsIcESaIcEEC1EPKcRKS3_(ptr noundef nonnull align 4 dereferenceable(24) %loopNameStr, ptr noundef %1, ptr noundef nonnull align 1 dereferenceable(1) %ref.tmp)
          to label %invoke.cont2 unwind label %lpad1

invoke.cont2:                                     ; preds = %invoke.cont
  call void @_ZNSaIcED1Ev(ptr noundef nonnull align 1 dereferenceable(1) %ref.tmp) #3
  %call = invoke noundef nonnull align 4 dereferenceable(12) ptr @_ZNSt3mapINSt7__cxx1112basic_stringIcSt11char_traitsIcESaIcEEESt6vectorIS6_I8pathInfoSaIS7_EESaIS9_EESt4lessIS5_ESaISt4pairIKS5_SB_EEEixERSF_(ptr noundef nonnull align 4 dereferenceable(24) @_Z13loopPathTraceB5cxx11, ptr noundef nonnull align 4 dereferenceable(24) %loopNameStr)
          to label %invoke.cont4 unwind label %lpad3

invoke.cont4:                                     ; preds = %invoke.cont2
  invoke void @_ZNSt6vectorIS_I8pathInfoSaIS0_EESaIS2_EE9push_backERKS2_(ptr noundef nonnull align 4 dereferenceable(12) %call, ptr noundef nonnull align 4 dereferenceable(12) @pathTrace)
          to label %invoke.cont5 unwind label %lpad3

invoke.cont5:                                     ; preds = %invoke.cont4
  call void @_ZNSt7__cxx1112basic_stringIcSt11char_traitsIcESaIcEED1Ev(ptr noundef nonnull align 4 dereferenceable(24) %loopNameStr) #3
  ret void

lpad:                                             ; preds = %entry
  %2 = landingpad { ptr, i32 }
          cleanup
  %3 = extractvalue { ptr, i32 } %2, 0
  store ptr %3, ptr %exn.slot, align 4
  %4 = extractvalue { ptr, i32 } %2, 1
  store i32 %4, ptr %ehselector.slot, align 4
  call void @_ZN8pathInfoD2Ev(ptr noundef nonnull align 4 dereferenceable(16) %agg.tmp) #3
  br label %eh.resume

lpad1:                                            ; preds = %invoke.cont
  %5 = landingpad { ptr, i32 }
          cleanup
  %6 = extractvalue { ptr, i32 } %5, 0
  store ptr %6, ptr %exn.slot, align 4
  %7 = extractvalue { ptr, i32 } %5, 1
  store i32 %7, ptr %ehselector.slot, align 4
  call void @_ZNSaIcED1Ev(ptr noundef nonnull align 1 dereferenceable(1) %ref.tmp) #3
  br label %eh.resume

lpad3:                                            ; preds = %invoke.cont4, %invoke.cont2
  %8 = landingpad { ptr, i32 }
          cleanup
  %9 = extractvalue { ptr, i32 } %8, 0
  store ptr %9, ptr %exn.slot, align 4
  %10 = extractvalue { ptr, i32 } %8, 1
  store i32 %10, ptr %ehselector.slot, align 4
  call void @_ZNSt7__cxx1112basic_stringIcSt11char_traitsIcESaIcEED1Ev(ptr noundef nonnull align 4 dereferenceable(24) %loopNameStr) #3
  br label %eh.resume

eh.resume:                                        ; preds = %lpad3, %lpad1, %lpad
  %exn = load ptr, ptr %exn.slot, align 4
  %sel = load i32, ptr %ehselector.slot, align 4
  %lpad.val = insertvalue { ptr, i32 } undef, ptr %exn, 0
  %lpad.val6 = insertvalue { ptr, i32 } %lpad.val, i32 %sel, 1
  resume { ptr, i32 } %lpad.val6
}

; Function Attrs: mustprogress noinline nounwind optnone uwtable
define linkonce_odr dso_local void @_ZNSt6vectorI8pathInfoSaIS0_EE5beginEv(ptr noalias sret(%"class.__gnu_cxx::__normal_iterator") align 4 %agg.result, ptr noundef nonnull align 4 dereferenceable(12) %this) #6 comdat align 2 {
entry:
  %result.ptr = alloca ptr, align 4
  %this.addr = alloca ptr, align 4
  store ptr %agg.result, ptr %result.ptr, align 4
  store ptr %this, ptr %this.addr, align 4
  %this1 = load ptr, ptr %this.addr, align 4
  %_M_impl = getelementptr inbounds %"struct.std::_Vector_base.46", ptr %this1, i32 0, i32 0
  %_M_start = getelementptr inbounds %"struct.std::_Vector_base<pathInfo, std::allocator<pathInfo>>::_Vector_impl_data", ptr %_M_impl, i32 0, i32 0
  call void @_ZN9__gnu_cxx17__normal_iteratorIP8pathInfoSt6vectorIS1_SaIS1_EEEC2ERKS2_(ptr noundef nonnull align 4 dereferenceable(4) %agg.result, ptr noundef nonnull align 4 dereferenceable(4) %_M_start) #3
  ret void
}

; Function Attrs: mustprogress noinline nounwind optnone uwtable
define linkonce_odr dso_local void @_ZNSt6vectorI8pathInfoSaIS0_EE3endEv(ptr noalias sret(%"class.__gnu_cxx::__normal_iterator") align 4 %agg.result, ptr noundef nonnull align 4 dereferenceable(12) %this) #6 comdat align 2 {
entry:
  %result.ptr = alloca ptr, align 4
  %this.addr = alloca ptr, align 4
  store ptr %agg.result, ptr %result.ptr, align 4
  store ptr %this, ptr %this.addr, align 4
  %this1 = load ptr, ptr %this.addr, align 4
  %_M_impl = getelementptr inbounds %"struct.std::_Vector_base.46", ptr %this1, i32 0, i32 0
  %_M_finish = getelementptr inbounds %"struct.std::_Vector_base<pathInfo, std::allocator<pathInfo>>::_Vector_impl_data", ptr %_M_impl, i32 0, i32 1
  call void @_ZN9__gnu_cxx17__normal_iteratorIP8pathInfoSt6vectorIS1_SaIS1_EEEC2ERKS2_(ptr noundef nonnull align 4 dereferenceable(4) %agg.result, ptr noundef nonnull align 4 dereferenceable(4) %_M_finish) #3
  ret void
}

; Function Attrs: mustprogress noinline nounwind optnone uwtable
define linkonce_odr dso_local noundef zeroext i1 @_ZN9__gnu_cxxneIP8pathInfoSt6vectorIS1_SaIS1_EEEEbRKNS_17__normal_iteratorIT_T0_EESB_(ptr noundef nonnull align 4 dereferenceable(4) %__lhs, ptr noundef nonnull align 4 dereferenceable(4) %__rhs) #6 comdat {
entry:
  %__lhs.addr = alloca ptr, align 4
  %__rhs.addr = alloca ptr, align 4
  store ptr %__lhs, ptr %__lhs.addr, align 4
  store ptr %__rhs, ptr %__rhs.addr, align 4
  %0 = load ptr, ptr %__lhs.addr, align 4
  %call = call noundef nonnull align 4 dereferenceable(4) ptr @_ZNK9__gnu_cxx17__normal_iteratorIP8pathInfoSt6vectorIS1_SaIS1_EEE4baseEv(ptr noundef nonnull align 4 dereferenceable(4) %0) #3
  %1 = load ptr, ptr %call, align 4
  %2 = load ptr, ptr %__rhs.addr, align 4
  %call1 = call noundef nonnull align 4 dereferenceable(4) ptr @_ZNK9__gnu_cxx17__normal_iteratorIP8pathInfoSt6vectorIS1_SaIS1_EEE4baseEv(ptr noundef nonnull align 4 dereferenceable(4) %2) #3
  %3 = load ptr, ptr %call1, align 4
  %cmp = icmp ne ptr %1, %3
  ret i1 %cmp
}

; Function Attrs: mustprogress noinline nounwind optnone uwtable
define linkonce_odr dso_local noundef nonnull align 4 dereferenceable(16) ptr @_ZNK9__gnu_cxx17__normal_iteratorIP8pathInfoSt6vectorIS1_SaIS1_EEEdeEv(ptr noundef nonnull align 4 dereferenceable(4) %this) #6 comdat align 2 {
entry:
  %this.addr = alloca ptr, align 4
  store ptr %this, ptr %this.addr, align 4
  %this1 = load ptr, ptr %this.addr, align 4
  %_M_current = getelementptr inbounds %"class.__gnu_cxx::__normal_iterator", ptr %this1, i32 0, i32 0
  %0 = load ptr, ptr %_M_current, align 4
  ret ptr %0
}

; Function Attrs: noinline optnone uwtable
